c__builtin__
set
p0
((lp1
S'Eat breakfast like a king, lunch like a prince and dinner like a college kid with a maxed out charge card.\xf0\x9f\x91\x91\xf0\x9f\x8d\x9f\xf0\x9f\x8d\x97\xf0\x9f\x8d\x94'
p2
aS"Rap is like college, I'm working on my Doctorate coz I've already Mastered it"
p3
aS'Forever alone level: "kissing the wall" \xf0\x9f\x92\x8b\xf0\x9f\x92\x8b\n#red #lipstick #kiss #college #wall #stairs #mo7n #habal\xe2\x80\xa6'
p4
aS'I dey ideal college oooo cruzn####jux passn thru'
p5
aS'Registration from home is much better than going to college to do it'
p6
aS"I'm at aviation sciences college"
p7
aS'@leetcher lol. Patricia went through tge electoral college process. Even helen did. Lindiwe was elected by caucus to lead it. Democracy.'
p8
aS'The college is silent \xf0\x9f\x98\x85 \xe2\x80\x9c@Just_Shameemah: What exactly is a university college?\xe2\x80\x9d'
p9
aS'"@Questionnier: Cc that friend of yours who can\'t wait for college? #ijozibah"@pwinkey_lurv'
p10
aS"I went to college with this ninja,now he presenting the Samoa's @VusiNova"
p11
aS"20yrs ago I was in a rural village school learning Afrikaans, 20yrs later,I'm working on a project 2 open a college in the same neighborhood"
p12
aS"@AllanLamb294 yes aren't they Lekker barnacles ! You see the college rugby cooking ! We're no 4 in SA"
p13
aS'"@The_LegendaryB: Tinadya kwambiri ku college cc:@nakso  "@KonLi90: Tin Fish ndi dealu"" ife tikudya ku ubachelor .. nthawi yophika zero'
p14
aS'"@hxllyy: college interview today ahhh\xf0\x9f\x98\xb1" best of luck'
p15
aS'\xd9\x85\xd9\x86 8 \xd9\x84\xd9\x8a 4 \xd9\x85\xd8\xad\xd8\xa7\xd8\xb6\xd8\xb1\xd8\xa7\xd8\xaa \xd8\xaf\xd8\xa7 \xd8\xb8\xd9\x84\xd9\x85 (@ aviation sciences college)'
p16
aS'I miss this place\n#short\n#fashion \n#pose\n#college_life @ 13 Church. Pc Training And Business College'
p17
aS'No college tomorrow yay'
p18
aS'How she make it to college?. "@BigMoney_StaxXx: Girl, that ass is stupid. . ."'
p19
aS"QDVC booth at @qataruniversity college of engineering, and I'll be presenting QDVC's internship\xe2\x80\xa6"
p20
aS'How come college students start their summer vacation before us. Unfair.'
p21
aS"@Farahsai So how are you?! How's college? How's Lebanon? \xf0\x9f\x98\x83"
p22
aS'PROBLEM OF THE DAY *turns on Brilliant Math &amp; Science Quiz theme song* "@Just_Shameemah: What exactly is a university college?"'
p23
aS'*talking about college and stuff* "My mom wants me to go study outside" "ok go outside the house" ok Abdullah.'
p24
aS'Just posted a photo @ stars international college'
p25
aS'Lmao niqqa no sii college porm sia 3y3 Prom ah......'
p26
aS'Ku Malawi amatiyika mu news basi --&gt;"@106andpark: Happy Monday! Keep sending a pic of u with your college acceptance letter with hashtag"'
p27
aS'Fuck American Pie college is not the same as I expected'
p28
aS'Current score Grey college 5 Quteniqua 0'
p29
aS'@sadiiistako @psstcallmeAJ gaga meron din sa college -___- by batch duh. Edi ano na lang bitches alumni wahahahahaha'
p30
aS'I saw u at your college road loooool \nIm getting my stalking habbit back \n@NrNr_R'
p31
aS'Da wana patient \xf0\x9f\x98\x81\xf0\x9f\x98\x81 .. Sank yooh faridaa \xf0\x9f\x98\x83 #patient #doctor #dentist #operative #dentistry #college\xe2\x80\xa6'
p32
aS'Sonnie i love u. Tank you for been on ma campus(college of health kintampo). For toughing u am blessed already.'
p33
aS"\xd9\x8a\xd8\xa7\xd8\xae\xd9\x8a \xd9\x88\xd8\xa7\xd9\x84\xd9\x84\xd9\x87 \xd8\xa7\xd9\x84\xd8\xb9\xd9\x85\xd8\xa7\xd9\x86\xd9\x8a\xd9\x8a\xd9\x86 \xd8\xb1\xd9\x88\xd9\x85\xd8\xa7\xd9\x86\xd8\xb3\xd9\x8a\xd9\x86 \xd8\xa8\xd8\xb3 \xd9\x85\xd8\xad\xd8\xaf \xd9\x85\xd9\x82\xd8\xaf\xd8\xb1\xf0\x9f\x99\x88\xe2\x9d\xa4\xef\xb8\x8f\n\nPs. It's my old college:p\n #\xd8\xae\xd8\xb7\xd9\x88\xd8\xa8\xd8\xa9_\xd9\x81\xd9\x8a_\xd8\xa7\xd9\x84\xd9\x83\xd9\x84\xd9\x8a\xd8\xa9_\xd8\xa7\xd9\x84\xd8\xad\xd8\xaf\xd9\x8a\xd8\xab\xd8\xa9"
p34
aS'School for 12 years, college for 4 years... then you work until you die. Great." Hahahahaha eish not fair'
p35
aS'Stellenbosch tonight with my fav fav! #girlsnightout #Stellenbosch #college #freshman #CapeTown\xe2\x80\xa6'
p36
aS'Grey college vs Quteniqua'
p37
aS'#Northwestern #Wildcats #players vote on #whether to form first union for #college #athletes'
p38
aS'#cymera #selfie #college #exams #fun #instagnan #instahabl #instagood #f4f #l4l @ Alexandria\xe2\x80\xa6'
p39
aS'\xd8\xad\xd8\xb1 \xd8\xad\xd8\xb1 \xd8\xad\xd8\xb1 \xf0\x9f\x98\xad\xf0\x9f\x98\xad\xf0\x9f\x98\xad\xf0\x9f\x98\xad\xf0\x9f\x98\xad\xf0\x9f\x98\xad\xf0\x9f\x98\xad\xf0\x9f\x98\xad ..Last time to go to college late\xf0\x9f\x98\xa9\xf0\x9f\x98\xa9\xf0\x9f\x98\xa9\xf0\x9f\x98\xa9\xf0\x9f\x98\xa9\xf0\x9f\x98\xa9\xf0\x9f\x98\xa9'
p40
atp41
Rp42
.