(dp0
S'beautiful'
p1
I1
sS'least'
p2
I1
sS'old'
p3
I2
sS'fair'
p4
I1
sS'chaotic'
p5
I1
sS'pic'
p6
I1
sS'unfair'
p7
I1
sS'high'
p8
I1
sS'polynomial'
p9
I1
sS'likely'
p10
I1
sS'long'
p11
I1
sS'shameemah'
p12
I2
sS'open'
p13
I1
sS'best'
p14
I3
sS'current'
p15
I1
sS'nrnr'
p16
I1
sS'silent'
p17
I1
sS'miss'
p18
I1
sS'electoral'
p19
I1
sS'only'
p20
I1
sS'same'
p21
I2
sS'creative'
p22
I1
sS'late'
p23
I1
sS'necessary'
p24
I1
sS'ideal'
p25
I1
sS'much'
p26
I1
sS'phandle'
p27
I1
sS'international'
p28
I1
sS'final'
p29
I1
sS'more'
p30
I1
sS'real'
p31
I1
sS'good'
p32
I1
sS'questionnier'
p33
I1
sS'instagnan'
p34
I1
sS'luxurious'
p35
I1
sS'new'
p36
I1
sS'last'
p37
I2
sS'kzn'
p38
I1
sS'ther'
p39
I1
sS'great'
p40
I2
sS'natural'
p41
I1
sS'brilliant'
p42
I1
sS'medical'
p43
I1
sS'later'
p44
I1
sS'emotional'
p45
I1
sS'bad'
p46
I2
sS'stupid'
p47
I1
sS't'
p48
I2
sS'rural'
p49
I1
sS'qwestmatic'
p50
I1
sS'whole'
p51
I1
sS'yall'
p52
I1
s.