c__builtin__
set
p0
((lp1
S'Eat breakfast like a king, lunch like a prince and dinner like a college kid with a maxed out charge card.\xf0\x9f\x91\x91\xf0\x9f\x8d\x9f\xf0\x9f\x8d\x97\xf0\x9f\x8d\x94'
p2
aS"Rap is like college, I'm working on my Doctorate coz I've already Mastered it"
p3
aS'@jontribros Which college? I can only hope for the best.'
p4
aS"@__QuiteHeavenly Yeah sometimes it's necessary in college. Man. . You're more than likely to skip at least 2 classes in a semester."
p5
aS'Madise this morning in class. SG Lourens nursing college. Model looks are natural'
p6
aS'Grey college vs Quteniqua'
p7
aS'0-0 to Dale college.'
p8
aS'"@Questionnier: Cc that friend of yours who can\'t wait for college? #ijozibah"@pwinkey_lurv'
p9
aS'The college is silent \xf0\x9f\x98\x85 \xe2\x80\x9c@Just_Shameemah: What exactly is a university college?\xe2\x80\x9d'
p10
aS"I went to college with this ninja,now he presenting the Samoa's @VusiNova"
p11
aS"20yrs ago I was in a rural village school learning Afrikaans, 20yrs later,I'm working on a project 2 open a college in the same neighborhood"
p12
aS'Tinadya kwambiri ku college cc:@nakso  "@KonLi90: Tin Fish ndi dealu"'
p13
aS'"@The_LegendaryB: Tinadya kwambiri ku college cc:@nakso  "@KonLi90: Tin Fish ndi dealu"" ife tikudya ku ubachelor .. nthawi yophika zero'
p14
aS"I'm at aviation sciences college"
p15
aS'It feels good parking close to the door.. A feeling i never tried in college #Omantel #venue #competition'
p16
aS'Final score Grey college 25 Quteniqua 7'
p17
aS'I met a lot of Xhosa people at ma college this year too (KZN) RT"@LuloCafe: I meet a lot of Xhosa people in KZN"'
p18
aS'"@hxllyy: college interview today ahhh\xf0\x9f\x98\xb1" best of luck'
p19
aS'I miss this place\n#short\n#fashion \n#pose\n#college_life @ 13 Church. Pc Training And Business College'
p20
aS'@Tbklise2 @Tshidi_Mphela college campus days lol. I miss yall man!'
p21
aS'How she make it to college?. "@BigMoney_StaxXx: Girl, that ass is stupid. . ."'
p22
aS'I understand that college sucks but never ever say that school was better cuz simply it wasnt\xf0\x9f\x98\xaa'
p23
aS'Way to college!!'
p24
aS'Yossif my best friend in uni love day with el sawaf at college #friend #friends #fun #TagsForLikes\xe2\x80\xa6'
p25
aS'\xd8\xad\xd8\xb1 \xd8\xad\xd8\xb1 \xd8\xad\xd8\xb1 \xf0\x9f\x98\xad\xf0\x9f\x98\xad\xf0\x9f\x98\xad\xf0\x9f\x98\xad\xf0\x9f\x98\xad\xf0\x9f\x98\xad\xf0\x9f\x98\xad\xf0\x9f\x98\xad ..Last time to go to college late\xf0\x9f\x98\xa9\xf0\x9f\x98\xa9\xf0\x9f\x98\xa9\xf0\x9f\x98\xa9\xf0\x9f\x98\xa9\xf0\x9f\x98\xa9\xf0\x9f\x98\xa9'
p26
aS"@Farahsai So how are you?! How's college? How's Lebanon? \xf0\x9f\x98\x83"
p27
aS'PROBLEM OF THE DAY *turns on Brilliant Math &amp; Science Quiz theme song* "@Just_Shameemah: What exactly is a university college?"'
p28
aS'*talking about college and stuff* "My mom wants me to go study outside" "ok go outside the house" ok Abdullah.'
p29
aS'Just posted a photo @ stars international college'
p30
aS'Lmao niqqa no sii college porm sia 3y3 Prom ah......'
p31
aS'Lets get through this day. Long weekend and a whole off week from college! Yas!'
p32
aS'Ku Malawi amatiyika mu news basi --&gt;"@106andpark: Happy Monday! Keep sending a pic of u with your college acceptance letter with hashtag"'
p33
aS'Fuck American Pie college is not the same as I expected'
p34
aS'@njebsdappoet you in creative arts college?'
p35
aS'Current score Grey college 5 Quteniqua 0'
p36
aS'#old #days #college #caledonian #engineering #cafeforte @ Caledonian College of Engineering, Oman'
p37
aS'@sadiiistako @psstcallmeAJ gaga meron din sa college -___- by batch duh. Edi ano na lang bitches alumni wahahahahaha'
p38
aS'"@SarcasmsNotes: can i pay for college with my tears"'
p39
aS'@NewEngCollege we have in morroco the new englan college and if the good want me be in ther Will graduate as a freshman, including superior'
p40
aS'I saw u at your college road loooool \nIm getting my stalking habbit back \n@NrNr_R'
p41
aS'Da wana patient \xf0\x9f\x98\x81\xf0\x9f\x98\x81 .. Sank yooh faridaa \xf0\x9f\x98\x83 #patient #doctor #dentist #operative #dentistry #college\xe2\x80\xa6'
p42
aS'Sonnie i love u. Tank you for been on ma campus(college of health kintampo). For toughing u am blessed already.'
p43
aS'If I had a dollar for everytime someone spelled my name wrong I could pay for college, a Ferrari car, and a mansion in London, all in cash.'
p44
aS'Stellenbosch tonight with my fav fav! #girlsnightout #Stellenbosch #college #freshman #CapeTown\xe2\x80\xa6'
p45
aS"@_773Reese when you're in your freshman year of college"
p46
aS'@leetcher lol. Patricia went through tge electoral college process. Even helen did. Lindiwe was elected by caucus to lead it. Democracy.'
p47
aS'lol kubhi, amadoda ajolayo e cape college res bahlele phandle ,,,,rhaa asoze...kubanda kangaka soze ndihlale phandle ncama'
p48
aS'I hate this fucking college'
p49
aS'Digger Phelps #leaving ESPN as #college #basketball #analyst'
p50
aS"I'm at accra college of education"
p51
atp52
Rp53
.