(dp0
S'excessive'
p1
I1
sS'pang'
p2
I1
sS'asian'
p3
I1
sS'morong'
p4
I1
sS'freakin'
p5
I1
sS'exoternal'
p6
I1
sS'ng'
p7
I1
sS'busy'
p8
I2
sS'terhegeh'
p9
I1
sS'young'
p10
I1
sS'salamat'
p11
I1
sS'late'
p12
I1
sS'only'
p13
I1
sS'indian'
p14
I1
sS'natuloy'
p15
I1
sS'easy'
p16
I2
sS'matagal'
p17
I1
sS'jateng'
p18
I20
sS'useless'
p19
I1
sS'real'
p20
I1
sS'good'
p21
I7
sS'handle'
p22
I1
sS'nagsaliwan'
p23
I1
sS'big'
p24
I1
sS'dan'
p25
I1
sS'safe'
p26
I1
sS'preetinyaynite'
p27
I1
sS'possible'
p28
I1
sS'bear'
p29
I1
sS'worst'
p30
I1
sS'polytechnic'
p31
I1
sS'fullest'
p32
I1
sS'celebrate'
p33
I1
sS'cool'
p34
I1
sS'marunong'
p35
I1
sS'impressive'
p36
I1
sS'bad'
p37
I4
sS'stupid'
p38
I2
sS't'
p39
I4
sS'notorious'
p40
I1
sS'mean'
p41
I1
sS'heavy'
p42
I1
sS'spiritual'
p43
I1
sS'google'
p44
I1
sS'old'
p45
I7
sS'grateful'
p46
I2
sS'sigh'
p47
I1
sS'national'
p48
I7
sS'allah'
p49
I1
sS'japanese'
p50
I1
sS'library'
p51
I2
sS'd'
p52
I1
sS'likely'
p53
I1
sS'college'
p54
I2
sS'table'
p55
I1
sS'bore'
p56
I1
sS'tolong'
p57
I1
sS'best'
p58
I12
sS'gon'
p59
I2
sS'stressful'
p60
I1
sS'christ'
p61
I1
sS'syaniebalkish'
p62
I1
sS'mere'
p63
I1
sS'enough'
p64
I1
sS'smallest'
p65
I1
sS'instapic'
p66
I1
sS'liketofollow'
p67
I1
sS'ig'
p68
I1
sS'new'
p69
I11
sS'epic'
p70
I1
sS'public'
p71
I1
sS'available'
p72
I1
sS'dulong'
p73
I1
sS'full'
p74
I3
sS'power'
p75
I1
sS'semarang'
p76
I1
sS'dental'
p77
I1
sS'commercial'
p78
I1
sS'galingan'
p79
I1
sS'free'
p80
I1
sS'argh'
p81
I1
sS'shouldn'
p82
I1
sS'imagine'
p83
I1
sS'tagal'
p84
I1
sS'great'
p85
I3
sS'ate'
p86
I2
sS'last'
p87
I9
sS'many'
p88
I1
sS'lsgh'
p89
I1
sS'equal'
p90
I1
sS'ish'
p91
I1
sS'macapagal'
p92
I1
sS'kung'
p93
I2
sS'whole'
p94
I3
sS'first'
p95
I10
sS'major'
p96
I1
sS'industrial'
p97
I2
sS'unhealthy'
p98
I1
sS'sweet'
p99
I1
sS'kapag'
p100
I2
sS'long'
p101
I4
sS'impossible'
p102
I2
sS'suck'
p103
I1
sS'silent'
p104
I1
sS'due'
p105
I1
sS'least'
p106
I2
sS'next'
p107
I2
sS'few'
p108
I1
sS'music'
p109
I1
sS'jeddah'
p110
I1
sS'linguistic'
p111
I1
sS'final'
p112
I3
sS'more'
p113
I7
sS'firm'
p114
I1
sS'hanggang'
p115
I1
sS'enable'
p116
I1
sS'complete'
p117
I1
sS'retrospective'
p118
I1
sS'eastern'
p119
I1
sS'fird'
p120
I1
sS'sister'
p121
I1
sS'matgal'
p122
I1
sS'true'
p123
I1
sS'former'
p124
I3
sS'glad'
p125
I1
sS'topic'
p126
I1
sS'kayong'
p127
I1
sS'double'
p128
I1
sS'easier'
p129
I1
sS'akic'
p130
I1
sS'arrive'
p131
I1
sS'give'
p132
I2
sS'mashal'
p133
I1
sS'awesome'
p134
I3
sS'mind'
p135
I1
sS'sad'
p136
I2
sS'high'
p137
I33
sS'im'
p138
I1
sS'ready'
p139
I1
sS'yskiholic'
p140
I1
sS'hard'
p141
I1
sS'varmanic'
p142
I1
sS'different'
p143
I1
sS'oyy'
p144
I1
sS'same'
p145
I1
sS'setable'
p146
I1
sS'other'
p147
I1
sS'aaral'
p148
I2
sS'pag'
p149
I1
sS'green'
p150
I1
sS'korean'
p151
I1
sS'pal'
p152
I1
sS'tutorial'
p153
I2
sS'nice'
p154
I1
sS'poor'
p155
I1
sS'finish'
p156
I1
sS'normal'
p157
I1
sS'stop'
p158
I1
sS'pear'
p159
I1
sS'lengthy'
p160
I1
sS'islamic'
p161
I1
sS'wrong'
p162
I1
sS'important'
p163
I1
sS'palpable'
p164
I1
sS'arunachal'
p165
I1
sS'died'
p166
I1
sS'recent'
p167
I1
sS'kept'
p168
I1
sS'medical'
p169
I4
sS'later'
p170
I1
sS'daily'
p171
I1
sS'tech'
p172
I1
sS'ultimate'
p173
I2
sS'english'
p174
I2
sS'international'
p175
I5
sS'typical'
p176
I2
s.