c__builtin__
set
p0
((lp1
S'Fuck college Id rather re-enlist, and be a Hard dick recon motherfucker #re-en listment package'
p2
aS"I'm at Jubail Industrial College | \xd9\x83\xd9\x84\xd9\x8a\xd8\xa9 \xd8\xa7\xd9\x84\xd8\xac\xd8\xa8\xd9\x8a\xd9\x84 \xd8\xa7\xd9\x84\xd8\xb5\xd9\x86\xd8\xa7\xd8\xb9\xd9\x8a\xd8\xa9 - @irjubailcollege w/ @ziyad_aljamea"
p3
aS'Nasestress naman daw ako. Hayst! Maadal nalang ako kang Rizal bako lang college al.'
p4
aS'@IshveenaKaur Hahah.. cz nvr chat :p hehe \nJk nie.. So watcha doin ? No college ah ?'
p5
aS'To #college'
p6
aS'Sial betul ah buat perangai babi apa pompuan tu (@ Alpha college)'
p7
aS'Di jud ko magcommerce pag college shet nyo -_-'
p8
aS"@StarMoviesIndia i would like to meet my love of my college life. I've not seen her ever since. #LastDayOnEarth"
p9
aS'@iamniellabitch ahhhh good luck sa college life:*=))'
p10
aS'Just got a call from the college where I studied!! Invited for an event + awards function!! Great learning that they recognize alumni too!!!'
p11
aS"I'm at Ibn Sina National College | \xd9\x83\xd9\x84\xd9\x8a\xd8\xa9 \xd8\xa7\xd8\xa8\xd9\x86 \xd8\xb3\xd9\x8a\xd9\x86\xd8\xa7 \xd8\xa7\xd9\x84\xd8\xa3\xd9\x87\xd9\x84\xd9\x8a\xd8\xa9 - @ibnsina_college (Jeddah, Western Province) w/ 3 others"
p12
aS'@acinomrose Sge babe! Hihi magkano daw ba college fee?'
p13
aS'Last night...we four were / walking on the road...enjoying the unforgettable fun...remembering the college days...it was awesome'
p14
aS'@krexois ay grabe bagay talaga kami, huhuntingin q yan sa college pwahaha'
p15
aS'\xe2\x80\x9c@zighduhhh: So glad college gonna end soon, like tomorrow.\xe2\x80\x9dyeayyy haha'
p16
aS'@jurchenli sa uste ka mag ka-college? \xf0\x9f\x98\x8a'
p17
aS"@pal36 It's a dental college where people have a lot of sex."
p18
aS'at saito college..done abez jge exam...balik tdo....'
p19
aS'@ShaaEya hahahahahahahahaha tahu pun haih geram je kyna nak jumpa wardah pun pyh pdhal satu college'
p20
aS'San ka mag aaral sa college? @clairybels @zyrabelleA'
p21
aS'Hari hari celaka di college #HidupCelakaDiSegi @ Showru Cafe &amp; Bistro'
p22
aS'#Shop #ForRent in front of Polytechnic college, #AmbarnathEast #Thane #Commercial #Property'
p23
aS'@lgillamac meeeeee... jk\n\nambot tinuod ba, 1st year college na xa... graduated frm SC'
p24
aS"Went to college in my shorts to get the roll no slip and they didn't even allowed me to enter the college. Wtf?"
p25
aS'Cepat laa habis sem break , hmmm hmm tak meriah college sikit sgt budak , yang ada pun junior2 baru masuk ni haha , membosankan boh :3'
p26
aS'Missing my college \xf0\x9f\x98\xbf\xf0\x9f\x98\xbf'
p27
aS'@marvinosilva soon kapag college na ako \xf0\x9f\x98\x83\xf0\x9f\x98\x83\xf0\x9f\x98\x84'
p28
aS'@SheychelleCruz hahaha magkikita naman sguro tayo sa college pareho tayong intramuros eh :D'
p29
aS'\xe2\x80\x9c@sbkinshicho: \xe3\x80\x8c\xe6\x8b\xa5\xe6\x9c\x89\xe5\xae\x8c\xe5\x96\x84\xe7\x9a\x84\xe5\xb0\xb1\xe4\xb8\x9a\xe6\x94\xaf\xe6\x8f\xb4\xe5\x88\xb6\xe5\xba\xa6\xe3\x80\x8d\n\n\xe3\x80\x8c\xe6\x9c\x80\xe7\x9f\xad3\xe4\xb8\xaa\xe6\x9c\x88\xe5\x8f\xaf\xe5\xb0\xb1\xe4\xb8\x9a\xe3\x80\x8d\n\n\xe5\x90\x91\xe6\x82\xa8\xe6\x8e\xa8\xe8\x8d\x90\xe7\xa7\xbb\xe5\x8a\xa8\xe9\x80\x9a\xe4\xbf\xa1\xe4\xb8\x9a\xe7\x9a\x84\xe4\xba\xba\xe6\x9d\x90\xe8\x82\xb2\xe6\x88\x90\xe5\xad\xa6\xe6\xa0\xa1Mobile college of Japan\xef\xbc\x88\xe7\xa7\xbb\xe5\x8a\xa8\xe7\x94\xb5\xe8\xaf\x9d\xe4\xb8\x9a\xe5\x8a\xa1\xe6\x95\x99\xe8\x82\xb2\xe5\xad\xa6\xe9\x99\xa2\xef\xbc\x89\n\n\xe5\xad\xa6\xe7\x94\x9f\xe3\x80\x81\xe7\xa4\xbe\xe4\xbc\x9a\xe4\xba\xba\xe3\x80\x81\xe4\xb8\xbb\xe5\xa6\x87\xe3\x80\x81\xe7\x95\x99\xe5\xad\xa6\xe7\x94\x9f\xe5\xa4\xa7\xe6\xac\xa2\xe8\xbf\x8e\n\n\xe8\xaf\xa6\xe7\xbb\x86\xe5\x86\x85\xe5\xae\xb9\xe6\xac\xa2\xe8\xbf\x8e\xe9\x9a\x8f\xe6\x97\xb6\xe5\x92\xa8\xe8\xaf\xa2\xe2\x80\x9d \xe6\x80\xa5\xe7\x9c\xbc\xe4\xba\x86\xe5\xb0\xb1\xe6\x89\xbe\xe8\xbf\x99\xe4\xb8\xaa\xef\xbd\x9e'
p30
aS'@jhezbaldeo diin ka ma college? :)'
p31
aS"I'm at Brickfields Asia College - @baccollege (Petaling Jaya, Malaysia) w/ 2 others"
p32
aS"@callmemariah_  I didn't even know you were leaving for college \xf0\x9f\x98\xad\xf0\x9f\x98\xad"
p33
aS"Chilling at home for 6 months straight and I gained like 4 kilos.\n\nBig deal, I'll just shake that off later in college."
p34
aS'Bahala ako an pirmi sugu-suguon ngari. Swerte na kaayo ko sa akong kinabuhi nga nakauban nako akong mama sa whole college life nako.'
p35
aS'esok last sblm dia balik college'
p36
aS'#certificate #of #student #exchange #at #sirindhorn #college #of #publichealth #khonkaen # teddybear\xe2\x80\xa6'
p37
aS"Mom: Sou had so called reunion at college mates' wedding did any guys ask for ur number?"
p38
aS'Selfie college (:'
p39
aS'me if my college burned down'
p40
aS'@wajidjamil in chowk bear medical college balaganj chowraha lucknow'
p41
aS'I went off to #college #planning to major in math or #philosophy-- of #course, both those ideas are really the same idea.'
p42
aS'#my #college #scet #faculty #of #architecture #passage #entry #missing #those #days #instapic\xe2\x80\xa6'
p43
aS'Ten years ago, #Facebook was launched, #Friends ended, and we graduated from college. #UPDiliman'
p44
aS'Fontana later with old college friends \xf0\x9f\x98\x82'
p45
aS'#CongJawabDo Tushar Chaudhary,why have you stopped NCPCL donating 10 cr for an engg college sponsored by Govt of Guj ?.'
p46
aS'Gusto ko pag college na ako sa Baguio, City ang Univ. ko, para naman pumuti puti ako kahit papaano. \xf0\x9f\x98\x82\xf0\x9f\x98\x82'
p47
aS'@RH_Afterdark first week of college, quite a lot to do. end of the month, no money urgh'
p48
aS'Farewell in college :)'
p49
aS'@captivxted bertabahlah anda hahaha kat rumah ke kat college?'
p50
aS"@WiseNate sorry I couldn't make it I had to sleep for college"
p51
aS'@tylahlaaah Good, haha. Eyy your school won. Where you going for college?'
p52
aS'@smvlm wat college?'
p53
aS'Inuman sessions with college friends. Di sumama ung iba... #CoE #CollegeFriends @ Garage 88 The Fort BGC'
p54
aS'@yvoonneyy :(( Busy. Graduating eh :( bawi soon. Kapag may free time sa college. Lunch tayo yung group natin :))'
p55
aS'FLASHBACK Friday :)) Hello to my awesome college classmates :)) Look at my desktop in my table.\xe2\x80\xa6'
p56
aS'\xe2\x80\x9c@joycepring: #BalangAraw gr-graduate ka din \n\n:p\xe2\x80\x9d sana 3 years lng ako sa college \xf0\x9f\x8e\x93'
p57
aS'Anxious to start college. I just want my law degree already lol'
p58
aS"Missin' college life. Missin' FEU. Good morning! @ Far Eastern University"
p59
aS"With Ate and her college friends. I'm just a tag-along. Really shouldn't have come. But Ate needs company going ho..."
p60
aS'college event (@ Penang Hill (\xe5\x8d\x87\xe6\x97\x97\xe5\xb1\xb1 Bukit Bendera) - @visitpenang w/ 7 others)'
p61
aS'Lazy monday and safety first :) #monday #kekptmkekita #college #lazy #class @ Pusat Bandaraya Ipoh, Perak'
p62
aS'\xe2\x80\x9c@yellouisa: Gusto ko na din maka-graduate ng college hehe \xf0\x9f\x98\x8a\xe2\x9c\x8c\xef\xb8\x8f\xe2\x80\x9d \xf0\x9f\x8e\x93\xf0\x9f\x91\x8f'
p63
aS'Di ko parin tanggap na college nako sa pasukan! \xf0\x9f\x98\xad\xf0\x9f\x98\x82 enebe!'
p64
aS'Senyap sepi college hari ni haih'
p65
aS'Bawi naman daw sila pagkatapos nung ginawa nila for their college "ekek" haha. Halos college na ksi silang lahat.'
p66
aS'@ameliaachung Was going to college ,had some music tracks to prepare for class :) , Where were you!? :O'
p67
aS'Say hi to college life, aym ready!!! \xee\x90\x85\xee\x80\x8e\xee\x80\x90'
p68
aS'@NisaaChichii Han chiang college penang'
p69
aS'Varsity.. Eh hindi ka naman nag champion nung college tayo. GAHAHAH. Gaga to ah. #wansapanataym'
p70
aS'Agreeable RT @CollegeGameDay: Saturdays with college football are so much better.'
p71
aS'@danieldebid San ka mag college? \xf0\x9f\x98\xac'
p72
aS"@NadiraZahari_ you're welcome babe \xe2\x9c\x8c you dah sampai college ke?"
p73
aS'Most of college students are women but most of the rich people around the world are men'
p74
aS'"@jiyeong_ji: @biyanimeyg What is this? 1.2.5?" - its 1.25. Its a grade in a college level here equivalent to 95-97 I think.'
p75
aS'@auhcesined are you in college  now Denise!!!!???'
p76
aS'Summer fun!!\n\n#summer #friends #classmates #fun #reunion #reunited #college @ Circa La Playa Resort'
p77
aS'@Veggie_234 younger one or elder one xD. My mom wants to do the house over when I begin college so yay'
p78
aS"@ItsTanesTwipz I'm fine bro. Same here bro. How's college bro?"
p79
aS'Idk "@InggrisBisa: #WhatIsYourChoice *dream college* UI/ ITB? UGM/ Unpad/ STAN? #EnglishIsFun"'
p80
aS'@Mapulife thats the view from my college (:'
p81
aS'Well seriously i wanna go to college, im sick of ma class, Full of backstabbers, Spies and sceamers (Except some of them)'
p82
aS'At \xe4\xba\x9a\xe6\xb4\xb2\xe5\x9b\xbd\xe9\x99\x85\xe5\x8f\x8b\xe5\xa5\xbd\xe5\xad\xa6\xe9\x99\xa2 (asia international friendship college) \xe2\x80\x94'
p83
aS'@Jyuueru college?'
p84
aS'@rahulraja1987  And we differ in our views about relationships since college days  right? @PreetiNyaynite'
p85
aS"Yattaaaaaa *\\(^o^)/*\nTomorrow's OFF .. No college.. No exams \xef\xbc\x88\xe2\x89\xa7\xe2\x88\x87\xe2\x89\xa6\xef\xbc\x89\xe2\x99\xa5\xef\xb8\x8e"
p86
aS'pejabat college call, suruh aku duk tngkat empat.. grrr'
p87
aS'#100HappyDays #Day10 (Double digits!)Obsessively read all day, chatted w/mommy,did some banking&amp;writing for college&lt;3'
p88
aS'This used to be my everyday lunch when I was in college. Oh that to-die-for sauce! AKIC days will\xe2\x80\xa6'
p89
aS"Hungryyyyyyy (@ AVIATION Training college's restaurant (7th floor))"
p90
aS'@AimannnHakimm dekat jugak apa? Haha. Awk belaja gombak jugak ke? International Islamic college'
p91
aS'@AlexStrawther lol of course imma tell you bro! You drove all the way from college twice to see your nigga!'
p92
aS'at college east !'
p93
aS'@bieberharries aww i do suck ! Im going to college and i never experienced having a boyfriend . Ok i got it! Justin is meant for me. Joke!'
p94
aS'Ilya buat onar sedih kt ws group. Pastu semua tak layan aku. Tidur ah. Taknak p college esok. Nak quit.'
p95
aS'less healthy but college until night, shit! (at Universitas Widyatama) \xe2\x80\x94'
p96
aS'#instapic #picoftheday #instamood #instachandigarh #college #farewell #glares #beard #RayBan #Gant\xe2\x80\xa6'
p97
aS'@Yloraster goodluck sa college life ate dana!! go for it ;) maabot mo ma dreams mo :* missyou all, take care always xx'
p98
aS'me and mom talking kung saan ako mag ka-college'
p99
aS'Felt like college all over again \xf0\x9f\x8d\xad @ Corinthians Garden'
p100
aS'@claramoncherry 3rdyr college'
p101
aS'Di pa ko nagiinquire para sa college!!!! Hindi yata talaga ako magcocollege!!!!'
p102
aS'sampai (@ Veta college)'
p103
aS'@Oooooscarousel #college :) HAHHA'
p104
aS"I'm at Auditorium @ ITE college central AMK"
p105
aS"@hillarybitch hahaha yeaaa I'm going to sunway college wby?"
p106
aS'Supporting my college mates "the Squirrels" (@ Funky Town Caf\xc3\xa9 Restaurant)'
p107
aS'@jabrullah3 INTI ke HELP. Either two. Still kena study college tu ok tk.'
p108
aS'#BalangAraw magiging CSR na ko, then tutulungan ko sarili ko na makapag-aral sa gusto kong college school.'
p109
aS'At Pandan college-japanese language school \xe2\x80\x94'
p110
aS'@babyminette24 Ayiee. Pagka grad mo ng college Teacher ba agad? :)) Or 4yrs pa?'
p111
aS'@yuricaunca Diet ... And college :)) haha see ya around taft !!'
p112
aS'Late againn. (@ Brickfields Asia College - @baccollege w/ 2 others)'
p113
aS'#reunion #college #friends #ffl #instacollage #picoftheday #Route04 #food #shisha #lovedit @ Route 04,\xe2\x80\xa6'
p114
aS'Masih pagi, masih sepi lalala~ #instadaily #instaplace #college #morning @ POLITEKNIK KOMPUTER NIAGA &amp;\xe2\x80\xa6'
p115
aS'@Sambaxz turning 16 hahah :p graduate na daw ng college wehh hahaha \xf0\x9f\x98\x82\xf0\x9f\x98\x82\xf0\x9f\x91\x8a\xe2\x9c\xa8\xf0\x9f\x91\x8b'
p116
aS"Arts Fusion'14 \xe2\x99\xa1 @ \xe2\x98\xba yishun junior college \xe2\x98\xba"
p117
aS'At Med-college Library \xe2\x80\x94'
p118
aS'@KrissyMontejo wala e sa college yan na yung motto hahahahaha'
p119
aS'Kaylangan ko na pla bagong boy bestfriend sa college! Nag retire na yung dati LOL'
p120
aS'Kalau tak bersalah, mai kita dok setable, bincang. Tapi tak main la kalau dkt college, hostel kan ada'
p121
aS"si mama ba ipa carpool dw ghapon ko pag portyir, basig naa pd syay balak pacarpool'on ko hantud poryir college? HAHAHAHAHAHAHA\xf0\x9f\x98\x84"
p122
aS'Just posted a photo @ Nilai university college, R block'
p123
aS'SMAW .... Arc welding #college #workshop #welding #mechanical #engineering #student #study #education\xe2\x80\xa6'
p124
aS"I hope Epic builds will call me soon. I wanna start building houses ! It's a wonder why I didn't pursue architecture in college."
p125
aS'@mnadirahazmi hahah aku bawak bangla guard college aku.'
p126
aS'This means college. #42814 @ Padulong College'
p127
aS'Nagpm sakin ung Kabet ng asawa ng Tropa ko na classmate ko dati nung college.. should i tell her na asawa ng tropa ko kinakalantari nya? TLW'
p128
aS'Hardy the best Cornerback college football.'
p129
aS"I can't even study for exams! I'm totally checked out of college already!"
p130
aS"Decided what I am gifting mommy dearest on mother's day!! First project after college!! #MothersDay"
p131
aS'Felt just like college all over again with these two. My college family \xe2\x98\xba\xef\xb8\x8fMissing dodongrain and\xe2\x80\xa6'
p132
aS'My plans for college are screwed.'
p133
aS'@are_pear hahaha okay then fird. Rindu college ke rindu orang ? Hahahaahha'
p134
aS'Basah kuyup. Tak seronok masuk kolej kelas macam ni (@ Brickfields Asia College - @baccollege)'
p135
aS'\xe2\x80\x9c@molozsobong: \xe2\x80\x9cCan we skip this whole \xe2\x80\x9ccollege\xe2\x80\x9d thing &amp; go to the part where i have a really awesome job &amp; spend all my time traveling?\xe2\x80\x9d\xe2\x80\x9d'
p136
aS'@_patriciadmngz basi. Last euta gd daun to before college dayss'
p137
aS'@erikacrabara hai po. Saan ka magco-college?'
p138
aS'@dianeanaretaaa kaya nga! Sa college life na lang ulit. Yeaaa. Hahaha'
p139
aS"MCM bag for $2217? Wtf Yixing's bag is more expensive than my college tuition fee"
p140
aS"they make my college life more bearable \xf0\x9f\x92\x95\xf0\x9f\x98\x98 @ Taylor's College - Canadian Pre University"
p141
aS'Sony sugema college \xee\x9c\xa8\xee\x9c\xa9\xee\x9c\xaa'
p142
aS'Wala daw limutan pag college na, e bakasyon plang nkalimot kna.'
p143
aS'i got new friend ! haha memang best pergi berjaya college ! i love my new friend !'
p144
aS'\xd8\xa7\xd8\xae\xd8\xaa\xd8\xa8\xd8\xa7\xd8\xb1\xd8\xa7\xd8\xaa \xd9\x85\xd9\x88\xd8\xb3\xd9\x85\xd9\x8a\xd8\xa9\xf0\x9f\x99\x8b (@ Buraydah college)'
p145
aS'@YongJing10 hahahaah good luck bro ... Last year already then can go college .. Have own car hahaha'
p146
aS'Semoga bener semua berawal dari kelas ini \nDan kami semua lulus \nAstungkara (at indonesia college) [pic] \xe2\x80\x94'
p147
aS'Epic #girlsnightout ! Never mind the back-to-college #music! #TheBigNasty'
p148
aS"PDL work is like morals'. But in college, we can't lie in the portfolios lol"
p149
aS'@KatrinaAmorado college?'
p150
aS'Can i just skip my college life and terus kahwin?'
p151
aS'Marami rin pala samin, magkaklase pa rin sa college !! :)'
p152
aS'Try for imperial college London or just go directly to Stanford?'
p153
aS"Birthdays that you've spent during your college days will remain special for the rest of your life."
p154
aS'Union says #players from other #college teams have #expressed #interest in #forming unions'
p155
aS'kung ung pipiliin kong course sa college kaya nyong pigilan okay but having my own puppy tas pigilan nyo pa ko lol no todo ylg'
p156
aS'My cousin would be there on the 6th-9th, my bestfriend 6th-10th and my college friends on 10-12th!!! Wahhhh! I want to be with all of you!!'
p157
aS'Nothing makes college interesting without them. \xf0\x9f\x98\x8f @ Sunway University'
p158
aS'@CeciliaaaTalks Of course not. Hahaha. But parents going bkk on June. \xf0\x9f\x98\xad\xf0\x9f\x98\xad But I start my college liao that time.'
p159
aS'\xe2\x80\x9c@leonardoxdeasis: @fonfonclick kk good got me scured\xe2\x80\x9d SCURED for college'
p160
aS"@AlCadorniga same college diffrent course! :'("
p161
aS'Oh how I miss college.'
p162
aS'Hindi ko pa feel na college na sila \xf0\x9f\x98\x82'
p163
aS'H-5 \nShit ! (at indonesia college) \xe2\x80\x94'
p164
aS'Chapter 8 : differetiation. (Bisnes math) \xf0\x9f\x98\xad (@ Lh3 poly-tech mara college,)'
p165
aS'@angelicoleen uh oo ngae!! Thank you gaga!! Sama ka sa youth camp lol Gala tayo sa college please!! Sweaaar miss you!! Love youu!'
p166
aS'Hahahaha mag kaiba ang collage sa college hahahahaha \xf0\x9f\x98\x82\xf0\x9f\x98\x82\xf0\x9f\x98\x82'
p167
aS'Bute pa yung iba may sched na for college. Ako magtetest palang. Makuha ko kaya results kinabukasan? Haha sana.'
p168
aS'Last day of college . Mixed emotions \xf0\x9f\x98\x81 (@ SEGi University College Penang w/ @japitgill)'
p169
aS'I should have saved everything i wrote in college.'
p170
aS'@soccer4t33 college smollege..'
p171
aS'Sana kahit mga 8 years makalaro ako sa college Basketball.'
p172
aS'Naaalala ko dati may crush ako sa college tapos course nya hrm. Haha'
p173
aS'@ellroitalavera joke lang. TIP siya :) Hahaha. Good luck sa college! :)'
p174
aS'@herchellim kaya yan. sa college ka na lang balik para free na haha'
p175
aS'Ganahan na lage ko mag college'
p176
aS'@LoveMOOKoo yung cmate ko nung college bhe n trying n rakista. Nakakasuya! Ubod ng yabang'
p177
aS'#fishes #fish #pond #water #stones #grass #college #asac #work #students #work #instapic #instatime\xe2\x80\xa6'
p178
aS'Tapos wala akong mapagsabihan ng mga problema ko. Awan pagdramaak. Huhuhu. Busy kasi silang lahat for their college ekek! Haha'
p179
aS'Lunch with my HS and college friend/classmate \xf0\x9f\x98\x8a @ \xe3\x83\x90\xe3\x83\xb3\xe3\x82\xb3\xe3\x82\xaf\xe3\x82\xad\xe3\x83\x83\xe3\x83\x81\xe3\x83\xb3\xe6\x9c\x89\xe6\xa5\xbd\xe7\x94\xba'
p180
aS'#narsis#farewellparty#alwicollege @ alwi college'
p181
aS'Naalala ko yung sabi sakin ni kuya edward nung friday. "Wag kang magmadali, hayaan mo mapapagod ka din sa college mo." Hahahaha \xf0\x9f\x98\x82\xf0\x9f\x99\x8a'
p182
aS'Masarap sa feeling ang grumaduate ng college pero masakit sa feeling pag wla kang nahanap na trabaho o hndi ka nareregular #WorstFeelingEver'
p183
aS'with the most handsome boy at college just for today\xf0\x9f\x98\x8d\xf0\x9f\x98\x8d\xf0\x9f\x98\x8d (with Frederich at @biemers) [pic] \xe2\x80\x94'
p184
aS'@oohmarielala Ay syempre meron! At ....... Kayo yun ang mga college buddies ko \xf0\x9f\x98\x81\xf0\x9f\x98\x9c OHA'
p185
aS'Here at Promenade GH.. I did great on my math exam :)#college #student #asian #pinoy #philippines\xe2\x80\xa6'
p186
aS'Nak masuk tentera. Bye college (@ Kem tentera sungai besi)'
p187
aS'After night shift.. after a few hours of sleep.. heading to college to do past year question-.- haizzzz pai mia!!'
p188
aS'@iamnursemucky Axel college na sa dlsu. Manolo HS at Lsgh'
p189
aS'\xd9\x85\xd9\x8a \xd9\x87\xd8\xa7\xd9\xbe\xd9\x8a \xf0\x9f\x8c\x9a (@ Ibn Sina National College | \xd9\x83\xd9\x84\xd9\x8a\xd8\xa9 \xd8\xa7\xd8\xa8\xd9\x86 \xd8\xb3\xd9\x8a\xd9\x86\xd8\xa7 \xd8\xa7\xd9\x84\xd8\xa3\xd9\x87\xd9\x84\xd9\x8a\xd8\xa9 - @ibnsina_college w/ 54 others)'
p190
aS'Final Time @ Dusit thani college'
p191
aS'Lol want carpool to college??? come pay me transport feee XD'
p192
aS'\xef\xbc\xa4oshisha college song \xe3\x81\xa1\xe3\x82\x87\xe3\x81\xa3\xe3\x81\xa8\xe8\xa6\x9a\xe3\x81\x88\xe3\x81\x9f\n\xe3\x83\x81\xe3\x83\xa3\xe3\x82\xa4\xe3\x83\xa0\xe3\x81\xa7\xe6\xb5\x81\xe3\x82\x8c\xe3\x82\x8b\xe3\x81\x9f\xe3\x81\xb3\xe3\x81\xab\xe5\x8f\xa3\xe3\x81\x9a\xe3\x81\x95\xe3\x82\x93\xe3\x81\xa7\xe3\x81\x97\xe3\x81\xbe\xe3\x81\x86'
p193
aS'@Jarpum @eclectictweets Arunachal deserves a medical college.Up the ante.It will go a long way in uplifting the health standards in ur state'
p194
aS'Great! First day of college @.@" (@ Suriname College of Hospitality &amp; Tourism)'
p195
aS'@haaaaafiz_ Alright bro. Tp aku bukan tiap tiap hari ada dkt sana ahh. Aku study jb je dkt austin sana. Sunway college'
p196
aS'@Yna0001 isa lang po (: pipili kasi ako ng magiging school ko pag nag-college na ko.'
p197
aS'College tak sweet college.. Sadisss ayaq xdakkk (@ Ungku Omar Residential College)'
p198
aS"#ThrowbackSaturday My college days wouldn't be amazing without you, guys. I love you both #EvaCarillo\xe2\x80\xa6"
p199
aS'@wawa_swift international islamic college . Kat gombak . Hmm minat nursing tapi tak dpt . Tapi Alhamdulilah okay .Course akak ni interesting'
p200
aS'@Raprafito wala solo nalang ako lol kamusta college apps mo?? :))'
p201
aS'"@alyonsss: kinakabahan ako mag-college \xf0\x9f\x98\xad\xf0\x9f\x98\xad\xf0\x9f\x98\xad" ano course mo'
p202
aS'@BrandonJPereira ok ok next week OK ? Must make it fast cos college starting soon haha \xf0\x9f\x98\x83\xf0\x9f\x98\x83\xf0\x9f\x98\x83'
p203
aS'\xe2\x80\x9c@collegefession: "Do guys like receiving neck kisses? #replytweet #IWantToPlease" - College of Charleston\xe2\x80\x9d is that even a question?'
p204
aS'i still dont know what study i will take in college after graduating from high school'
p205
aS'@kleyowmari Hihi. Labyutoo :)) Oyy. Goodluck sa college :) Lol. Kahit masyado pang maaga. :P'
p206
aS'Home sweet home . College sour college'
p207
aS"#FactAboutMe\nI have to deal with incompetents each and everyday at school.\nI'm glad this'll change next year for me though; joining college."
p208
aS'To college \xe2\x98\x85'
p209
aS'late post\xe2\x80\xa6 Morning college (@ Gedung 19 DKV Itenas)'
p210
aS'And to top this, we can only sign 3 bonds during the whole college life #screwed'
p211
aS"@LUV_KSG_KW_GR @OhMrRaja @alia_siddiqui @prashantrajaFC yup it's college..."
p212
aS'First day of college tomorrow! Having mixed feeling now. May everything goes well, night night :)'
p213
aS'missing a lot of my college and highschool friends. this bahay bahayan is always getting in the way, pero ok lng love nman kita habibs ee :)'
p214
aS'@EykaZailani kolej tu.. dekat jugak..hahaha.. apa nama college tu.. tak pernah nak tau..'
p215
aS'Dear college people :)'
p216
aS'"@hashtag_qwerty: Yeess nmaaaan!!! College na siya!!!! Hhahah!!! @unnicorn_" Oo nga! Grabe. Akala ko di nako makakapag college.'
p217
aS"Almost 4pm and it's UE vs DLSU!!! I \xe2\x9d\xa4\xef\xb8\x8f college basketball and volleyball."
p218
aS'An old ink stained tattered blue faded jeans was enough to remind me how much I miss my college days!'
p219
aS'@KYLMRTN sn k mag college ate?'
p220
aS'Maradana college of technology. Loving this ancient architecture. I took a quick picture coz I never\xe2\x80\xa6'
p221
aS'"@FloroArcetaJR: Us in college \xf0\x9f\x98\x82\xf0\x9f\x98\x82\xf0\x9f\x98\x82'
p222
aS'rindu moment masa dekat berjaya college tadi ! rindu kawan baru !'
p223
aS"I'm at Brickfields Asia College - @baccollege (Petaling Jaya, Malaysia)"
p224
aS"Things I'll miss about college :') Indomee double, roti pisang peanut butter and economy rice (not in\xe2\x80\xa6"
p225
aS'Senyum getir "@tatamassie: :) RT @TriasAprilya: Our priorities are assignment,exam,event,and the other kind of college stuff. Not you (=|"'
p226
aS'@thekiranbedi more than 30 students from different city r enable to participate in election as voter due to college submission on 28,29,1/5'
p227
aS'Welcoming our new student with some activity. Lalalalalaa ~~ #simedarby #college @ Sime Darby Medical\xe2\x80\xa6'
p228
aS'Menunggu jam pulang itu mmg sesuatu banget \xf0\x9f\x98\xaa\xf0\x9f\x98\xaa (at \xe4\xba\x9a\xe6\xb4\xb2\xe5\x9b\xbd\xe9\x99\x85\xe5\x8f\x8b\xe5\xa5\xbd\xe5\xad\xa6\xe9\x99\xa2 (asia international friendship college)) \xe2\x80\x94'
p229
aS'@zymah95 campus aku open college next sem. Semua dapat kolej. Even NR pun boleh mohon masuk kolej. So takdek masalah la next sem'
p230
aS'I forgot that college can be a bit noisy on Sundays. \xf0\x9f\x98\xa4'
p231
aS'Principal of Jai Hind college Mumbai passed away?'
p232
aS'@seemi_pasha @ElectionExpress lots of college times memories of mine !!!!'
p233
aS'My retrospective regret is palpable that I never read Watchmen back in college when it was lent to me. What a great book.'
p234
aS'Masuk kelas basah kuyup memang seronok. Dah lah sejuk beku dalam kelas ni (@ Brickfields Asia College - @baccollege)'
p235
aS'If assumption is the mother of all fuckups, this college has a problem'
p236
aS'"You can\'t make anyone fall in love with mere words!" I exclaimed. Then I realised, I had just contradicted my four years of college life.'
p237
aS'@ihaveredhairrr with college friends :))'
p238
aS'Aww college life here we go.. @ Central Philippine University (CPU)'
p239
aS'Hay nako mamimiss ko ata ang pagtulog sa college. Just woke up from my 4-hour nap so fab. Ilang beses na tong pagtulog ko. :)'
p240
aS'Starting to think women with college degrees are more attractive then women without.'
p241
aS"Suddenly feel like a college student all over again coz I'm getting ready to go for a lecture in the morning and not work :D"
p242
aS'@JLiit14_ update update college ndin e HAHAHAHA! Syempre tome managment na. :) Maiintndhan naman yon, future nakasalalay e :)'
p243
aS'Gm\xf0\x9f\x99\x8b (@ Parking (college of science))'
p244
aS'@kyrazyl @forgottentracks eh plz lake more worst then me before his college starts'
p245
aS'@ElleXore oh cool..mmg pun tp standard la kedai makan dlm college ni..student ramai lapar..cikmas lg 2-3 mgu nak habis dah :)'
p246
aS'They fucking sell tooth brushes in college but no tissue boxes!!!!! Fucking hell'
p247
aS'Penang people all died. And my stupid college give naisss semester break la when the rest busy w their college. Dying of boredom kkk.'
p248
aS"college life wouldn't be fun without my awesome friends \xf0\x9f\x91\x8d\xf0\x9f\x91\x8a\xf0\x9f\x98\x80 @ Far Eastern University- Morayta"
p249
aS'@_ksrya eee takleh you la mentang mentang dah college life then lupa i \xf0\x9f\x98\xaa'
p250
aS'Finally home after a long long day in college'
p251
aS'the college student, wuyifan:('
p252
aS'#mi batters r goin in middle same as v used to go to college; "for sake of attendance"\n#DDvsMI #PepsiIPL'
p253
aS'10 years for college. BS Bio or Tourism? to enter UST Med or not?'
p254
aS'yesterday with my college friends!!:"")) #EK #rides &lt;3 &lt;3 @ Enchanted Kingdom'
p255
aS"\xe0\xb9\x80\xe0\xb8\xa2\xe0\xb9\x87\xe0\xb8\x99\xe0\xb8\x94\xe0\xb8\xb5 (@ \xe0\xb8\x95\xe0\xb9\x89\xe0\xb8\x99\xe0\xb8\x88\xe0\xb8\xb2\xe0\xb8\xa1\xe0\xb8\x88\xe0\xb8\xb8\xe0\xb8\xa3\xe0\xb8\xb5 (The Prince Royal's college))"
p256
aS"It's really hard staying on a workout schedule whenever studies &amp; college consumes my life. It has been so messed up! Sigh \xf0\x9f\x98\x9e"
p257
aS'@angelilouise16 tga batangas city ako incoming 1st yr college :)'
p258
aS'"@imdendelmundo: freshmen in college be like: \nfriend: ano sched mo? \nme: ewan ko, di ko ma-gets eh." relate :)'
p259
aS'Post zorb ball photo with college thesismates! \xf0\x9f\x99\x85\xf0\x9f\x99\x86\xf0\x9f\x99\x8c @ Zorb Park, Boracay'
p260
aS'malapit nang mag may... one more month tapos college na haay'
p261
aS'Tbh I jealous dgn orang yang tak masuk college lagi'
p262
aS"@Viraaara Aw. Dream school. \xf0\x9f\x98\x82 Goodluck sa college ma'am. Ano po course niyo? Hahahaha. Bakit po ma'am? Naranasan niyo na din? Hahahaha. \xf0\x9f\x98\x82"
p263
aS'The cast.\n\n#summer #college #friends #classmates #reunited #reunion @ Circa La Playa Resort'
p264
aS'Puhhhrty last night with my college barkada! \xf0\x9f\x92\x97 Thank you for the treat @angelxxvi \xf0\x9f\x98\x98 love you girl!!\xe2\x80\xa6'
p265
aS'Study or take a selfie?? \xf0\x9f\x98\x8f\xf0\x9f\x98\x8f #asian #indonesian #boy #girl #college #video @ McD Jombor'
p266
aS'"@DrakeTakeCare12: I want a high school relationship that ends in marriage." Okay na sakin mag-start sa college relationship! Hahahaha'
p267
aS'"becak,becak tolong bawa saya"\xf0\x9f\x98\x8b\xf0\x9f\x8e\xa4 (with bernadetha at gedung bellarmino loyola college) [pic] \xe2\x80\x94'
p268
aS'\xe0\xb8\x9d\xe0\xb8\xb1\xe0\xb8\x99\xe0\xb8\xa7\xe0\xb9\x88\xe0\xb8\xb2\xe0\xb9\x81\xe0\xb8\x9a\xe0\xb8\x9a\xe0\xb9\x80\xe0\xb8\xab\xe0\xb8\xa1\xe0\xb8\xb7\xe0\xb8\xad\xe0\xb8\x99\xe0\xb9\x80\xe0\xb8\xa3\xe0\xb8\xb5\xe0\xb8\xa2\xe0\xb8\x99\xe0\xb8\x88\xe0\xb8\x9a college \xe0\xb8\xad\xe0\xb8\xb0 \xe0\xb8\x84\xe0\xb8\xb7\xe0\xb8\xad\xe0\xb8\xa7\xe0\xb8\xb1\xe0\xb8\x99\xe0\xb8\xaa\xe0\xb8\xb8\xe0\xb8\x94\xe0\xb8\x97\xe0\xb9\x89\xe0\xb8\xb2\xe0\xb8\xa2 \xe0\xb9\x84\xe0\xb8\x94\xe0\xb9\x89\xe0\xb9\x83\xe0\xb8\xaa\xe0\xb9\x88\xe0\xb8\x8a\xe0\xb8\xb8\xe0\xb8\x94 \xe0\xb9\x80\xe0\xb8\x84\xe0\xb9\x89\xe0\xb8\xb2\xe0\xb9\x80\xe0\xb8\xa3\xe0\xb8\xb5\xe0\xb8\xa2\xe0\xb8\x81\xe0\xb8\x84\xe0\xb8\xa3\xe0\xb8\xb8\xe0\xb8\xa2\xe0\xb8\xa1\xe0\xb8\xb1\xe0\xb9\x89\xe0\xb8\xa2 \xe0\xb8\xaa\xe0\xb8\xb5\xe0\xb8\x94\xe0\xb8\xb3\xe0\xb9\x86\xe0\xb9\x81\xe0\xb8\xa5\xe0\xb9\x89\xe0\xb8\xa7\xe0\xb8\x81\xe0\xb9\x87\xe0\xb8\xa1\xe0\xb8\xb5\xe0\xb8\xab\xe0\xb8\xa1\xe0\xb8\xa7\xe0\xb8\x81 \xe0\xb8\x84\xe0\xb8\xb7\xe0\xb8\xad\xe0\xb8\x88\xe0\xb8\x9a\xe0\xb9\x81\xe0\xb8\xa5\xe0\xb9\x89\xe0\xb8\xa7 \xe0\xb8\x88\xe0\xb8\xb0\xe0\xb8\xa1\xe0\xb8\xb5\xe0\xb8\x9b\xe0\xb8\xb2\xe0\xb8\xa3\xe0\xb9\x8c\xe0\xb8\x95\xe0\xb8\xb5\xe0\xb9\x89\xe0\xb8\x95\xe0\xb9\x88\xe0\xb8\xad'
p269
aS'ruwet jdnya kamis hahaha"@_fitriaokta: Hahaha, jadi gimana urusan your college? RT @_Hanoey: Bukan lah enak aja"_'
p270
aS'Im here in john paul ll college of davao...#hotafternoon (at John Paul II College of Davao) [pic] \xe2\x80\x94'
p271
aS"Yeah finally we're done kem .. time back college .. @ Kem Sungai Buluh"
p272
aS'#me #friend #college #daysout #sunday #world #lantern #beautiful \xf0\x9f\x98\x8d\xf0\x9f\x98\x8d @ Summarecon Mall Bekasi'
p273
aS'@Keemypuutie alright. Goodluck then. :) Highschool is far more different in college. Kaya be ready. :)'
p274
aS'@GeorginaDivaa "can we skipthiswhole college thing andgo straightandgoto thepart whereI have a realy awesomejob andspend allmytime traveling'
p275
aS'@imkathgeronimo ...for college?'
p276
aS'tiap kali nak makan pisang , teringat moment semalam masa ada kerja kumpulan dekat berjaya college XD'
p277
aS'#selfie #campusfriend #finish #college @ Gunadarma University'
p278
aS'#college day a mass day. Full of entertainment. Dance,water and rest one day finished'
p279
aS'@_callmeJoey college girl elsa!!! wc me: faithrecio mwa'
p280
aS'Whom I hated became friends ..who I loved hates me...miss u two guys on the dead end of college life .....'
p281
aS"Feeling sad when i'm gonna back college.. \xf0\x9f\x98\xad"
p282
aS'MT "@DrTonyWagner: New company offers bootcamp for recent college grads to reduce the 44% underemployment rate.'
p283
aS"tonight @Benny_Dayal  concert at jss college :) can't wait to listen him live singing locha-e-ulfat and many more! #excited"
p284
aS'Shadow for puppet show. #mutimedia #student #mutimediaperformance #college #production #puppets\xe2\x80\xa6'
p285
aS'#IfSunnyLeoneWasIn my college, I would have never missed a lecture!'
p286
aS'Last day of college. (@ Lovely Professional University - @_lpu)'
p287
aS'Overnight swim with college friends. @ Brizo Morong Bataan.'
p288
aS'My plans for college is screwed. -.-'
p289
aS"@iamfhebielitz san ka nag-aaral ngayon, 'nay? Grabiii. Miss na miss ko na kayo lahat. Ang UC. Everything good about college. Kaynis."
p290
aS'Diploma nalang ng college ang kulang.'
p291
aS"@Being_Heena ya that's so bad.. How's college life going ?"
p292
aS'#InstaSize #morning #college #class #workplace #style #cool #ad #dxb #uae #likes #follow @ Zayed\xe2\x80\xa6'
p293
aS'@biancaderamos oo nga eh since nag college ako hindi na ko nakabalik ng holy. Dami na ngang pinag bago eh :3'
p294
aS'@_LifeOfAi :))) for college kc \xf0\x9f\x98\xad dang it'
p295
aS'@DiowDante haha joke lang. In coming 2nd college :)'
p296
aS"Is it weird that I'm more excited about #littleinfinities than college (Tickets, my fingers are still crossed, hoping our stars are also.)"
p297
aS'@toomuchofjez college student na college student. Hahahaha \xf0\x9f\x91\x8a\xf0\x9f\x99\x8c'
p298
aS'Pwede mag college sa Saudi? :('
p299
aS"@gervinjardiel's college best buddies!!! #kapanteam \xf0\x9f\x92\x9e"
p300
aS"Two exams at college tomorrow, on a Sunday. And yet, got back an hour ago from a lovely evening at K-Circle. Ah. C'est la vie."
p301
aS'Mom only interested in cheap college \xf0\x9f\x98\xac'
p302
aS'Imerialp college'
p303
aS'@kashew_knot @POTpotassium @deeepfroZEN anu college ba maraming maganda dun? Lahat ata? Ahaha.'
p304
aS'Surgery \xe2\x9c\x8c\xf0\x9f\x92\x89\xf0\x9f\x92\x8a (@ Ibn Sina National College | \xd9\x83\xd9\x84\xd9\x8a\xd8\xa9 \xd8\xa7\xd8\xa8\xd9\x86 \xd8\xb3\xd9\x8a\xd9\x86\xd8\xa7 \xd8\xa7\xd9\x84\xd8\xa3\xd9\x87\xd9\x84\xd9\x8a\xd8\xa9 - @ibnsina_college w/ 31 others)'
p305
aS'@ETC2500 i used to see races when i was in school. but college takes too much time lol @MadmediumF1'
p306
aS'@OMDitsMe well college life is ending you calling it lucky \nIt was the best part of my life'
p307
aS'@wimingtoh whaddaya mean scan mode? haha which college are u entering anyway?'
p308
aS"Unhealthy? ? Who caaares!!?? (@ AVIATION Training college's restaurant (7th floor))"
p309
aS'A friend and a college junior from IITK was beaten up by BJP goons in Benaras last night ...#Namo \nDes maaf nahi karega !'
p310
aS'#AngSayaSiguro kung kayong mag b-bestfriends nung highschool, classmates parin sa college \xf0\x9f\x92\x94'
p311
aS'started activities again .... the spirit of college'
p312
aS'@mekaylagraham fallacy? Does it look like I went to any type of college?!'
p313
aS'@PurpleDrumstick im also good :) \nHope college is also fine.'
p314
aS"It's likely I've been saw my past with her, with the one I had loved before I get college, yeah she is my junior W.A."
p315
aS'Awesome night got to see some of my college friends again. \xf0\x9f\x98\x86\xf0\x9f\x98\x86'
p316
aS'The good girls went silent on me, they got a bf or went to college on me'
p317
aS'@maLEEEYAAAAN @CountOfLegoLand @Paparicoooo lol xD kame pa! Tapos mamaya nasa MI nanaman xD hahaha ano kaya mangyayare skin sa college xD'
p318
aS'@rafdelatorre college ka na huhu time flies'
p319
aS'Baket bigla akong na excite mag college ngayon? Hmmm.'
p320
aS'Today I will sing, for Deepshikha, my songs 1st time publicly - in my college.'
p321
aS'Guna lahan perkotaan &amp; teori Bid-Rent #goodmorning #college #study #instamoment @ GBT-PWK UB'
p322
aS'Ako: Ma pwede bang sa ust nalang talaga ako mag aral sa college? \nMama: Bsta kung ano gsto mo, dun din kami ng papa mo. Susuporthan ka namin'
p323
aS"I'm at college of science PNU (A3)"
p324
aS'sugad pag tungtung nakog college nawala rag kalit ang lupang hinirang ug panatang makabayan sa akoa'
p325
aS"ConGraduation darl \xf0\x9f\x98\x98\xf0\x9f\x8e\x93 soon i'll follow your step to off from college \xf0\x9f\x98\x87 @ BSI Convention Center"
p326
aS'Missed you! My favorite college snack! Yumyum \xf0\x9f\x91\x85\xf0\x9f\x98\x8d#hellopanda #food #chocolate @ San Agustin Dasmarinas'
p327
aS"I'm at Sime darby nursing and health sciences college (Shah Alam, Selangor)"
p328
aS'Plans for college. \xe2\x99\xa5'
p329
aS'@iammavscuenca magsesecond year college na po :)'
p330
aS'Just saw Richie Ticzon... Crush ko pa rin since college... \xf0\x9f\x98\x8d\xf0\x9f\x98\x98\xf0\x9f\x98\x9a\xf0\x9f\x98\x8a'
p331
aS'Party tonight at my college \xf0\x9f\x98\x86\xf0\x9f\x98\x8b\xf0\x9f\x98\x8a\xf0\x9f\x98\x83\xf0\x9f\x98\x81\xf0\x9f\x98\x84'
p332
aS'@super_JLOver hahahahah mau man nay bago challenge run ang pag make new friends XD hahaha and oo oi dapat YOLO run college na hahaha XD'
p333
aS'Jam sessions! #lastgig in college'
p334
aS'CEU for college'
p335
aS'I missed kman ;) (@ Ibn Sina National College | \xd9\x83\xd9\x84\xd9\x8a\xd8\xa9 \xd8\xa7\xd8\xa8\xd9\x86 \xd8\xb3\xd9\x8a\xd9\x86\xd8\xa7 \xd8\xa7\xd9\x84\xd8\xa3\xd9\x87\xd9\x84\xd9\x8a\xd8\xa9 - @ibnsina_college w/ @black_makoke)'
p336
aS'"@FactsOfSchool: Money can\'t buy happiness? \n\nFalse. \n\nGetting my college paid for would make me happy."'
p337
aS'Beyond grateful that I got to get to know you as both a college professor and a friend. Thank you for\xe2\x80\xa6'
p338
aS'@dreiiireeeyy thanks for the follow. Goodluck to your college life.'
p339
aS'Puro college enrollment advertisements nakikita  kong commercial! whhhy?! summer palang people! -h'
p340
aS"Early morning but I must goes to college !!! I've last exam today,\nProgramming !!!  Wish me luck xx"
p341
aS'How I get ready for college: sleep'
p342
aS'@camilleorosco college yon? Haha dko alam eh \xf0\x9f\x98\x82\xf0\x9f\x98\x82'
p343
aS"Can't really imagine what matriculation kids feel rn as tonight is their last night in college. I feel you. Just, live it to the fullest ok!"
p344
aS"I'm at Brickfields Asia College - @baccollege w/ @navinaramani"
p345
aS'Still consider wether im want to go or not to go for my college open day.'
p346
aS'Esok bertolak pagi lpstu terus gerak college..Insyaallah'
p347
aS'@maaaaaics engineering ka kc! hahaha xD isa lng akin college algebra'
p348
aS'Otw home after college . ;) (@ Petaling Jaya w/ 12 others)'
p349
aS'Datang college je, lecturer dah membebel.  College life is sucks'
p350
aS'Wala koy plano sa college'
p351
aS'Highschool and college graduation photo :) #janice #jhanicee #it #icee I love being imperfect \xf0\x9f\x91\x8c\xf0\x9f\x91\xb8\xf0\x9f\x91\xa3\xf0\x9f\x8e\xad'
p352
aS'Bakit ang nga college friends ko hindi marunong gumimik? Or marunong sila pero ayaw nila. Answer me pls, hi guys.'
p353
aS"@roymarionj haha 1st yr college ko sinabihan ako ng masyado ako madrama. Kaya nawalan nako ng emotion :'("
p354
aS'Post birthday celebration with college friends! \xf0\x9f\x98\x98 (@ Cafe Laguna w/ 3 others)'
p355
aS'Confident mau up up #bestpeeeee #handball  #itece @ ite college east simei'
p356
aS'Tgif! (@ Micronet international college)'
p357
aS'Man yall think the real world is all fun and games. I cant wait for some of you to get out of college \xf0\x9f\x98\x82*spiraling airplane* BOOM! Crash &amp; \xf0\x9f\x94\xa5'
p358
aS"I'll probably have a hard time getting into college because of my excessive absences and poor grades \xf0\x9f\x98\x82\xf0\x9f\x98\x82\xf0\x9f\x98\x82\xf0\x9f\x98\xad\xf0\x9f\x98\xad\xf0\x9f\x98\xad"
p359
aS'@VanMochi_Elf I study at High school.. and I not have college exam. *^*'
p360
aS'"@janielebuenga: @Boyoooong @TweetingMalake Welcome to college life chok! Woohoo!"'
p361
aS'@ZainBernard kans..nasib I tak sama college ngn u...abis nnti u...hahahhaa'
p362
aS'@nabilahshahidan college support kot sbb g under college hehe'
p363
aS'Inti college \xf0\x9f\x98\x81\xf0\x9f\x98\x81'
p364
aS"I can't believe I still have like 12 weeks of college left I'm probably going to weep for that entire time"
p365
aS'@TrishSuralta Ay, thankyouuu! :) So mukha pa akong bata? I take that as a compliment. Haha! XD 17 nako, 2ndyr college na sa pasukan baby.'
p366
aS'That day when i entered lecture at #college I found words on the desk says "you have destroyed 5 years of my life " ..'
p367
aS'Awesome friends #classmates #coursemate #college #event #penang @ Red Rock Hotel, Penang'
p368
aS'Happy birthday again, Kat! Mwaaaah \xe2\x9d\xa4\xf0\x9f\x92\x8b #college #friends #PO @ Valenzuela City'
p369
aS'@Raprafito awww too bad men :(( di mo makikita kung pano ako magiging awesome sa college :( sayang bro pero hangout parin tayo ahh'
p370
aS'@ajit__anand Suppose if a person take admission in college without passing the school.If such a person is employed somewhere just imagine.'
p371
aS"After today then no more morning McD before college! (@ McDonald's)"
p372
aS'@abby_torrillo asa ka mu college abby? :-)'
p373
aS'Company Visit \xf0\x9f\x98\x8e\xf0\x9f\x8e\x92\xf0\x9f\x8e\x93\xf0\x9f\x92\xbb #college #friends #clown #sariroti #bread #factory #mascot @ PT. Nippon Indosari\xe2\x80\xa6'
p374
aS'@HeyArjhay depende ata sa college. Nagmanual kmi lastweek :))'
p375
aS'@Allieeers ang bata mo pa. Kasali ka pala sa K-12. Feeling ko ang tanda ko na. Mag sesecond year college student na ako next sem.'
p376
aS'@Diannavinz about college lang sana makapasa na ako xD uyy baka pumunta ako dyan sa 4 mga ganun'
p377
aS'Can we skip this whole \xe2\x80\x9ccollege\xe2\x80\x9d thing and go straight to the part where I have a really awesome job and spend all my time traveling?'
p378
aS'"@edsheerein: People in college look like they\'re in college HOW"'
p379
aS'Looking forward for college to start'
p380
aS'@xchillene college hair nah nako si hahaha'
p381
aS'#sexyweather#enjoying#cold#breeze#fun#frnds#college @ Military College Murree'
p382
aS'I am a janitor at a college. Most people think I am dumb but I can look at a math equation and solve it immediately.'
p383
aS'Kaya kame matigas ni nikko kasi kinakalaban namen sa soccer mga graduate na ng college. Hahahaha.'
p384
aS'Best milo made in this college \xf0\x9f\x91\x8d\xf0\x9f\x99\x8c'
p385
aS'@itsmr_jaspher magfourth year college pa lang ako sa pasukan hahaha!'
p386
aS"I AM SO DAMN LATE FOR SIMEONE LEGNO'S AUTOGRAPH SIGNING! I am one of his ultimate fan since college\xe2\x80\xa6"
p387
aS'Pergi college pakai jubah harini .hehee'
p388
aS'Im gonna have a hard time surviving college with a sleepless night today..'
p389
aS'Summer outing with le college friends! :)'
p390
aS'@veevien_vivie95 owh ok. I go college 1st'
p391
aS'2 states reminds me of college days'
p392
aS'1 of my favourite of my college days #MainDewaanHua by my all time favourite @abhijeetsinger \xf0\x9f\x92\x96\xf0\x9f\x91\x8d  '
p393
aS'#tb Yesterday at college west ^^ @ College West'
p394
aS'Walaoooo sister thought I make up to college. Damn! -.-'
p395
aS'Hahay pina hawd kaayo, graduate sag college oy sig balhin balhin kurso nya sig usik-usik kwarta'
p396
aS'Janji-MU selalu tepat dan indah pada waktuny! Thank You GOD!\xf0\x9f\x98\x84 #college #senasib #seperjuangan @\xe2\x80\xa6'
p397
aS'@TanushreeParama how was ur college yesterday'
p398
aS'What I will do after completing junior college \xf0\x9f\x98\x92\xf0\x9f\x98\xaf'
p399
aS'Want my baby to hurry up and finish college @larcameron \xf0\x9f\x91\xaf'
p400
aS'fieqa bengang wifi college lembab .'
p401
aS'Me so blessed coz I have the best, college friends. \xe2\x99\xa5'
p402
aS'\xd8\xb5\xd8\xa8\xd8\xa7\xd8\xad\xd9\x8a \xd8\xa7\xd9\x86\xd8\xaa\xd9\x90 \xd9\x8a \xd8\xaf\xd9\x82\xd8\xa9 \xd8\xae\xd9\x81\xd9\x88\xd9\x82\xd9\x8a \xd9\x88\xd9\x86\xd8\xa8\xd8\xb6\xd8\xa7\xd8\xaa\xd9\x87 \xe2\x99\xaa\xcc\xa0\xe2\x9d\xa5 @ omw 2 college\xf0\x9f\x98\xad'
p403
aS'#smile #me #selfie #friends #college #institute #technology #fish_eye #bb #iphone5s #makkah #jeddah\xe2\x80\xa6'
p404
aS'@ptrcnnfjs Ahhh. Buti college kana. T^T abot ko ang k to 12 ehh!'
p405
aS'Anytime anywhere.. #converse #converseallstar #chucktaylor #skaters #jeans #college #indonesia\xe2\x80\xa6'
p406
aS'@eomeatsalot pu\xc3\xb1eta ka yung BIO mo, college ka na junior pa din??? Yeng tetee????'
p407
aS'@reema_sathe You\'re nearing the peak of the bell curve. Heard a college girl say the other day, "Don\'t hate me for liking Magnum."'
p408
aS"so happy for mom's sudden gift her old college bag:)) vintage LV right here:)) a true original to last this long:))"
p409
aS"@RudeGyal_Cee @MyNameIsDelont3 did she even graduate high school? I have college education. So there's that?"
p410
aS'Di ko kayang mabuhay mag-isa. Paano na sa college? Haha.'
p411
aS"I'm at Ibn Sina National College | \xd9\x83\xd9\x84\xd9\x8a\xd8\xa9 \xd8\xa7\xd8\xa8\xd9\x86 \xd8\xb3\xd9\x8a\xd9\x86\xd8\xa7 \xd8\xa7\xd9\x84\xd8\xa3\xd9\x87\xd9\x84\xd9\x8a\xd8\xa9 - @ibnsina_college (Jeddah, Western Province) w/ 50 others"
p412
aS'Amik Aan \xf0\x9f\x98\x8e (@ college community YPJ)'
p413
aS'\xe2\x80\x9c@Qieserraleyn: Rindu normal college life uwaaaaaaa !\xe2\x80\x9d'
p414
aS'With Samir (@ vasantdada patil dental college &amp; hospital)'
p415
aS'@faridamzar otomotif college, PJ'
p416
aS'Di ako mag bbf ng college. Focus ako sa study loks'
p417
aS'Morning college.. Hoammm'
p418
aS'New WR: Man Breaks 5:00 in #Beer Mile! I tried it in college...it did not go nearly as well as it did for Nielson:'
p419
aS"Goodbye Ilo-Ilo for now! \xf0\x9f\x91\x8d\n#iloilo :))\n\nIll be back soon when I'll enroll for college. \xf0\x9f\x91\x8c\xf0\x9f\x98\x81 @ Iloilo\xe2\x80\xa6"
p420
aS"I'm at pharmacy department royal college of medicine perak"
p421
aS'@SangeetBangla @YourKoel I miss it... :( :( college e a6i tai dekhte pari ni :( plzzzz upload on YouTube itz a request'
p422
aS'\xd9\x85\xd8\xad\xd8\xa7\xd8\xb6\xd8\xb1\xd8\xa9 \xd9\x88\xd8\xad\xd8\xaf\xd9\x87 \xd8\xa8\xd8\xb3 \xf0\x9f\x98\x8c\xf0\x9f\x91\x8c (@ college of science PNU (A3) w/ 5 others)'
p423
aS'College crush ko pa sya..kchat ko sya ngyon thanks to my friend..ex nga lang nya lol #st.paul #collegecrush #uy'
p424
aS'@Igiwhosoever Haha. Enjoyin ang college life! Kelan ka pala akyat ng Baguio? Tagal na natin di nagkikita!'
p425
aS'Proud na proud ku keng sarili ku kahit papanu makapagaral ku at milalabas ku. Mabilis ing panahun, 3rdyear college nakupin. Ih'
p426
aS'Dati ang tumatawag lang sa akin ng Nat college friends ngayon pati hs na. Nasaan na yung Nigel na nickname ko talaga?  =))))'
p427
aS'Wag na mag college. Tara tayo ng negosyo agad ahaha'
p428
aS'Group activity during tutorial class. The other 5 members missing \xf0\x9f\x98\x85. #college #friends #tutorial\xe2\x80\xa6'
p429
aS'Hello college \xf0\x9f\x91\x8b (@ Sunway College Johor Bahru - @sunwayjb)'
p430
aS'aduiii pishang siak kat college --"'
p431
aS'When I was in college I went to see Dumb and Dumberer this guy said to me "my condolences". He sells stereos now. #mycondolences'
p432
aS'"@_adrianaismail: @chasyuhada oh yekeeee ong kaya kann emm"oh perli aku ya. Aku tunggu upu lah. Kalau tade rezeki baru la tgok college \xf0\x9f\x98\xad'
p433
aS'They say that #college would be #fun, #freedom, #excitement and full of #joy. #Nonsense.\xf0\x9f\x98\x92'
p434
aS'&lt;-- tak pernah join dinner college.'
p435
aS'"@wadia_nwk: @fzemiraa gunung apa? Nak ikutt" under college laah yang, gunung datuk, ulu bendul jee.'
p436
aS'Just posted a photo @ KKU Dentistry college'
p437
aS"Finally graduated in BCA. Farewell day \xe2\x99\xa5 gonna miss pals alot :'(\n#graduate #bca #farewell #college\xe2\x80\xa6"
p438
aS'Why am I even thinking of college?? I still have 4 years of thinking.'
p439
aS'Tiba harinya. Kpj Final start. Paper 1. Mcq. Good luck clique 5. (@ level 27 kpj college w/ @hudasuhaimi)'
p440
aS'Sana ganon din kami pag college or mas masaya pa sa kanila at laging may bonding :( \xf0\x9f\x98\x83\xf0\x9f\x98\x9c\xf0\x9f\x98\xad'
p441
aS'ayoko na uli mag college d na ulit ako naeexcite hahaha tambay nalang ako!'
p442
aS'@Shahaaa Mandhu college at 8.30'
p443
aS'Miss queen of international college \xe0\xb8\xa7\xe0\xb8\xb1\xe0\xb8\x99\xe0\xb8\x99\xe0\xb8\xb5\xe0\xb9\x89\xe0\xb8\xa1\xe0\xb8\xb2\xe0\xb8\x97\xe0\xb8\xb3\xe0\xb8\xaa\xe0\xb9\x89\xe0\xb8\xa1\xe0\xb8\x95\xe0\xb9\x89\xe0\xb8\xa1\xe0\xb9\x80\xe0\xb8\x88\xe0\xb9\x8a\xe0\xb9\x82\xe0\xb8\x89\xe0\xb8\xa1 \xe0\xb9\x83\xe0\xb8\x99\xe0\xb8\x98\xe0\xb8\xb5\xe0\xb8\xa1\xe0\xb8\xa1\xe0\xb8\xb2\xe0\xb8\x95\xe0\xb8\xb2\xe0\xb8\xa1\xe0\xb8\xab\xe0\xb8\xb2\xe0\xb8\x9e\xe0\xb8\xb5\xe0\xb9\x88\xe0\xb8\xa1\xe0\xb8\xb2\xe0\xb8\x81\xe2\x80\xa6'
p444
aS'@GueIex Aba college na tlga no? Hahha ewan ko ganun sched nila e'
p445
aS'Beli celana buat college ceritanya uwaa uwaa (at Jl. Tamim) \xe2\x80\x94'
p446
aS'Went to DL Umali earlier today to see the college grad of CVM. Nkakainspire makitang grumaduate ang mga kapwa Iskolar ng Bayan para sa Bayan'
p447
aS'@herchellim ay wala haha akala ko kilala mo sila haha :(( =))) pero di yan. Onting kembot malang, college ka na be :*'
p448
aS'Wala na, yoko na mag college \xf0\x9f\x98\xad\xf0\x9f\x94\xab'
p449
aS'@JicksonTeh Go college for what, stay kajang and sleep better'
p450
aS'When the penceramah makes jokes with the staff college and the students was like "krikk krikk" coz dont understand the jokes'
p451
aS"Loads of people that I don't talk that much when I was in school and college, but we end up pretty cool now"
p452
aS'Bored in class #me #morning #photo #selfie #college #fisheye #funny #flat #face #likeaja @ Universitas\xe2\x80\xa6'
p453
aS'Getting bore at college ....'
p454
aS'@iambabyrara hehe balik la awal kit few days early before masuk college hehe'
p455
aS'Saan ba pwedeng mag aral pag college?'
p456
aS'#bored #campus #college #nutritionstudent #picoftheday @ Ruang Tutorial 311 FIKES UPN'
p457
aS'Ansaya ! May friends na ako na future blockmates ko sa college ! :))'
p458
aS"@ChooiLiiing everything's good \xf0\x9f\x98\x8a how are you??? Long time since I heard from you \xf0\x9f\x99\x88 I'm in sunway college doing ausmat. \xf0\x9f\x98\x8a"
p459
aS'Super fun night with my college friends @janeymontemayor channy_bubu05 tapia2101 annette von kurt.\xe2\x80\xa6'
p460
aS'@TheBlueMonstuur Tignan na lang ntin sa college baka mapatay na sya. Hahahahhaha'
p461
aS'2 college \n\n\xd9\x88\xd8\xaf\xd8\xa7\xd8\xb9\xd9\x8a\xd9\x87 \xd9\x8a\xd8\xa7 \xd8\xa7\xd8\xae\xd8\xb1 \xd9\x84\xd9\x8a\xd9\x84\xd9\x87 \xd8\xaa\xd8\xac\xd9\x85\xd8\xb9\xd9\x86\xd8\xa7 \xd8\xa8\xd8\xa7\xd9\x84\xd9\x83\xd9\x84\xd9\x8a\xd9\x87 \xe2\x98\x85'
p462
aS'"@katchrizeeee: 1st Sem: 1.93\n2nd Sem: 1.88\n\nNot bad. Taas pa more! Please? Para maging college scholar ako. :)"'
p463
aS'Those days were the best days..missing college life..'
p464
aS'\xf0\x9f\x98\x85\xf0\x9f\x98\x84\xf0\x9f\x98\x84\xf0\x9f\x98\x84Everything you need to know about college parties'
p465
aS'Just posted a photo @ axis college, rooma'
p466
aS'Happiness is  1 Hour of college #Happines #SoonToBeFucked #CollegeLife'
p467
aS'@CHEhunnie94 Somewhere nga indi kilala. Daw computer college bi ang uniform na pagkita ko kana. Di ko kadumdum ka ID na.'
p468
aS'\xf0\x9f\x8c\xb1\xf0\x9f\x8d\xa6 #instapic #instalife #school#college#life#awesome #yum#cool#anniversary #roommate @ \xe6\x98\x8e\xe5\xbf\x97\xe7\xa7\x91\xe6\x8a\x80\xe5\xa4\xa7\xe5\xad\xb8'
p469
aS'If only I could skip s2 and s3 then straightly go to college #impossible          #existenceOf #SPM'
p470
aS'Just got the tebal and berat college mag -.-'
p471
aS'"I was thrown out of college for cheating on the metaphysics exam; I looked into the soul of the boy sitting next to me." Woody Allen'
p472
aS'Wala ba kayong pinag-aralan?! Graduate pa naman kayo ng college! SIMPLENG MANYAK!!!'
p473
aS'@iamdAwgy Wala na. Waterproof na tayo sa college :))'
p474
aS'Releasing exam stree at college :-D #friends #xperia #cool #funny #summers #awesome #liketofollow @\xe2\x80\xa6'
p475
aS'TH : Shanghai Education Commission helps college grads find jobs\xc2\xa0- Millions of college students in China will be...'
p476
aS"Glad I'm done with my interview. Now all I need to focus on is prom &amp; college stuff \xf0\x9f\x98\x8b"
p477
aS'Farewell party pic with shadeking93 \xe2\x99\xa5 lost the count of pics of us together :p \n#college #farewell\xe2\x80\xa6'
p478
aS'@yeduuuhhh Onga eh. Saklap. 16 palang hahaha pero ang height pang college na \xf0\x9f\x98\xad\xf0\x9f\x98\xad'
p479
aS'Unexpected reunion with my old friends in college! \xf0\x9f\x91\x8a\xf0\x9f\x8e\x89\xf0\x9f\x8e\x8a\xe2\x98\x95\xef\xb8\x8f @papajenz #bhe #AjSun #Kenneth @ Starbucks SM\xe2\x80\xa6'
p480
aS"I'm at Sri Jayachamarajendra college of engineering (Mysore, India)"
p481
aS"You know you're in an engineering college when you have a practical exam on a Sunday morning."
p482
aS'Such an empty college blugh'
p483
aS'stuck in college with no wifi \xf0\x9f\x98\xb1 #someoneshootme'
p484
aS'@REIGNcoat college ka na po pala =))) kala ko mga 3rd or 4th yr \xf0\x9f\x98\x82\xf0\x9f\x98\x82\xf0\x9f\x98\x82'
p485
aS'I try my best to get in college before 9am.sakit perut n terkencing semua ada?'
p486
aS"I'm excited for college and I know I'm gonna regret saying this in the future"
p487
aS'@evolanjirap Happy Birthday Pretty. :) \xf0\x9f\x92\x95\xf0\x9f\x8e\x89\xf0\x9f\x8e\x82 Goodluck sa college life. Mwa. Loveyouu. \xf0\x9f\x98\x98'
p488
aS'"@FactsOfSchool: "It\'s the remix to ignition, college student edition. I eat poptarts for dinner, I can\'t afford my tuition.""'
p489
aS'@auhcesined college life is fun,  sad and not easy sometimes .hehe.. just focus... go go go!'
p490
aS'Naging college ka lang kung makapagmura ka parang anak ka ng demonyo eh.'
p491
aS"Alam ko st. theresa's college eh???"
p492
aS'@IzzuddinRz @HilmiShahrom otomotif college, PJ'
p493
aS'@syakirkamis after dah survey college dgn si yuthi. Nk betul2 siasat background college da kali ni'
p494
aS'Pagka-college ko talaga, lalayo talaga ko dito. Sa Manila or sa Baguio ako mag-aaral.'
p495
aS'Oy stebs. San ka sa college? :) @sprtnsteven'
p496
aS'Bwd slideshow for presentation \xe2\x96\xa0 (@ Lh3 poly-tech mara college,)'
p497
aS'@AiraCelineee Di na. Card na lang. Tor para sa college transferess lang yun. :))'
p498
aS'Our priorities are assignment,exam,event,and the other kind of college stuff. Not you (=|'
p499
aS"So much power, so much responsibility...and its only college. What will I become if i can't handle the load now...God help me."
p500
aS'Ano pong magandang backpack for college?'
p501
aS'Pag nag college talaga ako. HA ha ha the feels omg'
p502
aS'After exam PTP ! #finally #crazy #time #to #college #effectcoffe #FotoRus @ Seminari Bethel Jakarta'
p503
aS'\xf0\x9f\x98\x92\xf0\x9f\x92\x94 (@ Inaya Medical college w/ 3 others)'
p504
aS"Just cant wait for college this oct \xf0\x9f\x91\x8c so i'll join my loves to #WTF14 yeayyyyy"
p505
aS"I can already work &amp; end this college life. But I still want to hold on to my dream of becoming a people's lawyer, just like grand pa. :("
p506
aS'@diksbjr1996 haha no college ta yehi padhne ho'
p507
aS"@AnceSinaga I am a college student hey, I am not a shs' student. And I don't sells my friends to ppl :p I am a nice person. Right? U bet it"
p508
aS'Life used to be so much easier before college..'
p509
aS'Besokk senin|college is begining| &gt;\xc2\xa4&lt;'
p510
aS'Driving in Sharjah when going to college completely turns my mood around \xe2\x98\xba\xef\xb8\x8f\xe2\x9d\xa4\xef\xb8\x8f #iloveshj'
p511
aS'@HeyyNada Family dramas. &lt;/3 Matagal-tagal pa bago ako makapuntang Davao, baka maggrad muna ko ng college XD maganda ba diyan? :"&gt;'
p512
aS"I'm at American college of the meddle east PARKING"
p513
aS'Strawberries DNA. @ Almana college'
p514
aS'MT\xe2\x80\x9c@MindBlowing:  Obama was known to be heavy marijuana smoker in his college days. His nickname was "Barack Oganja"'
p515
aS"I'm at Brickfields Asia College - @baccollege (Brickfields, WP Kuala Lumpur) w/ 3 others"
p516
aS'Sleepy college (at STIKes A.Yani Cimahi) \xe2\x80\x94'
p517
aS'Met my dear friend from crazy college and uni years at a wedding today. Muahhh! wondermomo \xf0\x9f\x98\x98 @ A-Park'
p518
aS'NEW FRIENDS SOCIETY at N.H.24 next to Bankey Bihari dental college GHAZIABAD.#ResidentialPlot #Land #ForSale #Dasna'
p519
aS'@nynanyna ohyeke..haha. Kau msk college mana der?'
p520
aS'omy to college \xf0\x9f\x98\x9d'
p521
aS'Starting June magbabasa na ako! :)  Ready for college! :) Paunahang mabaliw sa course ko.'
p522
aS'Oo eh ,, nakakapagod sobra ,, got home from dental clinic and southeastern college #Tired'
p523
aS'@cchacalderon dito?? nakapost naman sa bawat college kaya kahit kailan pwede :3'
p524
aS'@MontsUponaTime aha ka mag college love?'
p525
aS'I will be anchoring the farewell to be held in college today'
p526
aS'Chilling out with @dangbangers and @jaibarrientos. #college #friends @ Pink Manila Hostel'
p527
aS'Imprint...Back to where we did notorious things! (@ nagindas khandwala college)'
p528
aS'@moneltamayo mommy!!! Saan ka mag ka college? :))'
p529
aS'Senior 4 course :) #Cilantro #culinary #academy #college #Charco #cafe #appetizer #soup #maincourse\xe2\x80\xa6'
p530
aS'@azammshahh dah masuk college/U/matriks, lagi banyak kawan plastik yang kau akan jumpa. All you need to do is sabar \xf0\x9f\x98\x8a'
p531
aS'Saan ka mag ka college hahahaha? @kelsiieeyy'
p532
aS'My grammar is better than a 22 year old who graduated college.'
p533
aS'@psychhee thaaanks ate guen!!! *u* wuv u too *bear hug* hang out in college? (anlayo ko tho huhu) HAHA'
p534
aS'Back to college \xf0\x9f\x93\x91\xf0\x9f\x93\x92\xf0\x9f\x98\x81 (at SD Santo Aloysius) \xe2\x80\x94'
p535
aS'@ceejxdeej anokaba! Pag college na tayo fangirling overload na! \xf0\x9f\x98\x82\xf0\x9f\x98\x82'
p536
aS'Feeling ko tuloy ako yung mag-aaral dun. ~ tapos na ako ng college. T.T \xf0\x9f\x98\x93\xf0\x9f\x98\x93\xf0\x9f\x98\x93\xf0\x9f\x98\x93'
p537
aS'@Muhammadazrul2 belajar dekat college perubtan sime darby. Cos mlt.3thun'
p538
aS'Dulu tweet aku asyik2 heading to college.la ni tukaq dah.heading to office hahaha'
p539
aS'That ganda bacha spot.\n\n#nca #arts #college #graffiti #yellow #walls #smoking #spot #sealed #afsos @\xe2\x80\xa6'
p540
aS'Practical exam ur prayers \xf0\x9f\x92\x89\xf0\x9f\x92\x8a\xf0\x9f\x98\xb7 (@ Ibn Sina National College | \xd9\x83\xd9\x84\xd9\x8a\xd8\xa9 \xd8\xa7\xd8\xa8\xd9\x86 \xd8\xb3\xd9\x8a\xd9\x86\xd8\xa7 \xd8\xa7\xd9\x84\xd8\xa3\xd9\x87\xd9\x84\xd9\x8a\xd8\xa9 - @ibnsina_college)'
p541
aS"I'm at Ibn Sina National College | \xd9\x83\xd9\x84\xd9\x8a\xd8\xa9 \xd8\xa7\xd8\xa8\xd9\x86 \xd8\xb3\xd9\x8a\xd9\x86\xd8\xa7 \xd8\xa7\xd9\x84\xd8\xa3\xd9\x87\xd9\x84\xd9\x8a\xd8\xa9 - @ibnsina_college (Jeddah, Western Province) w/ 11 others"
p542
aS'"@purple_aliza18: #AngSayaSiguro kung hanggang college kaklase ko pa rin ang TL &lt;3.&lt;3 @JJARofhearts @jeyuelayee @kate_aguilar24" This \xf0\x9f\x92\x94'
p543
aS'Hasil survey lokasi KKN #mbolang#happy#bestie#girls#college#classmate#instaday#instagram ninaaprill\xe2\x80\xa6'
p544
aS'Meeting up with college classmates. :) (@ SM Mall of Asia w/ 16 others)'
p545
aS'Bergerak ke college (@ Taman Bukit Kempas w/ @nesarina)'
p546
aS'Haha. Yoko pa mag college.'
p547
aS'Nakakamiss naman college friends ko. -.-'
p548
aS'@kevinwouldsay @aisuhcunanan \nThe college life is fun\xef\xbc\x81\nI want to become 20 years old, too\xef\xbc\x81\nHaha'
p549
aS'May you Rest in Peace Tita Alfreda! Thank You for being part of our college life!\xe2\x9b\xaa\n\nWe are always here\xe2\x80\xa6'
p550
aS'@soiiivistal hahahaha pero asa nag college vist? :))'
p551
aS'#\xd8\xb5\xd8\xa8\xd8\xa7\xd8\xad_\xd8\xa7\xd9\x84\xd8\xae\xd9\x8a\xd8\xb1\n#\xd8\xb5\xd8\xa8\xd8\xa7\xd8\xad_\xd8\xa7\xd9\x84\xd8\xaf\xd9\x88\xd8\xa7\xd9\x85\xd8\xa7\xd8\xaa @ To college \xf0\x9f\x92\x94'
p552
aS'Remembering #Aguirangan #Island when I feel so much heat. #memories #good #old #days #college\xe2\x80\xa6'
p553
aS'@polquintans sige mag 4th yr pa lang ako eh pero try ko diyan mag college haha'
p554
aS'Last jumaat at johor mayriculation college...'
p555
aS'\xd8\xa8\xd8\xb7\xd9\x88\xd9\x84\xd8\xa9 \xd9\x82\xd8\xaf\xd9\x85 \xd9\x86\xd8\xb9\xd8\xb3\xd8\xb3\xd8\xa7\xd9\x86\xd9\x87 \xf0\x9f\x98\x82\xe2\x9a\xbd\xef\xb8\x8f (@ Jubail Industrial College | \xd9\x83\xd9\x84\xd9\x8a\xd8\xa9 \xd8\xa7\xd9\x84\xd8\xac\xd8\xa8\xd9\x8a\xd9\x84 \xd8\xa7\xd9\x84\xd8\xb5\xd9\x86\xd8\xa7\xd8\xb9\xd9\x8a\xd8\xa9 - @irjubailcollege)'
p556
aS"@tylahlaaah Can't believe im repeating 4th yr. Why did i had stop school. Eyy finally a friend whos not leaving guam for college. Haha"
p557
aS'@imAujanLovely @imcristina_08 Kashock naman pag ganun. Nagstop sanda it college? Kaya naman pala dineactivate ni Flaierth ung fb niya.'
p558
aS'@zyrabelleA @clairybels naks. Hahahaha aruuy. Mag be braintrain ka or college review?'
p559
aS'With Mohamed at Med-college Library \xe2\x80\x94'
p560
aS'Was able to talk to my college professor again. Damn! Crush ko pa din siya. Kinikilig pa din ako. \xf0\x9f\x98\x8d\xf0\x9f\x98\x8d\xf0\x9f\x98\x8d'
p561
aS'"@TOIEducation: Mizoram to get its first medical college soon'
p562
aS"We're no longer part of college. Best of luck juniors, seniors."
p563
aS'@jhoycepalacio14 @imkatekaaat nope incoming college palang ka graduated ko lang e'
p564
aS'Yung kilala mo na matalino nung high school eh naging irreg/drop/failed na ng college #anyare'
p565
aS'They say that #college would be #fun, #freedom, #excitement and full of #joy. #Nonsense. @BeNononsense'
p566
aS'Ang jinet magpapa-gupit nga ulit ako ng sobrang iksi. Flashback to before college hair. \xf0\x9f\x92\x87\xf0\x9f\x92\x87\xf0\x9f\x92\x87'
p567
aS"I remind my parents to love me, even if I don't get into college, on a daily basis."
p568
aS'At prima muchtar college \xe2\x80\x94'
p569
aS'First Check in In my college..... lolz \xf0\x9f\x98\x89\xe2\x9c\x8c\xf0\x9f\x91\x8d (@ SES  Sollege Of Engineering)'
p570
aS"#MyChemicalRomance = HS and college vibe. :3\nI'm a compulsive tweeter. One of these days I'll end up tweeting to myself."
p571
aS'@Jenovi6 same here. So many assignments and college stuffs until no time to catch up all the new series \xf0\x9f\x98\xa9'
p572
aS'Sitting in the college library all chilled with legs on table. :p Just missing a warm cup of green tea.'
p573
aS'@Swathi1096 u mean into christ college?'
p574
aS'@ameliaachung Was going college ,has to some music tracks for class :)..Hahah Where were you? :O'
p575
aS'Today ung wedding ni Kuya Neil!! Ang college crush ni @jomie03 ! Friend condolence to your heart. \xf0\x9f\x92\x94'
p576
aS'Mari berjuang demi masa depan dan sibuah hati hahahhahah (at LP3i business college Banda Aceh) \xe2\x80\x94'
p577
aS'what happen to me now.dulu time ade kelas xley nak bangun pagi.now bile xde kelas boleh bangun pagi.adakah aku xley move on college life now'
p578
aS"@sheenamaeeeee hahaha. You're still young mas marami pang challenges and conflicts this college :)"
p579
aS"They're not just mcdo buddies, they're also my college buddies weeeee"
p580
aS'@maikhss college tska org. Hahaha. Sa clep. :)'
p581
aS'#goodmorning #yall #have a #good #day ... my way to college ....'
p582
aS'@varmanic miss ayyav bro nijanga chala manchi college OU ki KCR ki sambandam ledu ala anukuntunnaru janalu antha hyd is not equal to KCR'
p583
aS'Good bye selangor matriculation college!'
p584
aS'AECO batchmates #college #grad woooh :))) @ College of Economics and Management'
p585
aS'@TanushreeParama ohhh in arab  so today is college'
p586
aS'@x3_labrihart wish I could sis you gonna be in college by time I get home ima have to stop down there and see you'
p587
aS'I am a college student'
p588
aS'My 1st seminar as a college student ^_^)Y @ University of San Carlos - South Campus'
p589
aS'@PinJieTeee in the college library :) im hungry'
p590
aS'Supervisor, Store Operations at Officemax (Madison, WI): Education\nHigh school or GED required, some college p...'
p591
aS"// I am Donovan Dario Mercer.\nTo be or not to be dead, doesn't matter.\nWhat does matter is if I get my college degree this year."
p592
aS'At LP3i business college Banda Aceh \xe2\x80\x94'
p593
aS'First Edcon Asia scholarship for school and college children by NTS was yesterday'
p594
aS'Gusto ko na ng college life hihihi'
p595
aS'\xe2\x80\x9c@collegefession: "The girl you have back home waiting for you while in college is the one. Don\'t let that girl go fellas." - CMU\xe2\x80\x9d Over seas'
p596
aS'Batch Johnson #kakamiss #sandiya #suha #college \xf0\x9f\x98\x89\xf0\x9f\x8d\x89\xf0\x9f\x8d\x8b @ Starbucks Southpoint Iloilo City'
p597
aS'@kxireyes @AltheaFelice shet college na tayo  w t f'
p598
aS'prepare before comeback.. to college\xf0\x9f\x8f\xa2 (at BP2IP Mauk Tangerang) \xe2\x80\x94'
p599
aS'Son of a bitch. Piece of fucked up ball sack no fucking water fuck my life im gonna die la how to college'
p600
aS'"@carmeloman5: I swear the NBA playoffs feels like a college bracket. No team is safe!"'
p601
aS'Went to two museums today with my college mates to do some research for assignment #vscocam @ National\xe2\x80\xa6'
p602
aS"Can I just say I'm glad DeMarre Carroll is playing and starting? I remember watching him play at Missouri while he was in college. #NBA"
p603
aS'@imprncssc ganun? Sa lahat talaga? Hahaha sige try naten yan sa college'
p604
aS'Feel bored at the Library. Hahahaa ^^v #bored #library #breaktime #college @ Universitas Surabaya (UBAYA)'
p605
aS'Ya des couples chelou ds mon college jvous jure'
p606
aS'Boring day. I hate college life'
p607
aS'Calling for any volunteer college-ian yg sanggup nak tumpangkan aku kat bilik dia'
p608
aS"Packing packing,...there's so much I need.. Not ready to go to college... Hurmmmm.."
p609
aS'Paling tak suka kena balik college.'
p610
aS"I'm not yet ready. As iiiiin. _(._.)_ #college #kaleyds"
p611
aS'college of information and computer technology!  hahay kala ko madali ka lang \xf0\x9f\x98\x9e pinaasa mo ko \xf0\x9f\x91\x8a'
p612
aS'@SyahrilSani college west bro. malik last minute suruh aku buat'
p613
aS'Because today was a reminder of how our parents have worked so hard to help us through college. Thank\xe2\x80\xa6'
p614
aS'Officially graduated from college today! Huzzah!!! @ University of the Philippines'
p615
aS'@apriljoysantos tama! \xf0\x9f\x98\x85 pano pag mga ganun kaklase mo sa college! :O'
p616
aS'#welcome #party #1st #years #my #friends #college #canteen #missing #uh #all #sagar #mohit #aditya\xe2\x80\xa6'
p617
aS'@NawarAmnah mesti lah best. Best engineering college in malaysia lah katakan..haha.'
p618
aS'"@khatpusaaa: 4years pa sa highschool tas college pa trgs \xf0\x9f\x98\xa5\xf0\x9f\x98\xad"'
p619
aS"I'm at KU- college of engineering and petroleum (Kuwait city)"
p620
aS'bonding with my college friends! :) gelahdanganan laham27 @ Fairview Ayala Terraces'
p621
aS'@Veronica_Allysa oh. Sa public school lang ako nag-aaral sa Antipolo. Pinsan ko kasi mag ka-college na. Rich kid ka pala. :))'
p622
aS'"@JustinGueco_: college na ko di ako makapaniwala hays" pano pa ko sa height palang wala ng naniniwala hahahaha \xf0\x9f\x98\xad'
p623
aS'@VincentSundaye hahahaha incoming college freshie ka na ba pala or hs senior? Curios Lang lol'
p624
aS'Erican Esprit Team #esprit #college #instaphoto #love #photooftheday #finalexam #goodluck @ Erican\xe2\x80\xa6'
p625
aS'Tutoring a college aged boy is really awkward'
p626
aS'Tele Marketing College, missed ths memory...  #ipoh #study #college #stadium #indramulia #forTIC @\xe2\x80\xa6'
p627
aS'@CobyLiciouuss ma college kna dba? :)'
p628
aS'Good morning beautiful! (@ Sime darby nursing and health sciences college)'
p629
aS'The long lost Party Partner back in college! Finally! Natuloy din \xf0\x9f\x98\x81\xf0\x9f\x98\x81 More to come! @tridims \nP.S.\xe2\x80\xa6'
p630
aS'@DivendranPanda Two girls at my college'
p631
aS'@aziellaaa yeah bagus la a good pass activity kan. college is hectic sikit but okay ah. i miss you too.we all do,mana you'
p632
aS"Don't miss dem or the college."
p633
aS'can we skip this whole \xe2\x80\x9ccollege\xe2\x80\x9dthing and go straight and go to the part where i have a really awesome job and spend all my time traveling?'
p634
aS'Di pa umuuwi si ate, baka siya naman di makagraduate ng college. Lagi na lang late kung umuwi. Hayynakuu'
p635
aS'@EykaZailani dekat la nak melawat..haha.. college tu..Ingat college yang teknik tu..huhu..\nBtw I dah quit from study'
p636
aS'I think we probably needed more years in college to still want each other together. I missed you guys!\xe2\x80\xa6'
p637
aS'@kayecapuno Thank you Kaye!! Goodluck sa college! :)'
p638
aS'Asik berdua disaat yang lain lg presentasi #selfie #college #besties @ Universitas Mercubuana'
p639
aS'Waiting, (@ Brickfields Asia College - @baccollege w/ 7 others)'
p640
aS'@IAmIKrisman ok dei pick me up after college \xf0\x9f\x91\x8c'
p641
aS'Heading to Binondo Church w/ college friends. My first time visit. Happy Sunday!\xe2\x98\xba\xef\xb8\x8f'
p642
aS'Survey Ray Ban Clubmaster for college (@ Classic Eyewear)'
p643
aS"bought some stuffs for my college just now. aaaaa it bring tears to my eyes even when I imagine of staying in college without my family :'("
p644
aS"Yale-NUS Merchandise Store's first product yalenuscollege :) #ilovecoffee @ Yale-NUS College"
p645
aS'During our college testimonial. :) Thank you for coming, Mama! \xe2\x99\xa1 @ UP Los Banos'
p646
aS'i need a break from my studies. to think carefully of what i should do about whether continuing college studies or not.'
p647
aS'@IzzatRfan @ArifRosnan hmm dah strt college :( arip Ada interview enn nanti ?'
p648
aS'@JulsHeartsYou true yon hanep ka. Buti nga umabot pa ng college e. Hahaha \xf0\x9f\x98\x82\xf0\x9f\x98\x94'
p649
aS"I'm at Kuwait university - college of social science (ku-css) \xd8\xac\xd8\xa7\xd9\x85\xd8\xb9\xd8\xa9 \xd8\xa7\xd9\x84\xd9\x83\xd9\x88\xd9\x8a\xd8\xaa \xd9\x83\xd9\x84\xd9\x8a\xd8\xa9 \xd8\xa7\xd9\x84\xd8\xb9\xd9\x84\xd9\x88\xd9\x85 \xd8\xa7\xd9\x84\xd8\xa7\xd8\xac\xd8\xaa\xd9\x85\xd8\xa7\xd8\xb9\xd9\x8a\xd8\xa9"
p650
aS"@aeizwann hahaha u're gonna miss it when u're in college nnt \xf0\x9f\x98\x82\xf0\x9f\x98\x82\xf0\x9f\x98\x82"
p651
aS"@Anismuhaidi ouh okay.. saja tanya.. i'm going to your college today.."
p652
aS"Can't have a kid and be in the military unless you're married. So that pretty much has to happen if you want free college buddy boy."
p653
aS"With my BFFs/elementary/highschool/college friends\nthank y'all\xf0\x9f\x98\x8a\xe2\x98\xba\xef\xb8\x8f\xf0\x9f\x98\x89\xf0\x9f\x98\x9d\xf0\x9f\x98\x81\xf0\x9f\x98\x84\xf0\x9f\x8e\x89\xf0\x9f\x8e\x8a\xf0\x9f\x8e\x88\xf0\x9f\x8e\x82"
p654
aS'@herchellim nah goodgirl ako b haha jk jk balik ka pag college mo!'
p655
aS'Ang lakas maka college! Hahahah (@ Priv\xc3\xa9 Luxury Club - @priveluxuryclub w/ @meeljaurea)'
p656
aS'@eLPotenteCarpe college ikaw dn \xf0\x9f\x98\xaa\xf0\x9f\x91\x8e'
p657
aS'I never parked here during my college days. Today I am here for a different purpose. #shootday #ust\xe2\x80\xa6'
p658
aS'Dle man jud diay na lalim ng college life noh? Nka dungog ra ko. Huhubells!'
p659
aS'Super late lunch with my college friends. I missed you all. Si jesssjasmin lagi nang nandito so hindi\xe2\x80\xa6'
p660
aS'belated happy birthday ate @cheskowlucas !! \xf0\x9f\x98\x9a\xf0\x9f\x98\x8a\xe2\x9c\x8c\xf0\x9f\x99\x8f\xf0\x9f\x8e\x88\xf0\x9f\x8e\x89 wuv u a bunch!!! (better late than never) hehe gl sa college! \xf0\x9f\x98\x8a\xf0\x9f\x98\x8a'
p661
aS'15 Life Hacks every college student should know'
p662
aS'Mga college dito may mga lambo tsaka audi na amm racinggg tuwing gantong oras cool haha'
p663
aS'And so this is why it\xe2\x80\x99s okay to graduate:\n\nThe reason why graduating college isn\xe2\x80\x99t actually the end\xe2\x80\xa6'
p664
aS'@Yloraster yes nga eh,nakita ko yung gradpics mo :) ang bilis ate! Nung nandito palang tayo mejj bulilit pa :( haha tas ngayon college kana'
p665
aS'Back to college @ City One'
p666
aS"Chikahan of dada and friends' college years."
p667
aS'@GaiileSuper 4th yr college ayt? :))'
p668
aS'\xe6\x9c\x80\xe5\xbe\x8c\xe4\xb8\x80\xe6\xac\xa1\xe7\xac\x91\xe6\x9a\x88\xe6\x9c\x83 #instapic #instalife #school #anniversary #college #cute #cool #roommate#love#pretty @ \xe6\x98\x8e\xe5\xbf\x97\xe7\xa7\x91\xe6\x8a\x80\xe5\xa4\xa7\xe5\xad\xb8'
p669
aS'My last solat jumaat at johor matriculation college...!'
p670
aS'"@twtsecretsmy: I still dont know what to pursue in college. I still dont know what I really WANT to do in my life."you will, eventually :)'
p671
aS'@nisyaazmi kelakar ah! Hahaha hanan baca lepastu gelak sorang sorang dkt college hagaha'
p672
aS'Ma-proud jud kog samot sa SMC ba kung maabot na among yearbook! Jusko. Hapit nalang mi mograduate og college, wala pjud intawon. \xf0\x9f\x98\x91'
p673
aS"I'm at padmavati juniors college"
p674
aS'Im suppose to leave for somewhere but I drop it all for the love of finishing college. All or nothing!'
p675
aS'UGM"@InggrisBisa: #WhatIsYourChoice *dream college* UI/ ITB? UGM/ Unpad/ STAN? #EnglishIsFun"'
p676
aS'Spent another tradition but this time, with my college buddies. Ang saya saya lang. Ang late lunch\xe2\x80\xa6'
p677
aS'@RenceFrancisco kung ako to Thank you hahaha Goodluck sa college!! =)))))'
p678
aS"Can't believe my college professors have actually filled the online recommendation form."
p679
aS'Good morning Kuala Lumpur! Going off to Lincoln college for registration.'
p680
aS'@WahyuRamli kesiannn hahahah org g college makin keding ko kot makin kembung muahaha'
p681
aS'@PalesPaulo naks, kaiyak, college ka na talaga. Surang paaral. Hahaha.'
p682
aS"#study #DMC #dubai_mens_college #reading #\xd8\xaf\xd8\xb1\xd8\xa7\xd8\xb3\xd8\xa9 #\xd9\x83\xd9\x84\xd9\x8a\xd8\xa9_\xd8\xaf\xd8\xa8\xd9\x8a_\xd9\x84\xd9\x84\xd8\xb7\xd9\x84\xd8\xa7\xd8\xa8 #\xd9\x82\xd8\xb1\xd8\xa7\xd8\xa1\xd8\xa9 @ Dubai Men's College"
p683
aS'I am japanese \xe3\x83\xbd|\xef\xbd\xa5\xcf\x89\xef\xbd\xa5|\xe3\x82\x9e \nI started Twitter!\nI would like to carry out linguistic study.\nI became a college student~~'
p684
aS'@hunnuuuuh ohw hehe \xf0\x9f\x98\x81 i dont have a college yet lol'
p685
aS'Godmother caught me ol early \xf0\x9f\x98\xa3 gotta run! gonna have a nap to get energized for another day in review school for college entrance exams \xf0\x9f\x98\x94\xf0\x9f\x98\x96'
p686
aS'currently at college \xf0\x9f\x98\x81'
p687
aS'i describe my ideal roommate on this college app as "fun funky &amp; a little weird"'
p688
aS'Yey graduate na ako next year then college life na ^-^'
p689
aS"Is it weird that I'm more excited about #littleinfinities than college? (Tickets, my fingers are still crossed, hoping our stars are also.)"
p690
aS'@MaryGyleM ning graduate naman diay kag college. :))'
p691
aS'Morning. Going to college yaww.'
p692
aS'This is shit \nBut Astungkara lulus ! (at indonesia college) [pic] \xe2\x80\x94'
p693
aS'Batangas weekend with some of my college best buddies \xf0\x9f\x98\x81\xe2\x9c\x8c\xef\xb8\x8f @ Secret Place'
p694
aS'@ralphanthony04 si paul! hahah gn mangkot yko kun may ma dulong skon mg college. mbl ko ako nlg nhuya mn kocollege na mapadulong pko'
p695
aS"I get it, you're in college, but some of y'all drink more than marines. Take it easy people."
p696
aS'@iamsaiha keto tu aku tgl shah alam laa. . Dengan barang kt college aku'
p697
aS'#Yummy #beefSnacks #coke ~ in #segi #segicollege @ SEGi College Subang Jaya'
p698
aS'Calculating my money if I haev that car duit habis in 3 years.. -.- Thats my college money somemore.'
p699
aS'Be mature, remember your now a college student! Enjoy the most out if it\xe2\x98\xba\xef\xb8\x8f\xf0\x9f\x92\x9a #BenildeFroshTips'
p700
aS'@mashal1144 my frnd gave me all old letters tht v xchanged during our school n college days. These lengthy leters remind me of gud old days'
p701
aS"I'm at Ibn Sina National College | \xd9\x83\xd9\x84\xd9\x8a\xd8\xa9 \xd8\xa7\xd8\xa8\xd9\x86 \xd8\xb3\xd9\x8a\xd9\x86\xd8\xa7 \xd8\xa7\xd9\x84\xd8\xa3\xd9\x87\xd9\x84\xd9\x8a\xd8\xa9 - @ibnsina_college (Jeddah, Western Province) w/ 13 others"
p702
aS'@inconsumerforum can i file a complain against my college if they did not fullfill their promises?'
p703
aS"#throwback outfit for college dinner yesterday night! Yes, I'm a final year student! 4 weeks left in\xe2\x80\xa6"
p704
aS'@sofia_zulkifli biasa la busy dgn dunia college \xf0\x9f\x98\xa2 boleh jadi gila until hari rabu ni omg'
p705
aS'@poodlebyun Ite college west, CCK \xf0\x9f\x98\x9e'
p706
aS"Agree with @EzahRln l\xe2\x80\x9c@EzahRln: I've always hated school/college but I've never felt like I'm in a prison except today.\xe2\x80\x9dp"
p707
aS'@Yureyynn kung pwede sana hayy.. Swerte niyo talaga hahaha.. GoodLuck nalang sa college! \xf0\x9f\x98\x8a God Bless'
p708
aS'otw hoome my god babalik nanaman ako bukas grrr college na itu k hahaa'
p709
aS"Sometimes i miss college life sometimes i don't.. Sometimes i like being at home.. And sometimes I miss themm!.."
p710
aS'I should have gone to fucking college.'
p711
aS'Tak dapat join futsal tournament kat college kali ni.Sebab role play aku habis lambat semalam \xf0\x9f\x98\x91\xf0\x9f\x98\x90'
p712
aS'Ayoko pa mag college.\nMasarap pa sa bahay.'
p713
aS"I'm at college of information and computer science"
p714
aS'internship at @EDELWEISS...3 days training programme...den a test...its college back again #tense #nervous  seriously need a break #needrest'
p715
aS'Masih sempat selfie dikelas sebelum yang lain pada masuk~ #picoftheday #instahijab #college #selfie @\xe2\x80\xa6'
p716
aS'Oh Monday blues. \xf0\x9f\x98\xb4\xf0\x9f\x98\x8c (@ Brickfields Asia College - @baccollege w/ 4 others)'
p717
aS'Back to college... (at FE Unpad) \xe2\x80\x94'
p718
aS'w/ my college friend and classmate kring kring and chongkai #gettogether @ 5th Ave Cubao Quezon City'
p719
aS'I love these chemical engineering courses, I enjoy reviewing my college knowledge'
p720
aS'Makes me wish I studied photography in college:'
p721
aS'My college life is complete. Ultimate achievement \xf0\x9f\x98\x81\xe2\x9c\x8c\xef\xb8\x8f Selfie with Doc M. Booyaaaa! \xe2\x9d\xa4\xef\xb8\x8f College is\xe2\x80\xa6'
p722
aS'Natatae ako pag iniisip kong magka college nako :('
p723
aS'@YourKoel  I m in college trailer dekhte parchi na... feeling sad :( :( bikale bari jaoyr pore dekhte pabo still thn I hv 2 wait Rag hocche'
p724
aS"Let's start the week all over again \xf0\x9f\x93\x96\xf0\x9f\x93\x9a\xe2\x9c\x8f\xef\xb8\x8f #college #eelintanponteng @ DISTED College"
p725
aS'@nicholleannj excited ah kawan aku masuk college! Nak jumpa before masuk :('
p726
aS'"@AnnMajing: @chaismally ala eh. Hahaha :) incoming 1st year college ka diba?" Ala eh! Wahaha oo sis, hehe.'
p727
aS'Sila ayos na college papers and files tas June-ish pa classes nila, ako last week of May na waley pa rin na aaccomplish. DLSU pls. Huhuhu'
p728
aS'Parents just gave the college talk......SERIOUS MODE:\xf0\x9f\x94\x9b'
p729
aS'off to college \xf0\x9f\x98\x81'
p730
aS'@CelinaJaitly Major Mukund spent a few years in Mhow and served as an instructor at Infantory college Mhow. RIP.'
p731
aS"I'm ready for college life, oh no i thought I am but I'm not! Damn it!!! \xf0\x9f\x98\xa9"
p732
aS'@Alfrink @TheRawGamer1998 your courses in college are taught in English ?'
p733
aS'My kind of Saturday, college futsal tournament \xf0\x9f\x92\xaa @ DMS Sports'
p734
aS'Bye Bye \xf0\x9f\x98\x98 #dtc #lastclass @ Dusit thani college'
p735
aS'Buti pa nung high school, napapadalas uwi ko sa Pampanga. Ngayong college, hindi na \xf0\x9f\x98\x9e'
p736
aS'Doing task at the wrong place, lol :p #task #college #garden #vacation @ Floating Market, Lembang'
p737
aS'The college version of me just said, "NOOO FREAKIN\' WAYYYYYY!!!!" #ObamainKL #yseali @ University of\xe2\x80\xa6'
p738
aS'Final day of my college life. Came here thinking I would hate this place but Im leaving here with a\xe2\x80\xa6'
p739
aS'@YourKoel gud evng di.... :) back from college now @SangeetBangla dekh6i waiting tooo watch #Arundhati trailer.. I m late  :( to watch'
p740
aS'And the books have arrived ! Kk back to college ! M.A psychology ! Excited to learn !!!'
p741
aS'When boredom strikes..........\xf0\x9f\x99\x86 @ sunway college johor bahru Room 307'
p742
aS"It was this girls birthday at the college rooftop, and the boyfriend proposed to her :') so overwhelmed!"
p743
aS'@Deanenerzzzz ohhhh. Nice. Buti pa kayo my ginagawa para sa college nyo. Huhu.'
p744
aS'Magfifirst year college ka na hindi ka pa marunong magtama ng mga tenses mo jusmiyo'
p745
aS"@pattiness you can do it, it's excel, it'll be your best friend for college hahaha! :D"
p746
aS'@CobyLiciouuss where ka ma college?'
p747
aS'"@k0_0a: @biyanimeyg dati yun. ngayon tila araw araw may kwento ako" - ngayong college ka lng naging madaldal eh.'
p748
aS'A strike In My college Today'
p749
aS'Thank you @edgardothe03rd for making my #college life extra special. Cant imagine my last 5 semesters\xe2\x80\xa6'
p750
aS'@Apreeeng college?'
p751
aS'fast life for college students'
p752
aS'I chose skydiving in stead of college. #selfie #palmofDubai #fuckyeah'
p753
aS'@inahfranchesca how about ur college friends?\xf0\x9f\x98\x89\xf0\x9f\x98\x82'
p754
aS'@KobeBryyyant mc? Miriam college? Hahaha'
p755
aS'@Angelavesleno_ Nope. Kasi nga walang paggagamitan. Haha! Ikaw ba? Tskaa kasi college na ko. Hahaha'
p756
aS'Kung gaan kabilis maginquire kapag highschool. Kabaligtaran ngayong college :/'
p757
aS"@ohmaryjohnne i'll werk here after college. :)) so medyo youth pa ako nun haha"
p758
aS'@muhdfiekrie cakap dengan dia next week lepas aku pergi bangi. Jom la ajak ema bawak aku pergi college isnin depan.'
p759
aS'#grape#purple#red#tee#Saturday#college#activity#trip#cool#tired#potd#ootd#asian#girl @ Beris Lake\xe2\x80\xa6'
p760
aS"Freakjng don't bring your kids with you to college"
p761
aS'Watching blind auditions of The Voice in class. The only reason I love my college is for the good wifi everywhere.'
p762
aS'Heading back to college.'
p763
aS'Had a great night with my college mates!'
p764
aS'can we skip this whole \xe2\x80\x9ccollege\xe2\x80\x9d thing and go straight and go to the part where i have a really awesome job and spend all my time traveling?'
p765
aS'@TheTimmyCruz Haha Ayaw ko pa nga pong mag-college :3'
p766
aS'Am I ready to be a senior? To go to college? To be on my own?'
p767
aS'Big day for my bro bc hes done with college.'
p768
aS'U asked me to learn but now u say im doin somethin bad at college? Dafak'
p769
aS'Why are college principals telling students who to vote for? Tell them to vote. More than enough! Atleast leave fundamental rights alone.'
p770
aS'\xe2\x80\x9c@leonardoxdeasis: @fonfonclick but college\xe2\x80\x9d okay. Last day of HS*'
p771
aS'Selfie with my friend &amp; my teacher college after watching "JALANAN"... #selfie #friend #teacher #XXI\xe2\x80\xa6'
p772
aS'My college friends are having a great summer while meee... Nevermind! \xf0\x9f\x98\xaa\xf0\x9f\x98\xb6'
p773
aS'\xd9\x8a\xd8\xa7\xd8\xad\xd8\xb3\xd8\xa7\xd9\x81\xd8\xa9 \xd8\xa7\xd9\x84\xd9\x82\xd9\x88\xd9\x85\xd9\x87:) (@ Buraydah college)'
p774
aS'"@FunnyReIate: i can\xe2\x80\x99t even pick my favorite song what makes you think i can pick a college"'
p775
aS'Yung mga ELF Chingus ko puro college na or may work na, samantalang ako :((( kainis na k+12 yan! :3'
p776
aS'walking arnd sunway college'
p777
aS'Pucha. Inis na inis na ako. Perfectionist na ina! Nakakasakal nakakabagot. Next level bullshit. Huhu gusto ko na mag college\xf0\x9f\x98\xbf'
p778
aS"I'm at Brickfields Asia College - @baccollege w/ @gosh_its_darsh @vin1339"
p779
aS'Sigh.. college start tml..'
p780
aS"I'm at Inaya Medical college (Riyadh) w/ 5 others"
p781
aS'Came to college to study till evening. Forgot to keep the new Game of Thrones episode on download. :( #FML #Bhulakad'
p782
aS'@YKeQing if im smart then im not in college dy lor , graduated long time ago liao la liddat hahah'
p783
aS'Abah.. Is that you abah.. Aku asyik jumpa abah je kat college.. Nak tgo takut abah marah.. Maklumla aku bkn anak laki.. \xf0\x9f\x98\x92'
p784
aS'We are bad \\m/ #friendship #friends #college #psychology @ Kos putri Dewi 2'
p785
aS'@UsernameNishta \nYaar tumhe koi toh Btaya hoga ke yeh important college waloon ne?'
p786
aS'@Shireen_1D owh now u prefer more to tweet with ur college fwens lar than ur school fwens....kahy fyne... poodiii :P :P'
p787
aS'Korean food pig out with the sister @renskiiee plus kwento on college memories is the way to go.\xe2\x80\xa6'
p788
atp789
Rp790
.