(dp0
S'month'
p1
I1
sS'asian'
p2
I3
sS'grateful'
p3
I2
sS'freakin'
p4
I1
sS'follow'
p5
I2
sS'nung'
p6
I1
sS'kate'
p7
I1
sS'young'
p8
I1
sS'matagal'
p9
I1
sS'jateng'
p10
I62
sS'jvous'
p11
I1
sS'fat'
p12
I1
sS'worst'
p13
I1
sS'polytechnic'
p14
I1
sS'fullest'
p15
I1
sS'cool'
p16
I2
sS'entire'
p17
I1
sS'impressive'
p18
I1
sS'anxious'
p19
I1
sS'donovan'
p20
I1
sS'spiritual'
p21
I1
sS'sigh'
p22
I1
sS'japanese'
p23
I1
sS'past'
p24
I1
sS'likely'
p25
I1
sS'dapat'
p26
I1
sS'blue'
p27
I1
sS'stressful'
p28
I2
sS'christ'
p29
I1
sS'crush'
p30
I2
sS'indian'
p31
I1
sS'new'
p32
I14
sS'public'
p33
I1
sS'full'
p34
I4
sS'commercial'
p35
I2
sS'smartest'
p36
I1
sS'shouldn'
p37
I1
sS'tagal'
p38
I2
sS'strong'
p39
I2
sS'great'
p40
I7
sS'healthy'
p41
I1
sS'social'
p42
I2
sS'military'
p43
I2
sS'weird'
p44
I1
sS'bearable'
p45
I1
sS'next'
p46
I7
sS'few'
p47
I3
sS'ust'
p48
I1
sS'music'
p49
I3
sS'agreeable'
p50
I1
sS'more'
p51
I11
sS'flat'
p52
I1
sS'varmanic'
p53
I1
sS'successful'
p54
I1
sS'matgal'
p55
I1
sS'glad'
p56
I2
sS'high'
p57
I85
sS'join'
p58
I1
sS'soul'
p59
I1
sS'akic'
p60
I1
sS'arrive'
p61
I1
sS'beautiful'
p62
I2
sS'berat'
p63
I1
sS'crazy'
p64
I1
sS'give'
p65
I2
sS'awesome'
p66
I5
sS'topic'
p67
I1
sS'puyat'
p68
I1
sS'unforgettable'
p69
I1
sS'huge'
p70
I1
sS'mentang'
p71
I1
sS'oyy'
p72
I1
sS'chemical'
p73
I1
sS'hot'
p74
I1
sS'allied'
p75
I1
sS'stop'
p76
I1
sS'earlier'
p77
I1
sS'paaral'
p78
I1
sS'islamic'
p79
I2
sS'wrong'
p80
I1
sS'such'
p81
I3
sS'suck'
p82
I1
sS'lar'
p83
I1
sS'somethin'
p84
I1
sS'remember'
p85
I1
sS'third'
p86
I1
sS'volleyball'
p87
I1
sS'green'
p88
I1
sS'ultimate'
p89
I2
sS'typical'
p90
I2
sS'cute'
p91
I1
sS'kong'
p92
I1
sS'coursemate'
p93
I1
sS'pang'
p94
I1
sS'le'
p95
I1
sS'terhegeh'
p96
I1
sS'personal'
p97
I1
sS'late'
p98
I2
sS'easier'
p99
I1
sS'vincereian'
p100
I1
sS'good'
p101
I19
sS'dan'
p102
I1
sS'safe'
p103
I1
sS'preetinyaynite'
p104
I1
sS'break'
p105
I1
sS'bigger'
p106
I1
sS'nagsaliwan'
p107
I1
sS'mean'
p108
I1
sS'heavy'
p109
I2
sS'eh'
p110
I2
sS'allah'
p111
I1
sS'finish'
p112
I2
sS'special'
p113
I3
sS'gon'
p114
I2
sS'miss'
p115
I2
sS're'
p116
I1
sS'assignment'
p117
I2
sS'msid'
p118
I1
sS'dulong'
p119
I1
sS'cutest'
p120
I1
sS'mashal'
p121
I1
sS'free'
p122
I3
sS'argh'
p123
I1
sS'imagine'
p124
I1
sS'ate'
p125
I3
sS'lsgh'
p126
I1
sS'compulsive'
p127
I1
sS'american'
p128
I1
sS'ish'
p129
I1
sS'kung'
p130
I3
sS'lastyear'
p131
I1
sS'first'
p132
I16
sS'major'
p133
I3
sS'industrial'
p134
I3
sS'unhealthy'
p135
I1
sS'kapag'
p136
I2
sS'impossible'
p137
I2
sS'open'
p138
I3
sS'basketball'
p139
I1
sS'silent'
p140
I1
sS'top'
p141
I1
sS'slept'
p142
I1
sS'least'
p143
I3
sS'sial'
p144
I1
sS'final'
p145
I6
sS'rayban'
p146
I1
sS'double'
p147
I2
sS'project'
p148
I1
sS'bride'
p149
I1
sS'ang'
p150
I1
sS'mind'
p151
I1
sS'mine'
p152
I1
sS'sad'
p153
I4
sS'yskiholic'
p154
I1
sS'able'
p155
I1
sS'baler'
p156
I1
sS'useless'
p157
I1
sS'korean'
p158
I1
sS'tebal'
p159
I1
sS'semarang'
p160
I1
sS'most'
p161
I5
sS'nagmanual'
p162
I1
sS'kat'
p163
I1
sS'arunachal'
p164
I1
sS'kurshiah'
p165
I1
sS'medical'
p166
I9
sS'later'
p167
I3
sS'frederich'
p168
I1
sS'tech'
p169
I2
sS'mechanical'
p170
I1
sS'professional'
p171
I1
sS'senior'
p172
I3
sS'incomplete'
p173
I1
sS'evng'
p174
I1
sS'exoternal'
p175
I1
sS'aggressive'
p176
I1
sS'find'
p177
I1
sS'busy'
p178
I3
sS'nasaan'
p179
I1
sS'nervous'
p180
I1
sS'only'
p181
I3
sS'unable'
p182
I1
sS'rich'
p183
I1
sS'handle'
p184
I1
sS'photography'
p185
I1
sS'watch'
p186
I1
sS'lucky'
p187
I1
sS'bear'
p188
I1
sS'cheaper'
p189
I1
sS'international'
p190
I9
sS'celebrate'
p191
I1
sS'marunong'
p192
I1
sS'married'
p193
I1
sS'bad'
p194
I6
sS'stupid'
p195
I3
sS'grad'
p196
I1
sS'affordable'
p197
I1
sS'national'
p198
I16
sS'instapic'
p199
I5
sS'college'
p200
I2
sS'best'
p201
I20
sS'anggunberlian'
p202
I1
sS'enough'
p203
I1
sS'smallest'
p204
I1
sS'available'
p205
I1
sS'nationwide'
p206
I1
sS'galingan'
p207
I1
sS'recent'
p208
I1
sS'last'
p209
I26
sS'many'
p210
I3
sS'equal'
p211
I1
sS'whole'
p212
I7
sS'southeastern'
p213
I1
sS'tong'
p214
I1
sS'sweet'
p215
I2
sS'table'
p216
I1
sS'expensive'
p217
I1
sS'better'
p218
I1
sS'equivalent'
p219
I1
sS'due'
p220
I1
sS'much'
p221
I1
sS'linguistic'
p222
I1
sS'firm'
p223
I1
sS'akong'
p224
I1
sS'beloved'
p225
I1
sS'retrospective'
p226
I1
sS'eastern'
p227
I2
sS'jeddah'
p228
I1
sS'fird'
p229
I1
sS'tense'
p230
I1
sS'former'
p231
I3
sS'bile'
p232
I1
sS'darsh'
p233
I1
sS'im'
p234
I2
sS'lambat'
p235
I1
sS'dual'
p236
I1
sS'ready'
p237
I3
sS'zonal'
p238
I1
sS'ig'
p239
I1
sS'different'
p240
I4
sS'lengthy'
p241
I1
sS'same'
p242
I5
sS'pag'
p243
I1
sS'pal'
p244
I1
sS'yung'
p245
I1
sS'ball'
p246
I1
sS'sched'
p247
I1
sS'ng'
p248
I3
sS'dah'
p249
I1
sS'dgn'
p250
I1
sS'possible'
p251
I2
sS'jealous'
p252
I1
sS'palpable'
p253
I1
sS'kid'
p254
I1
sS'kept'
p255
I1
sS'older'
p256
I1
sS'thr'
p257
I1
sS'english'
p258
I2
sS'excessive'
p259
I1
sS'less'
p260
I1
sS'clinic'
p261
I1
sS'morong'
p262
I1
sS'setable'
p263
I1
sS'idky'
p264
I1
sS'residential'
p265
I1
sS'salamat'
p266
I1
sS'other'
p267
I7
sS'attractive'
p268
I1
sS'easy'
p269
I2
sS'real'
p270
I1
sS'petrochemical'
p271
I1
sS'big'
p272
I5
sS'fortic'
p273
I1
sS'mon'
p274
I1
sS'aral'
p275
I4
sS'helpful'
p276
I1
sS'd'
p277
I3
sS't'
p278
I11
sS'notorious'
p279
I1
sS'google'
p280
I1
sS'old'
p281
I12
sS'scared'
p282
I1
sS'dead'
p283
I2
sS'strongest'
p284
I1
sS'bore'
p285
I1
sS'tolong'
p286
I1
sS'aaral'
p287
I5
sS'gantong'
p288
I1
sS'normal'
p289
I1
sS'syaniebalkish'
p290
I1
sS'legal'
p291
I1
sS'liketofollow'
p292
I1
sS'kolian'
p293
I1
sS'epic'
p294
I2
sS'power'
p295
I1
sS'dental'
p296
I2
sS'soiiivistal'
p297
I1
sS'hectic'
p298
I1
sS'super'
p299
I1
sS'sister'
p300
I1
sS'central'
p301
I8
sS'oh'
p302
I1
sS'favorite'
p303
I2
sS'practical'
p304
I3
sS'macapagal'
p305
I1
sS'own'
p306
I3
sS'makapagaral'
p307
I1
sS'elementary'
p308
I1
sS'mere'
p309
I1
sS'van'
p310
I1
sS'long'
p311
I6
sS'imperial'
p312
I1
sS'yan'
p313
I1
sS'natuloy'
p314
I1
sS'happy'
p315
I5
sS'hanggang'
p316
I1
sS'hard'
p317
I3
sS'complete'
p318
I1
sS'library'
p319
I2
sS'abigailvy'
p320
I1
sS'true'
p321
I3
sS'handsome'
p322
I1
sS'kayong'
p323
I1
sS'ur'
p324
I1
sS'ue'
p325
I1
sS'classic'
p326
I1
sS'pic'
p327
I3
sS'enable'
p328
I1
sS'file'
p329
I1
sS'graduate'
p330
I2
sS'interested'
p331
I1
sS'electrical'
p332
I1
sS'tutorial'
p333
I2
sS'nice'
p334
I2
sS'poor'
p335
I1
sS'monday'
p336
I1
sS'pear'
p337
I1
sS'update'
p338
I1
sS'important'
p339
I1
sS'died'
p340
I1
sS'longer'
p341
I1
sS'daily'
p342
I1
sS'classmate'
p343
I1
sS'serious'
p344
I1
sS'original'
p345
I1
s.