c__builtin__
set
p0
((lp1
S'Nasestress naman daw ako. Hayst! Maadal nalang ako kang Rizal bako lang college al.'
p2
aS'Si sam navarro pala magka-college palang :o'
p3
aS'To #college'
p4
aS'@Lucillealoo college roadtrip ata yan'
p5
aS'@PrambananTrans ESA UNNES presents #ESAWEEK2014 for JATENG-DIY high school-college students.'
p6
aS'Crazy night with college blockmates. Love you all. #L85 @ Music 21 Makati'
p7
aS'Just got a call from the college where I studied!! Invited for an event + awards function!! Great learning that they recognize alumni too!!!'
p8
aS"I'm at Ibn Sina National College | \xd9\x83\xd9\x84\xd9\x8a\xd8\xa9 \xd8\xa7\xd8\xa8\xd9\x86 \xd8\xb3\xd9\x8a\xd9\x86\xd8\xa7 \xd8\xa7\xd9\x84\xd8\xa3\xd9\x87\xd9\x84\xd9\x8a\xd8\xa9 - @ibnsina_college (Jeddah, Western Province) w/ 3 others"
p9
aS'@krexois ay grabe bagay talaga kami, huhuntingin q yan sa college pwahaha'
p10
aS'PhoneticSymbols\xe3\x82\x84\xe3\x82\x8a\xe5\x87\xba\xe3\x81\x97\xe3\x81\xa6\xe3\x81\x8b\xe3\x82\x89\xe6\x9c\xac\xe5\xbd\x93\xe3\x81\xab\xe5\x8d\x98\xe8\xaa\x9e\xe3\x82\x8f\xe3\x81\x8b\xe3\x82\x89\xe3\x81\xaa\xe3\x81\x8f\xe3\x81\xaa\xe3\x81\xa3\xe3\x81\x9f\xe2\x80\xa6\xe4\xbb\x8acollege\xe3\x81\xa3\xe3\x81\xa6\xe6\x9b\xb8\xe3\x81\x91\xe3\x81\xaa\xe3\x81\x8b\xe3\x81\xa3\xe3\x81\x9f\xe3\x81\x97'
p11
aS'@jurchenli sa uste ka mag ka-college? \xf0\x9f\x98\x8a'
p12
aS"@pal36 It's a dental college where people have a lot of sex."
p13
aS'@ShaaEya hahahahahahahahaha tahu pun haih geram je kyna nak jumpa wardah pun pyh pdhal satu college'
p14
aS'San ka mag aaral sa college? @clairybels @zyrabelleA'
p15
aS'#Shop #ForRent in front of Polytechnic college, #AmbarnathEast #Thane #Commercial #Property'
p16
aS'@lgillamac meeeeee... jk\n\nambot tinuod ba, 1st year college na xa... graduated frm SC'
p17
aS'Praktek hari ini #instagood #friend #college @ Lab Beton FT UNJ'
p18
aS'Monastery college. Evening classes for #monks #spiritual #tibet #magic #allshadesofred @ Sera Monastery'
p19
aS'Sampe rumah keingetan tes "sharia bangking college" tadi. Ya Alloh semoga hamba termasuk hamba yg beruntung masuk seleksi rekrutmentnya.^_^'
p20
aS'@marvinosilva soon kapag college na ako \xf0\x9f\x98\x83\xf0\x9f\x98\x83\xf0\x9f\x98\x84'
p21
aS'\xe2\x80\x9c@sbkinshicho: \xe3\x80\x8c\xe6\x8b\xa5\xe6\x9c\x89\xe5\xae\x8c\xe5\x96\x84\xe7\x9a\x84\xe5\xb0\xb1\xe4\xb8\x9a\xe6\x94\xaf\xe6\x8f\xb4\xe5\x88\xb6\xe5\xba\xa6\xe3\x80\x8d\n\n\xe3\x80\x8c\xe6\x9c\x80\xe7\x9f\xad3\xe4\xb8\xaa\xe6\x9c\x88\xe5\x8f\xaf\xe5\xb0\xb1\xe4\xb8\x9a\xe3\x80\x8d\n\n\xe5\x90\x91\xe6\x82\xa8\xe6\x8e\xa8\xe8\x8d\x90\xe7\xa7\xbb\xe5\x8a\xa8\xe9\x80\x9a\xe4\xbf\xa1\xe4\xb8\x9a\xe7\x9a\x84\xe4\xba\xba\xe6\x9d\x90\xe8\x82\xb2\xe6\x88\x90\xe5\xad\xa6\xe6\xa0\xa1Mobile college of Japan\xef\xbc\x88\xe7\xa7\xbb\xe5\x8a\xa8\xe7\x94\xb5\xe8\xaf\x9d\xe4\xb8\x9a\xe5\x8a\xa1\xe6\x95\x99\xe8\x82\xb2\xe5\xad\xa6\xe9\x99\xa2\xef\xbc\x89\n\n\xe5\xad\xa6\xe7\x94\x9f\xe3\x80\x81\xe7\xa4\xbe\xe4\xbc\x9a\xe4\xba\xba\xe3\x80\x81\xe4\xb8\xbb\xe5\xa6\x87\xe3\x80\x81\xe7\x95\x99\xe5\xad\xa6\xe7\x94\x9f\xe5\xa4\xa7\xe6\xac\xa2\xe8\xbf\x8e\n\n\xe8\xaf\xa6\xe7\xbb\x86\xe5\x86\x85\xe5\xae\xb9\xe6\xac\xa2\xe8\xbf\x8e\xe9\x9a\x8f\xe6\x97\xb6\xe5\x92\xa8\xe8\xaf\xa2\xe2\x80\x9d \xe6\x80\xa5\xe7\x9c\xbc\xe4\xba\x86\xe5\xb0\xb1\xe6\x89\xbe\xe8\xbf\x99\xe4\xb8\xaa\xef\xbd\x9e'
p22
aS'@jhezbaldeo diin ka ma college? :)'
p23
aS"I'm at Brickfields Asia College - @baccollege (Petaling Jaya, Malaysia) w/ 2 others"
p24
aS'\xe2\x80\x9c@ecaahhhhh: @iekafarisha ika tadi ada tak pergi Forever 21??\xe2\x80\x9d Ieka dekat college lagi ni. Hahaha'
p25
aS"@callmemariah_  I didn't even know you were leaving for college \xf0\x9f\x98\xad\xf0\x9f\x98\xad"
p26
aS'Bahala ako an pirmi sugu-suguon ngari. Swerte na kaayo ko sa akong kinabuhi nga nakauban nako akong mama sa whole college life nako.'
p27
aS'esok last sblm dia balik college'
p28
aS'@YSKIHolic ESA UNNES present #ESAWEEK2014 for JATENGDIY high school-college students. klik'
p29
aS'#certificate #of #student #exchange #at #sirindhorn #college #of #publichealth #khonkaen # teddybear\xe2\x80\xa6'
p30
aS"Mom: Sou had so called reunion at college mates' wedding did any guys ask for ur number?"
p31
aS'Nugassss! #stan #college #friend #task @ Komisi Pemberantasan Korupsi'
p32
aS'Yaaay. 16 na ko sa 8 hahaha college na ba yon \xf0\x9f\x98\x82\xf0\x9f\x98\x82\xf0\x9f\x98\x82'
p33
aS'@thekiranbedi more than 30 students from different city r enable to participate in election as voter due to college submission on 28,29,1/5'
p34
aS'Fontana later with old college friends \xf0\x9f\x98\x82'
p35
aS'#CongJawabDo Tushar Chaudhary,why have you stopped NCPCL donating 10 cr for an engg college sponsored by Govt of Guj ?.'
p36
aS"well, lets say we're going back to our college times while doing on the job training here ^^"
p37
aS'@RH_Afterdark first week of college, quite a lot to do. end of the month, no money urgh'
p38
aS'Farewell in college :)'
p39
aS'Study or take a selfie?? \xf0\x9f\x98\x8f\xf0\x9f\x98\x8f #asian #indonesian #boy #girl #college #video @ McD Jombor'
p40
aS'First day of work and I already miss college (@ Springfield)'
p41
aS'@tylahlaaah Good, haha. Eyy your school won. Where you going for college?'
p42
aS'best ler orang tu dah balik subang, I ni still terhegeh hegeh lagi kat college hmm'
p43
aS'Reunited and it feels so good #lol #college siomaiko beambiiiii @chelsest @karlylenavea\xe2\x80\xa6'
p44
aS"Yeah finally we're done kem .. time back college .. @ Kem Sungai Buluh"
p45
aS'No college tmr'
p46
aS'@yvoonneyy :(( Busy. Graduating eh :( bawi soon. Kapag may free time sa college. Lunch tayo yung group natin :))'
p47
aS'Reunion dinner with college peers, Rhett and Lyka.'
p48
aS'\xe2\x80\x9c@joycepring: #BalangAraw gr-graduate ka din \n\n:p\xe2\x80\x9d sana 3 years lng ako sa college \xf0\x9f\x8e\x93'
p49
aS'@Osis_KD ESA UNNES present #ESAWEEK2014 for JATENG-DIY high school-college students. klik'
p50
aS'#my #bike #honda #unicorn #150cc #awesome #ride #college #campus #parking #sunny #day #sunnyday\xe2\x80\xa6'
p51
aS"With Ate and her college friends. I'm just a tag-along. Really shouldn't have come. But Ate needs company going ho..."
p52
aS'@danieldebid San ka mag college? \xf0\x9f\x98\xac'
p53
aS'last minute gathering with my college dearest friends.. #vacay2014 #philippines #7days #MSUans\xe2\x80\xa6'
p54
aS'@KeytReid Matgal pa. Graduation ng college. Haha! Saya no? -.-'
p55
aS'@smpn13Yk ESA UNNES presents #ESAWEEK2014 for JATENG-DIY high school-college students.'
p56
aS'UMass, Lowell. Haggu score. Haggu college. Haggu website. Kya chutiyaap hai yaar.'
p57
aS'At \xe4\xba\x9a\xe6\xb4\xb2\xe5\x9b\xbd\xe9\x99\x85\xe5\x8f\x8b\xe5\xa5\xbd\xe5\xad\xa6\xe9\x99\xa2 (asia international friendship college) \xe2\x80\x94'
p58
aS'@rahulraja1987  And we differ in our views about relationships since college days  right? @PreetiNyaynite'
p59
aS"Sige ra'g hangyo sila mommy na diri sad aw mag college si ate sa first sem. Hahaha palargaha na na ninyu my uy! I love being the only child\xf0\x9f\x98\x8b"
p60
aS'I am japanese \xe3\x83\xbd|\xef\xbd\xa5\xcf\x89\xef\xbd\xa5|\xe3\x82\x9e \nI started Twitter!\nI would like to carry out linguistic study.\nI became a college student~~'
p61
aS"Someone's trying to ruin my college life. But hey, imma get out of here!"
p62
aS'This used to be my everyday lunch when I was in college. Oh that to-die-for sauce! AKIC days will\xe2\x80\xa6'
p63
aS'Lalala taknak pergi college esok . Alang alang dah cuti , baik sambung sampai ahad'
p64
aS'@suplorraine woooh yes puks!!!! Salamat salamat\xf0\x9f\x98\x98 miss yaw! Galingan sa college yes goodluck!!\xf0\x9f\x98\x9b\xf0\x9f\x98\x8a'
p65
aS"One of those I'm-bored-so-let-me-take-a-selfie kind of day. \xf0\x9f\x92\xa9 #selfie #college @ Emirates Aviation\xe2\x80\xa6"
p66
aS'21 days until my first day of college...'
p67
aS'@bieberharries aww i do suck ! Im going to college and i never experienced having a boyfriend . Ok i got it! Justin is meant for me. Joke!'
p68
aS'Ilya buat onar sedih kt ws group. Pastu semua tak layan aku. Tidur ah. Taknak p college esok. Nak quit.'
p69
aS"Lunch with college mates! (@ Nando's)"
p70
aS'@Yloraster goodluck sa college life ate dana!! go for it ;) maabot mo ma dreams mo :* missyou all, take care always xx'
p71
aS'@eds_uny ESA UNNES presents #ESAWEEK2014 for JATENG-DIY high school-college students. klik'
p72
aS"Gossiping with my sister while browsing her college's yearbook."
p73
aS'Iba talaga naiisip ko pagdating sa college eh.'
p74
aS'All of the English teachers in my college are so firm in marking the exam papers .\nBut my grades were really unexpected ! Thanks teacher :)'
p75
aS'me and mom talking kung saan ako mag ka-college'
p76
aS'Felt like college all over again \xf0\x9f\x8d\xad @ Corinthians Garden'
p77
aS'"@mieerulls: @afzanazhar_ @afzanazhar_ hostel la rumah aku gombak"Oh .kau blaja kt college ape ?'
p78
aS'It just like very stupid. When I reach college and you tell me the class is canceled'
p79
aS"I'm at Technology College Sarawak (TCS) - @techcollegeswk (Kuching, Sarawak)"
p80
aS"Shakey's with my Hs Friends and some True college friends on my birthday! \xf0\x9f\x91\x8d Sorry sa iba wala na budget! \xf0\x9f\x98\xb1"
p81
aS'@PsikologiUNS ESA UNNES presents #ESAWEEK2014 for JATENG-DIY high school-college students.'
p82
aS'@Oooooscarousel #college :) HAHHA'
p83
aS'Kalau dapat resident college macam dalam pitch perfect .... haihhhh'
p84
aS'my niggas @ The Otomotif college'
p85
aS"Tomorrow, i will going to my 'kampung' in the morning and going back to the college in the evening :)"
p86
aS"I'm at Brickfields Asia College - @baccollege (Brickfields, WP Kuala Lumpur)"
p87
aS'@yuricaunca Diet ... And college :)) haha see ya around taft !!'
p88
aS'Starting packing for college life \xf0\x9f\x98\x94'
p89
aS'#reunion #college #friends #ffl #instacollage #picoftheday #Route04 #food #shisha #lovedit @ Route 04,\xe2\x80\xa6'
p90
aS'May na \xf0\x9f\x91\x8f omg. Nalalapit na ang college life \xf0\x9f\x99\x8a'
p91
aS"Arts Fusion'14 \xe2\x99\xa1 @ \xe2\x98\xba yishun junior college \xe2\x98\xba"
p92
aS'@SMPN8YK ESA UNNES presents #ESAWEEK2014 for JATENG-DIY high school-college students.'
p93
aS'Kaylangan ko na pla bagong boy bestfriend sa college! Nag retire na yung dati LOL'
p94
aS"si mama ba ipa carpool dw ghapon ko pag portyir, basig naa pd syay balak pacarpool'on ko hantud poryir college? HAHAHAHAHAHAHA\xf0\x9f\x98\x84"
p95
aS"Don't quit. Just celebrate the ride. :) Ganyan dapat sa college.\xf0\x9f\x98\x82\xf0\x9f\x98\x82\xe2\x9c\x8c"
p96
aS'\xd8\xa8\xd8\xb7\xd9\x88\xd9\x84\xd8\xa9 \xd9\x82\xd8\xaf\xd9\x85 \xd9\x86\xd8\xb9\xd8\xb3\xd8\xb3\xd8\xa7\xd9\x86\xd9\x87 \xf0\x9f\x98\x82\xe2\x9a\xbd\xef\xb8\x8f (@ Jubail Industrial College | \xd9\x83\xd9\x84\xd9\x8a\xd8\xa9 \xd8\xa7\xd9\x84\xd8\xac\xd8\xa8\xd9\x8a\xd9\x84 \xd8\xa7\xd9\x84\xd8\xb5\xd9\x86\xd8\xa7\xd8\xb9\xd9\x8a\xd8\xa9 - @irjubailcollege)'
p97
aS'@intarbe let me introduce you to the next level of hell- college/university'
p98
aS'Nagpm sakin ung Kabet ng asawa ng Tropa ko na classmate ko dati nung college.. should i tell her na asawa ng tropa ko kinakalantari nya? TLW'
p99
aS'My babyy is gonna cry missing her college friends :/'
p100
aS'Hardy the best Cornerback college football.'
p101
aS'@exoternal wow ok. Kainis nga eh kasi kung di dahil sa kto12 edi college na ko in two years huhu'
p102
aS'Felt just like college all over again with these two. My college family \xe2\x98\xba\xef\xb8\x8fMissing dodongrain and\xe2\x80\xa6'
p103
aS'@are_pear hahaha okay then fird. Rindu college ke rindu orang ? Hahahaahha'
p104
aS'\xe2\x80\x9c@molozsobong: \xe2\x80\x9cCan we skip this whole \xe2\x80\x9ccollege\xe2\x80\x9d thing &amp; go to the part where i have a really awesome job &amp; spend all my time traveling?\xe2\x80\x9d\xe2\x80\x9d'
p105
aS'@_patriciadmngz basi. Last euta gd daun to before college dayss'
p106
aS'Heavy rain, stuck in college~~~'
p107
aS'A dude in my college bring this to skul \xf0\x9f\x98\x82\xf0\x9f\x98\x82\xf0\x9f\x98\x82\xf0\x9f\x98\x82'
p108
aS'After palaro, ang feelin na "omg college na ako". Huhuhu'
p109
aS'i got new friend ! haha memang best pergi berjaya college ! i love my new friend !'
p110
aS'\xd8\xa7\xd8\xae\xd8\xaa\xd8\xa8\xd8\xa7\xd8\xb1\xd8\xa7\xd8\xaa \xd9\x85\xd9\x88\xd8\xb3\xd9\x85\xd9\x8a\xd8\xa9\xf0\x9f\x99\x8b (@ Buraydah college)'
p111
aS'Wohooo! National holiday tomorrow. Wanna buy a new backpack for college! #wishlist'
p112
aS'This is shit \nBut Astungkara lulus ! (at indonesia college) [pic] \xe2\x80\x94'
p113
aS'Epic #girlsnightout ! Never mind the back-to-college #music! #TheBigNasty'
p114
aS"PDL work is like morals'. But in college, we can't lie in the portfolios lol"
p115
aS'\xe2\x80\x9c@alonggggggg: Yang tak bestnya dah masuk college evrydy nk kena fikir nak pakai baju apa #Typical\xe2\x80\x9d takyah pakai'
p116
aS'Marami rin pala samin, magkaklase pa rin sa college !! :)'
p117
aS'My cousin would be there on the 6th-9th, my bestfriend 6th-10th and my college friends on 10-12th!!! Wahhhh! I want to be with all of you!!'
p118
aS'@CeciliaaaTalks Of course not. Hahaha. But parents going bkk on June. \xf0\x9f\x98\xad\xf0\x9f\x98\xad But I start my college liao that time.'
p119
aS'\xe2\x80\x9c@leonardoxdeasis: @fonfonclick kk good got me scured\xe2\x80\x9d SCURED for college'
p120
aS'"@TOIEducation: Mizoram to get its first medical college soon'
p121
aS'H-5 \nShit ! (at indonesia college) \xe2\x80\x94'
p122
aS'@Jogja_Uncover ESA UNNES presents #ESAWEEK2014 for JATENG-DIY high school-college students.'
p123
aS'@angelicoleen uh oo ngae!! Thank you gaga!! Sama ka sa youth camp lol Gala tayo sa college please!! Sweaaar miss you!! Love youu!'
p124
aS'@micapili september pa pero im gonna go there may 7 then bck here then goo na hehe. pls pray for me to find a college \xf0\x9f\x98\x81\xf0\x9f\x98\x81'
p125
aS'Bute pa yung iba may sched na for college. Ako magtetest palang. Makuha ko kaya results kinabukasan? Haha sana.'
p126
aS'#candid #flowers #iphone #photography #college #campus #clicks #pesit #focus @ PES University'
p127
aS'@ellroitalavera joke lang. TIP siya :) Hahaha. Good luck sa college! :)'
p128
aS'@herchellim kaya yan. sa college ka na lang balik para free na haha'
p129
aS'Ganahan na lage ko mag college'
p130
aS'@LoveMOOKoo yung cmate ko nung college bhe n trying n rakista. Nakakasuya! Ubod ng yabang'
p131
aS'"joy" omg mukha syang college lang hahaha'
p132
aS'Masarap sa feeling ang grumaduate ng college pero masakit sa feeling pag wla kang nahanap na trabaho o hndi ka nareregular #WorstFeelingEver'
p133
aS'@iamnursemucky Axel college na sa dlsu. Manolo HS at Lsgh'
p134
aS'@clairefxmetalx Now I am a undergrad computer engineer, college junior. You?'
p135
aS'Lol want carpool to college??? come pay me transport feee XD'
p136
aS'graduate ka na ng college sana marunong ka na mag isip!!'
p137
aS'@Jarpum @eclectictweets Arunachal deserves a medical college.Up the ante.It will go a long way in uplifting the health standards in ur state'
p138
aS'@haaaaafiz_ Alright bro. Tp aku bukan tiap tiap hari ada dkt sana ahh. Aku study jb je dkt austin sana. Sunway college'
p139
aS"#ThrowbackSaturday My college days wouldn't be amazing without you, guys. I love you both #EvaCarillo\xe2\x80\xa6"
p140
aS'Change name na ko sa college. Hahaha.'
p141
aS'@wawa_swift international islamic college . Kat gombak . Hmm minat nursing tapi tak dpt . Tapi Alhamdulilah okay .Course akak ni interesting'
p142
aS'@Raprafito wala solo nalang ako lol kamusta college apps mo?? :))'
p143
aS'"@alyonsss: kinakabahan ako mag-college \xf0\x9f\x98\xad\xf0\x9f\x98\xad\xf0\x9f\x98\xad" ano course mo'
p144
aS'i still dont know what study i will take in college after graduating from high school'
p145
aS'Before Going to college \xf0\x9f\x93\xb7\xf0\x9f\x91\xa7\xf0\x9f\x92\x8b\xf0\x9f\x92\x95 xixixiii'
p146
aS'@kleyowmari Hihi. Labyutoo :)) Oyy. Goodluck sa college :) Lol. Kahit masyado pang maaga. :P'
p147
aS"#FactAboutMe\nI have to deal with incompetents each and everyday at school.\nI'm glad this'll change next year for me though; joining college."
p148
aS'First day of college tomorrow! Having mixed feeling now. May everything goes well, night night :)'
p149
aS'@kimxzy_JE ang sa tupad city college?'
p150
aS'@EykaZailani kolej tu.. dekat jugak..hahaha.. apa nama college tu.. tak pernah nak tau..'
p151
aS'Stop thinking about her, focus of college, work and purpose of life'
p152
aS'@Qpmp13 next topic! Hahaha, sa college nalang nakakatamad kasi lalo na pag 4th year dyosko haha! 5 ata? Talino nun eh :))'
p153
aS'@KYLMRTN sn k mag college ate?'
p154
aS'Maradana college of technology. Loving this ancient architecture. I took a quick picture coz I never\xe2\x80\xa6'
p155
aS'rindu moment masa dekat berjaya college tadi ! rindu kawan baru !'
p156
aS'Ten years ago, #Facebook was launched, #Friends ended, and we graduated from college. #UPDiliman'
p157
aS"You missed your college life if you don't get drunk and wasted! -@adrianagbon Woo worth it 730 class"
p158
aS'@KrissyMontejo wala e sa college yan na yung motto hahahahaha'
p159
aS'My retrospective regret is palpable that I never read Watchmen back in college when it was lent to me. What a great book.'
p160
aS'Masuk kelas basah kuyup memang seronok. Dah lah sejuk beku dalam kelas ni (@ Brickfields Asia College - @baccollege)'
p161
aS'If assumption is the mother of all fuckups, this college has a problem'
p162
aS'"You can\'t make anyone fall in love with mere words!" I exclaimed. Then I realised, I had just contradicted my four years of college life.'
p163
aS'Gala tmrw with college friends! \xf0\x9f\x91\x8d'
p164
aS'Graduate na crush ko ng college eh XD'
p165
aS'NYP - KPK Peace Confrence at Khyber union Hall Islamia college Peshawar. All youth are requested to join us.'
p166
aS'@kyrazyl @forgottentracks eh plz lake more worst then me before his college starts'
p167
aS'Penang people all died. And my stupid college give naisss semester break la when the rest busy w their college. Dying of boredom kkk.'
p168
aS'Di bali tourism college dde.. kls brp skrg ? "@ThugusGuna: @aiuu_YoureY dimana kuliah k ? nyari info*"'
p169
aS'Finally home after a long long day in college'
p170
aS'At college west ones again officiating the H2o match . Zzzz'
p171
aS'the college student, wuyifan:('
p172
aS"\xe0\xb9\x80\xe0\xb8\xa2\xe0\xb9\x87\xe0\xb8\x99\xe0\xb8\x94\xe0\xb8\xb5 (@ \xe0\xb8\x95\xe0\xb9\x89\xe0\xb8\x99\xe0\xb8\x88\xe0\xb8\xb2\xe0\xb8\xa1\xe0\xb8\x88\xe0\xb8\xb8\xe0\xb8\xa3\xe0\xb8\xb5 (The Prince Royal's college))"
p173
aS"It's really hard staying on a workout schedule whenever studies &amp; college consumes my life. It has been so messed up! Sigh \xf0\x9f\x98\x9e"
p174
aS'"@imdendelmundo: freshmen in college be like: \nfriend: ano sched mo? \nme: ewan ko, di ko ma-gets eh." relate :)'
p175
aS'Post zorb ball photo with college thesismates! \xf0\x9f\x99\x85\xf0\x9f\x99\x86\xf0\x9f\x99\x8c @ Zorb Park, Boracay'
p176
aS'#MayWishes college and job! Wish me :)'
p177
aS'\xd9\x85\xd8\xad\xd8\xa7\xd8\xb6\xd8\xb1\xd8\xa9 \xd9\x88\xd8\xad\xd8\xaf\xd8\xa9 \xf0\x9f\x98\x8c\xf0\x9f\x92\x85 (@ college of science PNU (A3) w/ 5 others)'
p178
aS'Puhhhrty last night with my college barkada! \xf0\x9f\x92\x97 Thank you for the treat @angelxxvi \xf0\x9f\x98\x98 love you girl!!\xe2\x80\xa6'
p179
aS'"@DrakeTakeCare12: I want a high school relationship that ends in marriage." Okay na sakin mag-start sa college relationship! Hahahaha'
p180
aS'"becak,becak tolong bawa saya"\xf0\x9f\x98\x8b\xf0\x9f\x8e\xa4 (with bernadetha at gedung bellarmino loyola college) [pic] \xe2\x80\x94'
p181
aS'ruwet jdnya kamis hahaha"@_fitriaokta: Hahaha, jadi gimana urusan your college? RT @_Hanoey: Bukan lah enak aja"_'
p182
aS'Wow we ARE going to college after summer ends.'
p183
aS"I'm at Sri Jayachamarajendra college of engineering w/ @prashanthar7"
p184
aS'#MayWishes Study well and making more new friends in my college life \xf0\x9f\x91\xac\xf0\x9f\x91\xad'
p185
aS'My college life is complete. Ultimate achievement \xf0\x9f\x98\x81\xe2\x9c\x8c\xef\xb8\x8f Selfie with Doc M. Booyaaaa! \xe2\x9d\xa4\xef\xb8\x8f College is\xe2\x80\xa6'
p186
aS'#me #friend #college #daysout #sunday #world #lantern #beautiful \xf0\x9f\x98\x8d\xf0\x9f\x98\x8d @ Summarecon Mall Bekasi'
p187
aS'@GeorginaDivaa "can we skipthiswhole college thing andgo straightandgoto thepart whereI have a realy awesomejob andspend allmytime traveling'
p188
aS'@smagitabahari ESA UNNES present #ESAWEEK2014 for JATENGDIY high school-college students.'
p189
aS'#college day a mass day. Full of entertainment. Dance,water and rest one day finished'
p190
aS'@_callmeJoey college girl elsa!!! wc me: faithrecio mwa'
p191
aS"Feeling sad when i'm gonna back college.. \xf0\x9f\x98\xad"
p192
aS'MT "@DrTonyWagner: New company offers bootcamp for recent college grads to reduce the 44% underemployment rate.'
p193
aS'What we do when we bored #sunset #college #girls #friendship #princess @rizkanurdianish @ Upn Veteran\xe2\x80\xa6'
p194
aS'@nblhmht @FitrahKasih_ alaa ajim kat college taty kat qumahhh hujannnn \xf0\x9f\x98\xbf'
p195
aS'Overnight swim with college friends. @ Brizo Morong Bataan.'
p196
aS"@erikacrabara @thecarlomagtaas @peterfunx Erika, believe me. I'm the smallest incoming first year college ever. Ask Darren! Haha. :("
p197
aS'Bakit ang nga college friends ko hindi marunong gumimik? Or marunong sila pero ayaw nila. Answer me pls, hi guys.'
p198
aS'Masa-wrap.\xf0\x9f\x98\x8b My favorite shawarma since college days.\xf0\x9f\x90\xae\xf0\x9f\x8d\x80 @ Magboul Shawarma'
p199
aS"@Being_Heena ya that's so bad.. How's college life going ?"
p200
aS'This library is too impressive. So high end and shiit like wow this is how a college library should look. UOG, why you no improve? \xf0\x9f\x98\x93'
p201
aS'@DiowDante haha joke lang. In coming 2nd college :)'
p202
aS"Is it weird that I'm more excited about #littleinfinities than college (Tickets, my fingers are still crossed, hoping our stars are also.)"
p203
aS'@toomuchofjez college student na college student. Hahahaha \xf0\x9f\x91\x8a\xf0\x9f\x99\x8c'
p204
aS'Pray for our college team. At least we can go for the quarter final or if Allah give us chances we\xe2\x80\xa6'
p205
aS'I have yet to find an organization in college that respects and appreciates its members and applicants'
p206
aS'\xe2\x80\x9c@Farini_R: N permohonan college dah boleh check ke??? Anyone? Hello??\xe2\x80\x9d Belum'
p207
aS'no net... (@ Micronet international college)'
p208
aS'Getting bore at college ....'
p209
aS'@kashew_knot @POTpotassium @deeepfroZEN anu college ba maraming maganda dun? Lahat ata? Ahaha.'
p210
aS'There is nothing like hanging out with college buddies .. Simply awesome !'
p211
aS'@SMP9yk ESA UNNES presents #ESAWEEK2014 for JATENG-DIY high school-college students.'
p212
aS'@CelrestLing boooo come my college soon!'
p213
aS'RT "@EssentialFact: A study has found that the first two years of college are basically useless."\n\nthat really sums up everything.'
p214
aS"Unhealthy? ? Who caaares!!?? (@ AVIATION Training college's restaurant (7th floor))"
p215
aS'#AngSayaSiguro kung kayong mag b-bestfriends nung highschool, classmates parin sa college \xf0\x9f\x92\x94'
p216
aS"Axel's cute! But Manolo's just. ARGH!!!\n\nOkay. Now I'm excited for college!\n#PBBALLINDay4"
p217
aS'started activities again .... the spirit of college'
p218
aS'@mekaylagraham fallacy? Does it look like I went to any type of college?!'
p219
aS'First day in college. LOL :p (at President University Student Housing B12) \xe2\x80\x94'
p220
aS"It's likely I've been saw my past with her, with the one I had loved before I get college, yeah she is my junior W.A."
p221
aS'Awesome night got to see some of my college friends again. \xf0\x9f\x98\x86\xf0\x9f\x98\x86'
p222
aS'The good girls went silent on me, they got a bf or went to college on me'
p223
aS'@maLEEEYAAAAN @CountOfLegoLand @Paparicoooo lol xD kame pa! Tapos mamaya nasa MI nanaman xD hahaha ano kaya mangyayare skin sa college xD'
p224
aS'@rafdelatorre college ka na huhu time flies'
p225
aS'Baket bigla akong na excite mag college ngayon? Hmmm.'
p226
aS'@camilleeeeyyy Bayaaan ! Macapagal ho Ate. manila doctors college pangalan dati.'
p227
aS'#bored #campus #college #nutritionstudent #picoftheday @ Ruang Tutorial 311 FIKES UPN'
p228
aS'Morning :D #asian #girl #selfie #selca #hijab #college #instalike #instaphotos #hijabfashion #latepost\xe2\x80\xa6'
p229
aS'sugad pag tungtung nakog college nawala rag kalit ang lupang hinirang ug panatang makabayan sa akoa'
p230
aS'Plans for college. \xe2\x99\xa5'
p231
aS'Working out in college outfit. Bring back sweet memories. \xf0\x9f\x98\x82\xf0\x9f\x98\x82 @ IKIP Gym'
p232
aS"Final day of my college life. It's been the best 3 years spent at this institution. Met great people,\xe2\x80\xa6"
p233
aS'@herchellim ay wala haha akala ko kilala mo sila haha :(( =))) pero di yan. Onting kembot malang, college ka na be :*'
p234
aS'Meet @faeznick my best friend at college. #OneMoreRepCrew ! all the best bro!  Im glad to meet you too\xe2\x80\xa6'
p235
aS'Beyond grateful that I got to get to know you as both a college professor and a friend. Thank you for\xe2\x80\xa6'
p236
aS'Har jaga medical college khul gaya hai #WhatIAmObservingNowADays'
p237
aS'@SMPN3YK ESA UNNES presents #ESAWEEK2014 for JATENG-DIY high school-college students.'
p238
aS"You know you're missing your college days when you don't remember the last movie that you had seen."
p239
aS"Can't really imagine what matriculation kids feel rn as tonight is their last night in college. I feel you. Just, live it to the fullest ok!"
p240
aS"I'm at Brickfields Asia College - @baccollege w/ @navinaramani"
p241
aS"Missin' college life. Missin' FEU. Good morning! @ Far Eastern University"
p242
aS'Esok bertolak pagi lpstu terus gerak college..Insyaallah'
p243
aS'@maaaaaics engineering ka kc! hahaha xD isa lng akin college algebra'
p244
aS'@ThumbelYnaah Oo naman. Kaso not now. Busy na kase 4 sa college life eh. Pag available ako tsaka ikaw! Punta tayo! Nakachat na ata kita dte?'
p245
aS'#jeddah #college #alghad_college #\xd9\x83\xd9\x84\xd9\x8a\xd8\xa9_\xd8\xa7\xd9\x84\xd8\xba\xd8\xaf #\xd8\xac\xd8\xaf\xd9\x87 #\xd8\xaa\xd8\xb5\xd9\x88\xd9\x8a\xd8\xb1\xd9\x8a @ \xd9\x83\xd9\x84\xd9\x8a\xd8\xa9 \xd8\xa7\xd9\x84\xd8\xba\xd8\xaf \xd8\xa7\xd9\x84\xd8\xaf\xd9\x88\xd9\x84\xd9\x8a\xd8\xa9 \xd9\x84\xd9\x84\xd8\xb9\xd9\x84\xd9\x88\xd9\x85 \xd8\xa7\xd9\x84\xd8\xb5\xd8\xad\xd9\x8a\xd8\xa9'
p246
aS"@roymarionj haha 1st yr college ko sinabihan ako ng masyado ako madrama. Kaya nawalan nako ng emotion :'("
p247
aS'Post birthday celebration with college friends! \xf0\x9f\x98\x98 (@ Cafe Laguna w/ 3 others)'
p248
aS'good life in college  #MayWish'
p249
aS'Man yall think the real world is all fun and games. I cant wait for some of you to get out of college \xf0\x9f\x98\x82*spiraling airplane* BOOM! Crash &amp; \xf0\x9f\x94\xa5'
p250
aS'"@carmeloman5: I swear the NBA playoffs feels like a college bracket. No team is safe!"'
p251
aS'@VanMochi_Elf I study at High school.. and I not have college exam. *^*'
p252
aS'@ZainBernard kans..nasib I tak sama college ngn u...abis nnti u...hahahhaa'
p253
aS'@JoanPends ke nagsaliwan akon angkas e. an mabusag, and an kulot. patod ko an mabusag. tita an kulot. haha . 3rdyr college ad2 gna kulot'
p254
aS'@Dibaydibayn uy chura naman natin jan haha jk thank you dibs! Labyu and miss you! Hohol sa college!!'
p255
aS'Welcome, May! Can I go home? Or somewhere else where I can forget Semarang&amp;college&amp;task for a while?\xf0\x9f\x98\xaa'
p256
aS'@kxireyes @AltheaFelice shet college na tayo  w t f'
p257
aS'That day when i entered lecture at #college I found words on the desk says "you have destroyed 5 years of my life " ..'
p258
aS"I'm at college of science PNU (A3)"
p259
aS'Atmi cup (at Michael college) \xe2\x80\x94'
p260
aS"After today then no more morning McD before college! (@ McDonald's)"
p261
aS'@abby_torrillo asa ka mu college abby? :-)'
p262
aS'Thanks to my lovely college sbb buat event nie. Reaallllyyyyyyyyyyy appreeeciateeeeeeee'
p263
aS'@Diannavinz about college lang sana makapasa na ako xD uyy baka pumunta ako dyan sa 4 mga ganun'
p264
aS'@SMA_PaPurworejo ESA UNNES present #ESAWEEK2014 for JATENGDIY high school-college students.'
p265
aS'Lunch date with our former college teacher. :)\n\n#BonChon #Thursday #LaborDay @ BonChon Chicken, UP\xe2\x80\xa6'
p266
aS'dlu kolej aq UTC unifield teknology college skunk UIC unifield international college.. dah faham kan!'
p267
aS"I get it, you're in college, but some of y'all drink more than marines. Take it easy people."
p268
aS'@SMPN12YK ESA UNNES presents #ESAWEEK2014 for JATENG-DIY high school-college students.'
p269
aS'Best milo made in this college \xf0\x9f\x91\x8d\xf0\x9f\x99\x8c'
p270
aS'@juniorisbeast They just keep on coming, where you headed for college?'
p271
aS'@itsmr_jaspher magfourth year college pa lang ako sa pasukan hahaha!'
p272
aS'@Reesya_ wahh awal sampai . Btw lama tak nampak college . Mana nak ajak lepak lagi sekarang kan . Tahu aa da ade boipreng !'
p273
aS'@veevien_vivie95 owh ok. I go college 1st'
p274
aS'1 of my favourite of my college days #MainDewaanHua by my all time favourite @abhijeetsinger \xf0\x9f\x92\x96\xf0\x9f\x91\x8d  '
p275
aS'Thats how my brakes going #brake#college#uos#laying#lazy#nike#outfit @ Sharjah University'
p276
aS'@sman9yk ESA UNNES presents #ESAWEEK2014 for JATENG-DIY high school-college students.'
p277
aS'\xe5\x93\x87\xe8\x80\x81!\xe5\xb0\xb1\xe7\xae\x97gay\xe6\x88\x91\xe4\xb9\x9f\xe8\xa6\x81\xe8\xaf\xb4\xe4\xba\x86!\xe4\xb8\x80\xe8\xb5\xb7\xe4\xb8\x8a\xe8\xaf\xbe\xe4\xb8\x80\xe8\xb5\xb7\xe8\xa1\xa5\xe4\xb9\xa0\xe4\xb8\x80\xe8\xb5\xb7\xe5\x81\x9a\xe5\xb7\xa5\xe7\x9a\x84\xe5\x8f\x8b\xe6\x83\x85! \xe6\x9c\x89\xe5\x85\xb1\xe5\x90\x8c\xe8\xaf\x9d\xe9\xa2\x98, \xe4\xb8\x80\xe8\xb5\xb7\xe5\x88\x86\xe4\xba\xab\xe5\xbf\x83\xe4\xba\x8b! \xe5\xa6\x88\xe7\x9a\x84! \xe4\xbd\xa0college\xe6\x88\x91form6\xe5\x95\x8a! \xe4\xb8\x8d\xe4\xb8\x80\xe6\xa0\xb7\xe5\x81\x87\xe6\x9c\x9f,\xe6\xa0\xb9\xe6\x9c\xac\xe8\xa7\x81\xe4\xb8\x8d\xe4\xb8\x8a\xe9\x9d\xa2! \xe5\x95\x8a\xe5\x95\x8a\xe5\x95\x8a\xe5\x95\x8a!!\xe7\x9c\x9f\xe8\x88\x8d\xe4\xb8\x8d\xe5\xbe\x97! \xe6\x9c\x80\xe5\x90\x8e\xe8\xbf\x98\xe8\xb7\x9f\xe6\x88\x91\xe8\xaf\xb4\xe6\x88\x91\xe6\x98\xaf\xe4\xbb\x96\xe5\x94\xaf\xe4\xb8\x80\xe7\x9a\x84\xe5\x85\x84\xe5\xbc\x9f! \xe8\xbf\x99\xe7\xa7\x8d\xe5\x85\x84\xe5\xbc\x9f\xe6\x83\x85! \xe8\xa7\x89\xe5\xbe\x97\xe6\x88\x91\xe4\xbb\xacgay\xe7\x9a\x84, \xe6\x88\x91\xe4\xbc\x9a\xe6\x9b\xbf\xe4\xbd\xa0\xe4\xbb\xac\xe5\x8f\xaf\xe6\x80\x9c!\xe5\x85\x84\xe5\xbc\x9f \xe4\xbf\x9d\xe9\x87\x8d!'
p278
aS'#tb Yesterday at college west ^^ @ College West'
p279
aS'@Osis_SMA ESA UNNES present #ESAWEEK2014 for JATENG-DIY high school-college students. klik'
p280
aS'Janji-MU selalu tepat dan indah pada waktuny! Thank You GOD!\xf0\x9f\x98\x84 #college #senasib #seperjuangan @\xe2\x80\xa6'
p281
aS'Yang tak bestnya dah masuk college evrydy nk kena fikir nak pakai baju apa #Typical'
p282
aS'Want my baby to hurry up and finish college @larcameron \xf0\x9f\x91\xaf'
p283
aS'fieqa bengang wifi college lembab .'
p284
aS'\xd8\xb5\xd8\xa8\xd8\xa7\xd8\xad\xd9\x8a \xd8\xa7\xd9\x86\xd8\xaa\xd9\x90 \xd9\x8a \xd8\xaf\xd9\x82\xd8\xa9 \xd8\xae\xd9\x81\xd9\x88\xd9\x82\xd9\x8a \xd9\x88\xd9\x86\xd8\xa8\xd8\xb6\xd8\xa7\xd8\xaa\xd9\x87 \xe2\x99\xaa\xcc\xa0\xe2\x9d\xa5 @ omw 2 college\xf0\x9f\x98\xad'
p285
aS'#smile #me #selfie #friends #college #institute #technology #fish_eye #bb #iphone5s #makkah #jeddah\xe2\x80\xa6'
p286
aS'haih I really hope that I get to finish my job as soon as possible!! at least before entering college! aaahh this is so stressful haha'
p287
aS'Hay, college ka na @GrldAln ang bilis ng panahon. Parang dati lang kalbong totoy ka pa. Goodluck sa college life tol pati kay C! Hahaha \xf0\x9f\x98\x8b\xf0\x9f\x98\x82'
p288
aS'@Geelloooo you me at six tsaka we are the in crowd lang. Yoko na mahal sayang money tsaka busy sa college haiszxt hahahahah'
p289
aS"I'm at Ibn Sina National College | \xd9\x83\xd9\x84\xd9\x8a\xd8\xa9 \xd8\xa7\xd8\xa8\xd9\x86 \xd8\xb3\xd9\x8a\xd9\x86\xd8\xa7 \xd8\xa7\xd9\x84\xd8\xa3\xd9\x87\xd9\x84\xd9\x8a\xd8\xa9 - @ibnsina_college (Jeddah, Western Province) w/ 50 others"
p290
aS'\xe2\x80\x9c@Qieserraleyn: Rindu normal college life uwaaaaaaa !\xe2\x80\x9d'
p291
aS'@faridamzar otomotif college, PJ'
p292
aS"@xaaanshine ehehe. It's for college okay. \xf0\x9f\x98\x8a"
p293
aS"Goodbye Ilo-Ilo for now! \xf0\x9f\x91\x8d\n#iloilo :))\n\nIll be back soon when I'll enroll for college. \xf0\x9f\x91\x8c\xf0\x9f\x98\x81 @ Iloilo\xe2\x80\xa6"
p294
aS'@aljnblrxD HAHAHA ang bilis kasi parang kelan lang Nag mimix ako ng cocktail ! ngayon college na xD'
p295
aS'\'Anung gusto niyo? After college mag aasawa na kayo? Napakawalang silbi niyo naman. Patayuhan niyo muna ng masion mga magulang niyo"'
p296
aS'@Igiwhosoever Haha. Enjoyin ang college life! Kelan ka pala akyat ng Baguio? Tagal na natin di nagkikita!'
p297
aS'Group activity during tutorial class. The other 5 members missing \xf0\x9f\x98\x85. #college #friends #tutorial\xe2\x80\xa6'
p298
aS'Do the hagoood! \xf0\x9f\x98\x82#HappyNationalBestFriendsDay My bff since day 1 in college!!! \xf0\x9f\x98\x98\xf0\x9f\x98\x98 i love u babe!!! \xf0\x9f\x98\xbb@biancabibingka'
p299
aS'They say that #college would be #fun, #freedom, #excitement and full of #joy. #Nonsense.\xf0\x9f\x98\x92'
p300
aS'\xf0\x9f\x98\xad\xf0\x9f\x92\x94\xf0\x9f\x92\x94\xf0\x9f\x92\x94 (at college of eduaction - KSU- AlDiriyah) \xe2\x80\x94'
p301
aS'@Shooting4Christ where you playing college ball??'
p302
aS'#islamia #college #lucknow #india #pole #instagood #instagram #instafresh #picoftheday #bestoftheday @\xe2\x80\xa6'
p303
aS'Not shur if officemates or hs/college friends hahaha! \xe2\x9d\xa4 you friends, super! Repost from eenamoo \xf0\x9f\x98\x98 @\xe2\x80\xa6'
p304
aS'Being a good girl and went to college on my day off to work \xf0\x9f\x98\x8c (@ College of Fine Arts &amp; Design - @uniofshj)'
p305
aS'@mohammadshmalka  TOGAF Training course at MOICT 2014  Thanks to our  college Mr Ala Dandees'
p306
aS'Doing task at the wrong place, lol :p #task #college #garden #vacation @ Floating Market, Lembang'
p307
aS'ayoko na uli mag college d na ulit ako naeexcite hahaha tambay nalang ako!'
p308
aS'@GueIex Aba college na tlga no? Hahha ewan ko ganun sched nila e'
p309
aS'@CelrestLing boooo I can go there everyday after college starts :p'
p310
aS'Dinner w the college pals tonight \xf0\x9f\x91\xad\xf0\x9f\x91\xab @miahmataba @RizelleHdz'
p311
aS'Throwback-ing with my big bukton. I look like Nadine Lustre "Taba Edition" XD #PE #firstyear #college\xe2\x80\xa6'
p312
aS'"@mieerulls: @afzanazhar_ kolej baru. Go Google and search for it. Putra intelek international college" ohh okay hee \xf0\x9f\x98\x8a'
p313
aS'"@FactsOfSchool: Money can\'t buy happiness? \n\nFalse. \n\nGetting my college paid for would make me happy."'
p314
aS'@faridcyberx heheh . Tula dtg la college awal Lain kali . :)'
p315
aS'@itspaulavalle Mae maganda! pang college name HAHAHAHA'
p316
aS"@ChooiLiiing everything's good \xf0\x9f\x98\x8a how are you??? Long time since I heard from you \xf0\x9f\x99\x88 I'm in sunway college doing ausmat. \xf0\x9f\x98\x8a"
p317
aS"Early morning but I must goes to college !!! I've last exam today,\nProgramming !!!  Wish me luck xx"
p318
aS'2 college \n\n\xd9\x88\xd8\xaf\xd8\xa7\xd8\xb9\xd9\x8a\xd9\x87 \xd9\x8a\xd8\xa7 \xd8\xa7\xd8\xae\xd8\xb1 \xd9\x84\xd9\x8a\xd9\x84\xd9\x87 \xd8\xaa\xd8\xac\xd9\x85\xd8\xb9\xd9\x86\xd8\xa7 \xd8\xa8\xd8\xa7\xd9\x84\xd9\x83\xd9\x84\xd9\x8a\xd9\x87 \xe2\x98\x85'
p319
aS'#TwitterKaPehlaDin college k pehlay din k jesa tha :p'
p320
aS"Overnight at Karina's crib with college barkada \xf0\x9f\x91\x8f @anaabeee @Karina_lovesU @justinepowl Danielle, Angel. Kasi umuwi agad si @bocx_pot \xf0\x9f\x98\x82"
p321
aS'@EDBERTisement ????? Daw amu man na ngalan sang crush ko sa college Bert nga CRUSH mo man gali ...hahahhaha sino na gani pares ni batman ???'
p322
aS"@ItsTanesTwipz I'm fine bro. Same here bro. How's college bro?"
p323
aS'Pergi college pakai jubah harini .hehee'
p324
aS'Those days were the best days..missing college life..'
p325
aS'Just posted a photo @ axis college, rooma'
p326
aS'Thank you Aunties and Uncles! #kNOwcleanersday #itecollegewest #itecw @ ITE College West'
p327
aS'If only I could skip s2 and s3 then straightly go to college #impossible          #existenceOf #SPM'
p328
aS'@SMAN7YK ESA UNNES presents #ESAWEEK2014 for JATENG-DIY high school-college students.'
p329
aS'Best friends are the ones who keep in touch with u when they go away to college, no matter how busy\xe2\x80\xa6'
p330
aS'Wala ba kayong pinag-aralan?! Graduate pa naman kayo ng college! SIMPLENG MANYAK!!!'
p331
aS'Hahah haw! \xf0\x9f\x98\x82 #library #funny #words #mistake #indian #college #errors #instafunny @ Knowledge\xe2\x80\xa6'
p332
aS'Releasing exam stree at college :-D #friends #xperia #cool #funny #summers #awesome #liketofollow @\xe2\x80\xa6'
p333
aS'Farewell party pic with shadeking93 \xe2\x99\xa5 lost the count of pics of us together :p \n#college #farewell\xe2\x80\xa6'
p334
aS'This is what I like to see from my #students #school #college #math #jeddah #ksa #exams @ Effat\xe2\x80\xa6'
p335
aS'Finished the first year of my college life unofficially.... : D'
p336
aS"I'm excited for college and I know I'm gonna regret saying this in the future"
p337
aS'"@FactsOfSchool: "It\'s the remix to ignition, college student edition. I eat poptarts for dinner, I can\'t afford my tuition.""'
p338
aS'@auhcesined college life is fun,  sad and not easy sometimes .hehe.. just focus... go go go!'
p339
aS'@IzzuddinRz @HilmiShahrom otomotif college, PJ'
p340
aS'@syakirkamis after dah survey college dgn si yuthi. Nk betul2 siasat background college da kali ni'
p341
aS'Bwd slideshow for presentation \xe2\x96\xa0 (@ Lh3 poly-tech mara college,)'
p342
aS"So much power, so much responsibility...and its only college. What will I become if i can't handle the load now...God help me."
p343
aS'Ano pong magandang backpack for college?'
p344
aS'\xf0\x9f\x98\x92\xf0\x9f\x92\x94 (@ Inaya Medical college w/ 3 others)'
p345
aS"I can already work &amp; end this college life. But I still want to hold on to my dream of becoming a people's lawyer, just like grand pa. :("
p346
aS'@diksbjr1996 haha no college ta yehi padhne ho'
p347
aS'Life used to be so much easier before college..'
p348
aS'Besokk senin|college is begining| &gt;\xc2\xa4&lt;'
p349
aS'Driving in Sharjah when going to college completely turns my mood around \xe2\x98\xba\xef\xb8\x8f\xe2\x9d\xa4\xef\xb8\x8f #iloveshj'
p350
aS'@HeyyNada Family dramas. &lt;/3 Matagal-tagal pa bago ako makapuntang Davao, baka maggrad muna ko ng college XD maganda ba diyan? :"&gt;'
p351
aS"I'm at Ibn Sina National College | \xd9\x83\xd9\x84\xd9\x8a\xd8\xa9 \xd8\xa7\xd8\xa8\xd9\x86 \xd8\xb3\xd9\x8a\xd9\x86\xd8\xa7 \xd8\xa7\xd9\x84\xd8\xa3\xd9\x87\xd9\x84\xd9\x8a\xd8\xa9 - @ibnsina_college (Jeddah, Western Province) w/ 16 others"
p352
aS'@ptrcnnfjs Ahhh. Buti college kana. T^T abot ko ang k to 12 ehh!'
p353
aS'NEW FRIENDS SOCIETY at N.H.24 next to Bankey Bihari dental college GHAZIABAD.#ResidentialPlot #Land #ForSale #Dasna'
p354
aS'@nynanyna ohyeke..haha. Kau msk college mana der?'
p355
aS'Starting June magbabasa na ako! :)  Ready for college! :) Paunahang mabaliw sa course ko.'
p356
aS'11:11 makaya college'
p357
aS'@SyanieBalkish amboiii dont tipu tipu meee ahaha . budak college kau eh ?'
p358
aS'Imprint...Back to where we did notorious things! (@ nagindas khandwala college)'
p359
aS"Two exams at college tomorrow, on a Sunday. And yet, got back an hour ago from a lovely evening at K-Circle. Ah. C'est la vie."
p360
aS'"@hashtag_qwerty: Yeess nmaaaan!!! College na siya!!!! Hhahah!!! @unnicorn_" Oo nga! Grabe. Akala ko di nako makakapag college.'
p361
aS'My grammar is better than a 22 year old who graduated college.'
p362
aS'\xe4\xb8\x80\xe7\x9b\xb4\xe4\xbb\xa5\xe4\xbe\x86\xe7\xa6\xae\xe6\x8b\x9c\xe5\x9b\x9b\xe4\xb8\x8d\xe6\x98\xaf\xe6\x88\x91\xe5\x80\x91\xe7\x9a\x84\xe6\x97\xa5\xf0\x9f\x99\x85 #\xe7\xa6\xae\xe6\x8b\x9c\xe5\x9b\x9b #\xe8\xa8\x8e\xe5\x8e\xad #hate #Thursday #bad #emotion #rainy #sleepy #ew #young #college #student\xe2\x80\xa6'
p363
aS'@psychhee thaaanks ate guen!!! *u* wuv u too *bear hug* hang out in college? (anlayo ko tho huhu) HAHA'
p364
aS'@ceejxdeej anokaba! Pag college na tayo fangirling overload na! \xf0\x9f\x98\x82\xf0\x9f\x98\x82'
p365
aS'#100HappyDays #Day10 (Double digits!)Obsessively read all day, chatted w/mommy,did some banking&amp;writing for college&lt;3'
p366
aS"I'm at Ibn Sina National College | \xd9\x83\xd9\x84\xd9\x8a\xd8\xa9 \xd8\xa7\xd8\xa8\xd9\x86 \xd8\xb3\xd9\x8a\xd9\x86\xd8\xa7 \xd8\xa7\xd9\x84\xd8\xa3\xd9\x87\xd9\x84\xd9\x8a\xd8\xa9 - @ibnsina_college (Jeddah, Western Province) w/ 11 others"
p367
aS'@scottie_Jayy shit me too. If you can try to get in with a college rotc program... grt your degree,  and commission.'
p368
aS'Safely arrive at #uitmlendu ! Oh my god ! The college is totally awesome ! So now begin our journey to\xe2\x80\xa6'
p369
aS'Nakakamiss naman college friends ko. -.-'
p370
aS'Ang naa sa akong huna huna karon kay college'
p371
aS'@kevinwouldsay @aisuhcunanan \nThe college life is fun\xef\xbc\x81\nI want to become 20 years old, too\xef\xbc\x81\nHaha'
p372
aS'May you Rest in Peace Tita Alfreda! Thank You for being part of our college life!\xe2\x9b\xaa\n\nWe are always here\xe2\x80\xa6'
p373
aS"@jiaaweii22 How awesome if there's another Jiawei in my college. \xf0\x9f\x98\xad"
p374
aS"Hungryyyyyyy (@ AVIATION Training college's restaurant (7th floor))"
p375
aS'Kalau tak bersalah, mai kita dok setable, bincang. Tapi tak main la kalau dkt college, hostel kan ada'
p376
aS'@winphong ya no college but I get \xe4\xb8\x8d\xe5\x88\xb0HAHAHAHA'
p377
aS"@tylahlaaah Can't believe im repeating 4th yr. Why did i had stop school. Eyy finally a friend whos not leaving guam for college. Haha"
p378
aS'@imAujanLovely @imcristina_08 Kashock naman pag ganun. Nagstop sanda it college? Kaya naman pala dineactivate ni Flaierth ung fb niya.'
p379
aS'@zyrabelleA @clairybels naks. Hahahaha aruuy. Mag be braintrain ka or college review?'
p380
aS'With Mohamed at Med-college Library \xe2\x80\x94'
p381
aS'#fishes #fish #pond #water #stones #grass #college #asac #work #students #work #instapic #instatime\xe2\x80\xa6'
p382
aS'Simula 2nd year hs sila na kaso hanggang 2nd year college lang sila sayang matagal din yun'
p383
aS'@jhoycepalacio14 @imkatekaaat nope incoming college palang ka graduated ko lang e'
p384
aS'@SMPMUH3YK ESA UNNES presents #ESAWEEK2014 for JATENG-DIY high school-college students.'
p385
aS"I remind my parents to love me, even if I don't get into college, on a daily basis."
p386
aS'First Check in In my college..... lolz \xf0\x9f\x98\x89\xe2\x9c\x8c\xf0\x9f\x91\x8d (@ SES  Sollege Of Engineering)'
p387
aS'@Jenovi6 same here. So many assignments and college stuffs until no time to catch up all the new series \xf0\x9f\x98\xa9'
p388
aS'How come that my ex bf, a former college blockmate, and a kpop acquaintance, is following my mom on Instagram? Hahahaha whatda.'
p389
aS'Sitting in the college library all chilled with legs on table. :p Just missing a warm cup of green tea.'
p390
aS'@Swathi1096 u mean into christ college?'
p391
aS'1 more month of summer shet u college life huhuhu in dire need of decent school'
p392
aS"I'm at Jubail Industrial College | \xd9\x83\xd9\x84\xd9\x8a\xd8\xa9 \xd8\xa7\xd9\x84\xd8\xac\xd8\xa8\xd9\x8a\xd9\x84 \xd8\xa7\xd9\x84\xd8\xb5\xd9\x86\xd8\xa7\xd8\xb9\xd9\x8a\xd8\xa9 - @irjubailcollege (Al Jubail, Eastern Province) w/ 4 others"
p393
aS'So i have go to college tomorrow'
p394
aS"@sheenamaeeeee hahaha. You're still young mas marami pang challenges and conflicts this college :)"
p395
aS'@maikhss college tska org. Hahaha. Sa clep. :)'
p396
aS'@varmanic miss ayyav bro nijanga chala manchi college OU ki KCR ki sambandam ledu ala anukuntunnaru janalu antha hyd is not equal to KCR'
p397
aS'Good bye selangor matriculation college!'
p398
aS'@TanushreeParama ohhh in arab  so today is college'
p399
aS'I am a college student'
p400
aS'Those college photos, this is where they may end up.'
p401
aS'@PinJieTeee in the college library :) im hungry'
p402
aS"so so grateful for the new friends i've made and the old friends i've kept since i started college. i don't think i say or show it enough"
p403
aS'ESA UNNES presents #ESAWEEK2014 for JATENG-DIY high school-college students. klik'
p404
aS"@leyahguarino i don't simulan mo hahaha san ka mag college?"
p405
aS'Final day of my college life. Came here thinking I would hate this place but Im leaving here with a\xe2\x80\xa6'
p406
aS"I'm at Ibn Sina National College | \xd9\x83\xd9\x84\xd9\x8a\xd8\xa9 \xd8\xa7\xd8\xa8\xd9\x86 \xd8\xb3\xd9\x8a\xd9\x86\xd8\xa7 \xd8\xa7\xd9\x84\xd8\xa3\xd9\x87\xd9\x84\xd9\x8a\xd8\xa9 - @ibnsina_college w/ @njood_n9_aldnya"
p407
aS'prepare before comeback.. to college\xf0\x9f\x8f\xa2 (at BP2IP Mauk Tangerang) \xe2\x80\x94'
p408
aS"I'll probably have a hard time getting into college because of my excessive absences and poor grades \xf0\x9f\x98\x82\xf0\x9f\x98\x82\xf0\x9f\x98\x82\xf0\x9f\x98\xad\xf0\x9f\x98\xad\xf0\x9f\x98\xad"
p409
aS'@MUPATupdate ESA UNNES presents #ESAWEEK2014 for JATENG-DIY high school-college students.'
p410
aS'@DonBoskoSMG ESA UNNES present #ESAWEEK2014 for JATENGDIY high school-college students. klik'
p411
aS'Went to two museums today with my college mates to do some research for assignment #vscocam @ National\xe2\x80\xa6'
p412
aS'@imprncssc ganun? Sa lahat talaga? Hahaha sige try naten yan sa college'
p413
aS'Feel bored at the Library. Hahahaa ^^v #bored #library #breaktime #college @ Universitas Surabaya (UBAYA)'
p414
aS'Should i go to college tomorrow hmmm'
p415
aS'@GorgeouShine Huh? Bat ang bata mo pa para mag college ate ko?'
p416
aS"Packing packing,...there's so much I need.. Not ready to go to college... Hurmmmm.."
p417
aS'@scottt_1096 bro sat college study ?'
p418
aS"@luhanbliss Nah its impossible to get noticed by him (: and he's college im a high schooler.. He's hamdsome and im not even that pretty (:"
p419
aS'Because today was a reminder of how our parents have worked so hard to help us through college. Thank\xe2\x80\xa6'
p420
aS'@MargoScrlt ahh ^.^ incoming 1st yr college :) taga san ka? :)'
p421
aS'Officially graduated from college today! Huzzah!!! @ University of the Philippines'
p422
aS'@apriljoysantos tama! \xf0\x9f\x98\x85 pano pag mga ganun kaklase mo sa college! :O'
p423
aS'@NawarAmnah mesti lah best. Best engineering college in malaysia lah katakan..haha.'
p424
aS'@Veronica_Allysa oh. Sa public school lang ako nag-aaral sa Antipolo. Pinsan ko kasi mag ka-college na. Rich kid ka pala. :))'
p425
aS'"@JustinGueco_: college na ko di ako makapaniwala hays" pano pa ko sa height palang wala ng naniniwala hahahaha \xf0\x9f\x98\xad'
p426
aS'@nabilahshahidan college support kot sbb g under college hehe'
p427
aS'Tutoring a college aged boy is really awkward'
p428
aS'The long lost Party Partner back in college! Finally! Natuloy din \xf0\x9f\x98\x81\xf0\x9f\x98\x81 More to come! @tridims \nP.S.\xe2\x80\xa6'
p429
aS'can we skip this whole \xe2\x80\x9ccollege\xe2\x80\x9dthing and go straight and go to the part where i have a really awesome job and spend all my time traveling?'
p430
aS'Di pa umuuwi si ate, baka siya naman di makagraduate ng college. Lagi na lang late kung umuwi. Hayynakuu'
p431
aS'"Can i skip this whole \xe2\x80\x9ccollege\xe2\x80\x9d thing and go straight to the part where I have a really awesome job and spend all my time traveling?"'
p432
aS'Heading to Binondo Church w/ college friends. My first time visit. Happy Sunday!\xe2\x98\xba\xef\xb8\x8f'
p433
aS'@limapawitikra ESA UNNES presents #ESAWEEK2014 for JATENG-DIY high school-college students.'
p434
aS"bought some stuffs for my college just now. aaaaa it bring tears to my eyes even when I imagine of staying in college without my family :'("
p435
aS'@IAmIKrisman ok dei pick me up after college \xf0\x9f\x91\x8c'
p436
aS'@IzzatRfan @ArifRosnan hmm dah strt college :( arip Ada interview enn nanti ?'
p437
aS"In the need of cat presence why can't we pet some at college why why why"
p438
aS'@Raprafito awww too bad men :(( di mo makikita kung pano ako magiging awesome sa college :( sayang bro pero hangout parin tayo ahh'
p439
aS'@herchellim nah goodgirl ako b haha jk jk balik ka pag college mo!'
p440
aS'Magkakaroon ng kasagutan lahat ng tanong ko, pagkagraduate ko ng college :")'
p441
aS'Super late lunch with my college friends. I missed you all. Si jesssjasmin lagi nang nandito so hindi\xe2\x80\xa6'
p442
aS'@ChrlnChie haha, malay mo sya pa din mag choreo sa cba. Hahaha Masyado nya mahal ung college natin. \xf0\x9f\x98\x8d'
p443
aS'Back to college @ City One'
p444
aS'V (@ Parking (college of science))'
p445
aS'Good time :) #college #friends @ Hakata Ikkousha - Senayan City'
p446
aS"I'm at padmavati juniors college"
p447
aS'Spent another tradition but this time, with my college buddies. Ang saya saya lang. Ang late lunch\xe2\x80\xa6'
p448
aS'Lingawa sa graduation sa college oyyyyy'
p449
aS"Can't believe my college professors have actually filled the online recommendation form."
p450
aS'@WahyuRamli kesiannn hahahah org g college makin keding ko kot makin kembung muahaha'
p451
aS'@SMPN6YK ESA UNNES presents #ESAWEEK2014 for JATENG-DIY high school-college students.'
p452
aS'@hunnuuuuh ohw hehe \xf0\x9f\x98\x81 i dont have a college yet lol'
p453
aS'@ManifestCup ESA UNNES presents #ESAWEEK2014 for JATENG-DIY high school-college students.'
p454
aS'Yey graduate na ako next year then college life na ^-^'
p455
aS"Is it weird that I'm more excited about #littleinfinities than college? (Tickets, my fingers are still crossed, hoping our stars are also.)"
p456
aS'@MaryGyleM ning graduate naman diay kag college. :))'
p457
aS'Semoga bener semua berawal dari kelas ini \nDan kami semua lulus \nAstungkara (at indonesia college) [pic] \xe2\x80\x94'
p458
aS'Batangas weekend with some of my college best buddies \xf0\x9f\x98\x81\xe2\x9c\x8c\xef\xb8\x8f @ Secret Place'
p459
aS'Have a nice weekend every body \xf0\x9f\x98\x98\xe2\x9d\xa4\xef\xb8\x8f\xe2\x98\xba\xef\xb8\x8f @ Alghad college'
p460
aS'I miss my college friends :('
p461
aS'@ralphanthony04 si paul! hahah gn mangkot yko kun may ma dulong skon mg college. mbl ko ako nlg nhuya mn kocollege na mapadulong pko'
p462
aS'@sedes_memory ESA UNNES present #ESAWEEK2014 for JATENGDIY high school-college students. klik'
p463
aS'@iamsaiha keto tu aku tgl shah alam laa. . Dengan barang kt college aku'
p464
aS'@SeputarPwdd ESA UNNES presents #ESAWEEK2014 for JATENG-DIY high school-college students.'
p465
aS'@sma_mardisiswa ESA UNNES present #ESAWEEK2014 for JATENGDIY high school-college students.'
p466
aS'@mashal1144 my frnd gave me all old letters tht v xchanged during our school n college days. These lengthy leters remind me of gud old days'
p467
aS"I AM SO DAMN LATE FOR SIMEONE LEGNO'S AUTOGRAPH SIGNING! I am one of his ultimate fan since college\xe2\x80\xa6"
p468
aS'@hananananahfaye so excited na ka mag-college? hehe. :))'
p469
aS'#mi batters r goin in middle same as v used to go to college; "for sake of attendance"\n#DDvsMI #PepsiIPL'
p470
aS'Nung HS ako promise ko sa college meron na dapat ngayong college nako promise ko naman sa proper na talaga... #SanaNaman..:('
p471
aS'@SMPN15YK ESA UNNES presents #ESAWEEK2014 for JATENG-DIY high school-college students.'
p472
aS'I should have gone to fucking college.'
p473
aS'Ayoko pa mag college.\nMasarap pa sa bahay.'
p474
aS"I'm at college of information and computer science"
p475
aS'Well seriously i wanna go to college, im sick of ma class, Full of backstabbers, Spies and sceamers (Except some of them)'
p476
aS'Natatae ako pag iniisip kong magka college nako :('
p477
aS'Bosannyaa environment college ni.'
p478
aS'Sila ayos na college papers and files tas June-ish pa classes nila, ako last week of May na waley pa rin na aaccomplish. DLSU pls. Huhuhu'
p479
aS'@CelinaJaitly Major Mukund spent a few years in Mhow and served as an instructor at Infantory college Mhow. RIP.'
p480
aS'\xe2\x80\x9c@clippefuentes: "ano imo kwaon mag-college?"\nme:kwarta\xe2\x80\x9d \xf0\x9f\x98\x82'
p481
aS'@Alfrink @TheRawGamer1998 your courses in college are taught in English ?'
p482
aS'Boba do you want me to look like a community college adjunct or the son of a former ambassador?\xe2\x80\xbd (it  always works)'
p483
aS'bc nag tambay kami last night with college barkada tapos ga pinalak inom akon migo....kundi nag sululuka sa kag hubog2 =))))) gaga eh \xe2\x9c\x8c\xef\xb8\x8f\xf0\x9f\x98\x81\xf0\x9f\x98\x81\xf0\x9f\x98\x81'
p484
aS"So I've worked out that between college assessments and the JLPT I'm basically stuck in intense exam prep mode for the next three months."
p485
aS'The college version of me just said, "NOOO FREAKIN\' WAYYYYYY!!!!" #ObamainKL #yseali @ University of\xe2\x80\xa6'
p486
aS'\xd8\xa7\xd8\xae\xd8\xae \xd9\x84\xd9\x88 \xd8\xa8\xd8\xa7\xd9\x8a\xd8\xaf\xd9\x8a \xd8\xa7\xd8\xae\xd9\x84\xd9\x8a \xd9\x83\xd9\x84 \xd9\x85\xd8\xad\xd8\xa7\xd8\xb8\xd8\xb1\xd8\xa7\xd8\xaa\xd9\x8a \xd9\x87\xd8\xa7\xd9\x84\xd9\x88\xd9\x82\xd8\xaa - to college (@ 6th Ring Road)'
p487
aS'@Deanenerzzzz ohhhh. Nice. Buti pa kayo my ginagawa para sa college nyo. Huhu.'
p488
aS'Magfifirst year college ka na hindi ka pa marunong magtama ng mga tenses mo jusmiyo'
p489
aS'@SasingUTY ESA UNNES presents #ESAWEEK2014 for JATENG-DIY high school-college students. klik'
p490
aS'@bridgzy hahahah kinakabahan na ako sa college \xf0\x9f\x98\xad\xf0\x9f\x99\x8f'
p491
aS'A strike In My college Today'
p492
aS'@smvlm wat college?'
p493
aS'I need some college life'
p494
aS'fast life for college students'
p495
aS'I chose skydiving in stead of college. #selfie #palmofDubai #fuckyeah'
p496
aS'Labor Day bowling with Kamote Kids and kids #college #friends #reunion @ Sm Bowling Center'
p497
aS"Freakjng don't bring your kids with you to college"
p498
aS'Heading back to college.'
p499
aS'Sudden meet up with an old college friend. :) (@ Gong Cha)'
p500
aS'Had a great night with my college mates!'
p501
aS'Excited to meet new friends in college, cause I know Im gonna gain new followers on IG *WINK \xf0\x9f\x94\xab'
p502
aS'Why are college principals telling students who to vote for? Tell them to vote. More than enough! Atleast leave fundamental rights alone.'
p503
aS'Selfie with my friend &amp; my teacher college after watching "JALANAN"... #selfie #friend #teacher #XXI\xe2\x80\xa6'
p504
aS'My college friends are having a great summer while meee... Nevermind! \xf0\x9f\x98\xaa\xf0\x9f\x98\xb6'
p505
aS'\xd9\x8a\xd8\xa7\xd8\xad\xd8\xb3\xd8\xa7\xd9\x81\xd8\xa9 \xd8\xa7\xd9\x84\xd9\x82\xd9\x88\xd9\x85\xd9\x87:) (@ Buraydah college)'
p506
aS'Sigh.. college start tml..'
p507
aS'Came to college to study till evening. Forgot to keep the new Game of Thrones episode on download. :( #FML #Bhulakad'
p508
aS'Abah.. Is that you abah.. Aku asyik jumpa abah je kat college.. Nak tgo takut abah marah.. Maklumla aku bkn anak laki.. \xf0\x9f\x98\x92'
p509
aS'We are bad \\m/ #friendship #friends #college #psychology @ Kos putri Dewi 2'
p510
aS'@UsernameNishta \nYaar tumhe koi toh Btaya hoga ke yeh important college waloon ne?'
p511
aS'Walaoooo sister thought I make up to college. Damn! -.-'
p512
aS'Sarap mag graduate na ng college whehehe'
p513
aS'Korean food pig out with the sister @renskiiee plus kwento on college memories is the way to go.\xe2\x80\xa6'
p514
aS'"@Charleaaaaa: Sana madami maging friends ko sa college" yayyyyy This.'
p515
atp516
Rp517
.