(dp0
S'benefit'
p1
c__builtin__
set
p2
((lp3
S"Having every Monday off college isn't that good because you don't really feel the benefit of bank holidays\xf0\x9f\x98\xa2\xf0\x9f\x98\xa2"
p4
atp5
Rp6
sS'cost'
p7
g2
((lp8
S"I've rented out a football pitch at Hitchin college tonite 6.45- 7.55 let me know if u would like to join, it's on 3G &amp; cost \xc2\xa35 (maybe less)"
p9
aS'"@rwang0: MyPOV: issue w/ student loan debt has to be the cost of college not loan forgiveness."&lt;both, fix old and prevent new errors'
p10
aS'R u guna mark the scores u have at college the day @robbielav me and some other lad leading on 27 pts at the minute, our 4th goal cost me ha'
p11
aS"@ritamcmarques @Scottish_Vines we can do it at college. U go up to costa and I'll be in the canteen!! #plan"
p12
aS'Rather be in work than go to this college costs a fucking fortune to even get the place'
p13
atp14
Rp15
sS'quality'
p16
g2
((lp17
S'Cant wait for college this week, quality time with all the fam is needed!'
p18
aS"Great west glam u11 session tonight, lots of quality and top attitude. Future's bright. 1st Mcc game tomorrow at Malvern college #\xe2\x9d\xa4summer"
p19
aS'Second exam done with. Some quality with the college bar is needed I think #PizzaBearAndSunshine'
p20
aS'The quality of people in burnley college makes me sick, woeful people all over show.'
p21
atp22
Rp23
sS'time'
p24
g2
((lp25
S'Why do we have to start college at 9 thats such an annoying time far too early'
p26
aS'@waddesdonbaz   Once, when I was driving back up to college, I drove past a red light. And as I did so, I turned just in time to see...'
p27
aS'got to college to do maths nd the.teacher wasnt there:/waste of time tbh roll on friday:)'
p28
aS'Been ontime to college about twice since I started'
p29
aS'@planetjedward Have an amazing time today in Roscommon!! Wish we were able to go but I have college and exams on Tuesday!! \xf0\x9f\x98\xa9 xx'
p30
aS"It's times of revision and impending exams that I wish I'd got a full time job after college"
p31
aS"I'm really nervous to get all my college work completed and handed in on time"
p32
aS'@shannonmundyxx nwahh sorry shann, I love having no college or anything on a Tuesday gives me time to catch up on sleep from the weekend aha'
p33
aS'@HelloGhostly im in college at that time tommorrow but free rest of week. Anyway myself,@CommanderX47, @Proxylexluthor an the other mods...'
p34
aS'The breaks I take from doing college work are way longer than the time spent doing college work'
p35
aS'I was such a bad student in college. Over the entire time I never had my priorities straight.'
p36
aS'Did not do anything for my college exams except check the timetable for it an hour ago'
p37
aS'Why does my mom complain. I didnt really drink till I was 19, I lost my virginity at 18, graduated high school on time,  in college. #model'
p38
aS"In the college bar. Some one has ordered a jacket potato, I can smell it. It's 10.20 in the morning. #notdinnertime"
p39
aS"How I even manage to get up and ready,out of the house and got to college on time I don't know\xf0\x9f\x98\x82\xf0\x9f\x99\x88"
p40
aS"@W4nkerrrrrr that's the earliest day I finish work hahah, I get home from college at the same sort of time um, can stay round Saturday nite"
p41
aS"I haven't worked 4 days in a row for a very long time along with revising every night .. I'm absolutely knackered #parttimer #aat #college"
p42
aS"First day back at college and I have to go in earlier than usual for an off timetable art lesson because I don't have a timetables one"
p43
aS'@CathyAbraham @beachcat11 @jennzia @TruDavidJackson I am a part time college professor (18 hrs/wk classtime) &amp;then Chair the rest of the day'
p44
aS"i have an interview today in college but idk where, or with who, i don't even think i know what time"
p45
aS"Any other time of the year I wouldn't be complaining about a day off college, in bed watching a movie but not 2weeks before exams\xf0\x9f\x98\x94\xf0\x9f\x98\xad\xf0\x9f\x93\x9a\xf0\x9f\x94\xab"
p46
aS"@ItssKirstyx_x Yaya :D, Hope you have a fantastic time &amp; tell me all about it ! I'm fine thanks, just working &amp; college really"
p47
aS'Last time I will be going to college at night for maths.... well I hope \xf0\x9f\x99\x8f #prayforme #tuesday #tooclose'
p48
aS"I always set off for college the latest on a Monday when that's the day I have the most time to get ready"
p49
aS"It's quite sad to think that I sometimes dread college because of the people there that make me feel like shit\xf0\x9f\x91\x8d"
p50
aS"but I'm currently doing a part time college course to achieve my goals! so it's not like I'm not doing anything with my life."
p51
aS'nahhhh this rain, added to that ive parked about 10 min away from college #usainbolttime'
p52
aS'so much college work. so little time. no motivation to actually do any of it. #screwed #shit'
p53
aS"It was impossible to get to college by 9 today like, by time a get in it'll be time to  go home"
p54
aS"Cba for college this week it's the first time I'm actually gonna go in about a month"
p55
aS'Nearly a month left of college before the summer, how time passes! #lifechangingyear#'
p56
aS'Iv made myself physically sick from anxiety levels. Fuck college tomorrow I swear no time for that bitch'
p57
aS'Cant actually remember the last time I was in college a full day.'
p58
aS"Haven't even noticed while I've been dead out asleep I've been told conor has popped back from college about two times o.o"
p59
aS'All time favourite moment of college. Simona went night night at mosaic on my birthday \xf0\x9f\x98\xad\xf0\x9f\x98\xad\xf0\x9f\x98\xad\xf0\x9f\x98\xad\xf0\x9f\x98\xad'
p60
aS"Decided that I'm just going to work full time for a year and get some money, then go to college the year after."
p61
aS'I have like 24 days left on college! I need to find a job within that time \xf0\x9f\x98\x82'
p62
aS'\xe2\x80\x9c@TheOfficial_Liz: No sixthform/college for you two tomorrow? @JenssJ_ @Toyosi_Raheem \xf0\x9f\x91\x80\xf0\x9f\x91\x80\xf0\x9f\x99\x87\xe2\x80\x9dlol were never on time anyway \xf0\x9f\x98\x82'
p63
aS'Having a really productive day done some housework less to do tomorrow next food time then college work'
p64
aS"I pick a bad time to stay up late till like 6am then sleep all day and I'm back at college tomorrow.(Monday)"
p65
aS'I actually made a daily routine for max so he can get to college on time from now\xe2\x98\xba\xef\xb8\x8f'
p66
aS"I'm now not able to do my college work as my laptop has died and spazzed out but if they were on time we would have done it"
p67
aS"I've spent like the whole time off college this week trying to do my plan for my graded unit &amp; can't do if for the life of me. I'm FUCKED."
p68
aS'I get more college work done at this time then at college \xf0\x9f\x98\x82'
p69
aS"Can't remember the last time I came in from college and did nothing \xe2\x9d\xa4\xef\xb8\x8f"
p70
aS'Morning all, time again for college :/'
p71
aS"Why do I think it's a good idea to be getting in at this time 2 nights in a row when I have college \xf0\x9f\x98\xa9\xf0\x9f\x98\xa9\xf0\x9f\x98\xa9\xf0\x9f\x92\xa4\xf0\x9f\x92\xa4"
p72
aS'Crazy to think that this time last year I had dropped out of college and was trying to find a job'
p73
aS"me and tash can't remember what time our college bus comes cause we never get it... that's bad"
p74
aS"@kodaline I'm spending my time at college watching the Brixton gig. I guess I should be working but I want to go back to seeing you guys \xf0\x9f\x98\x94"
p75
aS'5 week of college left if I get everything submitted in on time! Head down!'
p76
aS"Can't wait to get out of college, it's full of absolute clips who think they're big times, take off"
p77
aS'@DaniellaaMurray I so wanna go but I have no time till I finish college :('
p78
aS'college work? hahahaha...\n\nbath time \xf0\x9f\x98\xac'
p79
aS'Last time ever at college! YUS.  Unfortunately another year and a bit of my apprenticeship but still, Leamington Spa trips are D-O-N-E'
p80
aS'actually had a good day at college for the first time in fucking ages'
p81
aS"Can't wait for half term, hopefully get some decent time to spend with Lew, constantly working and have college lately\xf0\x9f\x98\x94\xf0\x9f\x98\x94"
p82
aS"It's so hard tackling college/coursework, work experience, driving, fundraising and my social life all at the same time #wornout \xf0\x9f\x98\xaa"
p83
aS'spending more time in college either for one more year or even two \xf0\x9f\x99\x88 oh well learn from your mistakes ayy'
p84
aS'Had 100% attendance at college this week for first time in months and now 4 day weekend ahead of me yayyyy feelin good'
p85
aS'@KimSzczotko @robyndeeedwards @FlorenceSewell what time do we start college tomorrow and what do we need taaaa bring?'
p86
aS'Sorry college, I need some me time \xf0\x9f\x99\x8b'
p87
aS'@tonieliza2 you actually got up for college on time?!'
p88
aS'@NathanGriffithx Love that! Atm between Hertfordshire &amp; Leeds &amp; college is calm, getting to that stressful time tho'
p89
aS'Hate it when I come to college and there is no reason for me to be in! Waste of time \xe2\x8c\x9a\xef\xb8\x8f\xf0\x9f\x98\x91'
p90
aS"If I had just handed in my bloody coursework on time I wouldn't even be in college till 2 tomorrow, instead I'm in at 9:15, why Sophie why\xf0\x9f\x98\xab\xe2\x9c\x8b"
p91
aS'@GeorginaHardin err yeah... Lol we have the time in the world george!! :) fuck college! Get pissed every weekend... Nay every day! :)'
p92
aS'The only free plug socket at college I can find is next to the bins in the canteen. Desperate times call for desperate measures.'
p93
aS"By the time I get to college I'm going to look like a drowned rat\xf0\x9f\x91\x8e"
p94
aS"Lost the motivation for my college course a long time ago, don't want to go back \xf0\x9f\x98\xa9"
p95
aS'I swear every time I actually want my college attendance to stay at 100% I become really ill'
p96
aS"me and tash can't remember what time our college bus comes cause I never get it... that's bad"
p97
aS'Last college night out.. Ever.. tonight\xf0\x9f\x99\x88\xf0\x9f\x98\xb3 Weird, time flies!! #SchoolsOut \xf0\x9f\x8e\x89\xe2\x9c\x8c\xef\xb8\x8f\xf0\x9f\x8d\xba'
p98
aS'Doing everything not to go to college today #sunbedtime'
p99
aS'This time next week I will have no more assignments to do for college. EVER.'
p100
aS'No time for this college today'
p101
aS'Getting freaked out every time i see someone that looks like @joeldarkes1 in college! \xf0\x9f\x98\x8d'
p102
aS'Last week in college poses a big struggle.. So much work to do but so much going out to do at the same time \xf0\x9f\x8d\xbb\xf0\x9f\x93\x9d'
p103
aS"Date through for my interview at college, it's all becoming real now! #excitingtimes"
p104
ag18
aS'@Tariq_Lachance and all time best college Marcus Allen'
p105
aS"@_k4tiesmith I'm at the college waiting for her, I've phoned her about 25 times and she's no answering"
p106
aS"@eoghandcasey did ya miss me? \nI'm on the way into college now, haven't a breeze what time the class is at."
p107
aS'Driving to college on my own for the first time is going to be scaryyy'
p108
aS'@Randjohnyanez well I hear hillsong live in general all the time bc I go to hillsong college.'
p109
aS"@SkinnerSophie I go into college on Monday and you go into placement \xf0\x9f\x98\xad have you not seen the email for you're timetable ?"
p110
aS'I can never get up on time for college -_-'
p111
aS"you don't get time to learn about the things you want to learn in college because you are too busy trying to remember the things to pass"
p112
aS'Home sweet home, 3:25.... Will be waking up in around 3 hours time for college :( night \xf0\x9f\x8c\x9c\xf0\x9f\x8c\x9b \xf0\x9f\x8c\x9d\xe2\xad\x90\xef\xb8\x8f\xf0\x9f\x98\xb4'
p113
aS"shit, i finish my first year of college in two months... where's the time gone!?!"
p114
aS"Orrrrrrrr coming into college to go over something we've done 84748484 times and then go home at half 11? What's the point in this? \xf0\x9f\x98\xa1"
p115
aS"@LaurenSparkles_ no I mean Leah is @g_mortimer's friend. Small world (Georgie went to my college)"
p116
aS"@sethbern @washingtonpost I thought nap time was college prep when a child's in kindergarten #timesarechanging"
p117
aS'Oh yeah got college\xf0\x9f\x98\x82  eurgh time to get up!'
p118
aS'Last day in Istanbul which means last day of my college career. Where has time gone!?'
p119
aS'Doing some massage while waiting for acting assessment #college #maddtimes #musical #theatre #acting\xe2\x80\xa6'
p120
aS"If I'm not at college I'm at work, never have any free time \xf0\x9f\x98\xa3\xf0\x9f\x98\xa3\xf0\x9f\x98\xa3"
p121
aS"Second time recently I've been trying too sort work out for college friends there's sod all going back round York."
p122
aS"It's funny how much my life has changed in a year! This time last yet I didn't imagine I would be at college! :o"
p123
aS"Playlist sorted now it's time to Put headphones on and let @LaceyOfficialUK and @PTPGOfficial get me through college"
p124
aS'I was just getting on the train to leave college, this time yesterday. Wow, I need to set an alarm.'
p125
aS'@EmmaWilliams16 Hi Emma yes of course you can if you are enrolled here. Ask next time you are in college.'
p126
aS"From next week I'll be working two jobs &amp; college full time still, why oh why \xf0\x9f\x98\xb4"
p127
aS"It's time to sleep ready for moulton college Tomoz \xf0\x9f\x98\xb4"
p128
aS"@ChrisSanClaire ...when at college in B'ham, s'times we didn't get off at our stop, stayed on no 11 all the way round, just 4 fun! Sad!"
p129
aS'@becgracedent our favourite things! Awww college times \xf0\x9f\x92\x9c'
p130
aS"You know it's a good day when you sleep in but still manage to put on a full face of make up straighten hair and get to college on time #win"
p131
aS'Good day \xf0\x9f\x91\x8f #college #passedmyexam now dinner and film time with my favourite \xf0\x9f\x98\x8d\xf0\x9f\x91\xab\xf0\x9f\x92\x95'
p132
aS'every time i have college work i get a sudden urge to clean the house instead'
p133
aS'college imorn for the first time in three weeks \xf0\x9f\x98\xa9\xf0\x9f\x94\xab #rollonsummer #rollontheweekend'
p134
aS'How many times do i need to repeat myself about fucking college!'
p135
aS'"@girlposts: If I had a dollar for every time someone spelled my name wrong, I could pay for college,a new car, and a mansion in cash."'
p136
aS"Can't believe in a months time I could be finished with college, qualified, 2 years hard work comes down to these next 4 weeks 0_o"
p137
aS'Yuck time for college -_- kill me now!'
p138
aS"@jadedavisxx I think it's time for you to actually start turning up to college!!"
p139
aS'How come during non-college days the 835 runs bang on time, as soon as @arrivamidlandsW take in back - late! 20 mins so far...'
p140
aS'So set an alarm for 7:30 so I can get into college on time but ended up putting on snooze until now'
p141
aS"Don't remember the last time I didn't get stuck behind something on the way to college \xf0\x9f\x98\xb4"
p142
aS'fridays in college are nothing but a waste of time, takes up precious sleeping time'
p143
aS'Absolutely waste of time at college today. \xf0\x9f\x98\x82\xf0\x9f\x99\x88'
p144
aS'I finish college at half four &amp; have to be at work by five, in that time iv got to walk home quickly get ready walk to work, not happening'
p145
aS'I never end up going in college on time, to much to do #busybusybusy'
p146
aS'Would love to go back to college! Was to sick \xf0\x9f\x91\x8c full time work kills me'
p147
aS"Don't know what's wrong with me but to be honest I quite enjoy college sometimes lol"
p148
aS'Getting up for college a has screwed me over big time\xf0\x9f\x91\x8a'
p149
aS'So relived I got my college form in on time, so unorganised \xf0\x9f\x98\x85'
p150
aS'Nearly college time.'
p151
aS'I literally spend 80% of my time at college waiting to use machines that people are already using'
p152
aS"I'm kinda like a senior in college now #wheredidthetimego #ihaveabeard"
p153
aS'First time not having to wear a coat to college and I feel on top of the world.'
p154
aS'@coopersmama2010 I have college Mon morning &amp; all day Weds so Mon afternoon and Tuesdays are the best time for me. I can meet anywhere. :)'
p155
aS'Highlight of my life goes to Monnelly who unintentionally rugby tackled Phill in college, Cried several times and left with a sore stomach!'
p156
aS"Porn hub titles really lack depth &amp; imagination.. We know young college girl tries anal for 1st time.. But what's her major? Or her dreams?"
p157
aS'feel like i work full time and go college part time, not the other way round'
p158
aS"@Sidburn19 if I don't get my add year in college and I can find a fulltime job yup"
p159
aS'Seriously considering jus leaving college and getting a full time job, prefer that so so much, I no longer have any aspirations with art'
p160
aS'So much college work to do and so little time #failure'
p161
aS"@AdoreCaradele yep it's terrible haha! I have to like turn my Internet off in college  lol! Some times it's good other time it's boring!"
p162
aS"Cant believe I'm nearly at college at this time"
p163
aS"The time is 8 pm and I'm only now coming home from college. Awesome \xf0\x9f\x91\x8d"
p164
aS"Every time I'm dressed and on time for college the bus decides to be late\xf0\x9f\x91\x8a"
p165
aS"So I was going to be in college for an hour today 10-11. But now I have to see someone at 1:30 then at 2:15. AHHH. But I'm killing time"
p166
aS"Stupidly hungry. But don't even have time to eat. Work is such a blag after college\xf0\x9f\x98\xa1"
p167
aS'First time in the college library'
p168
aS"I'd like to thank college for sending me not my mum my exam timetable"
p169
aS'So relieved I got my college form in on time, so unorganised \xf0\x9f\x98\x85'
p170
aS'I must spend about 90% of my time at college in havant mcdonalds\xf0\x9f\x8d\x9f\xf0\x9f\x8d\x94'
p171
aS'Every time its my birthday ive either been at school and now at college.. when can my birthday be at the weekend?!'
p172
aS'Most stressful time of the college year \xf0\x9f\x98\xa2'
p173
aS"Why am I up at this time\xf0\x9f\x98\x94? Don't have to be at college till 1 \xf0\x9f\x94\xab"
p174
aS"I feel sorry for all the year 11's revising all the time, you just wait till college bae's"
p175
aS'Glad I finish college at 2:20 tomorrow, gives me time to pack my clothes for holiday and get ready for work! \xf0\x9f\x91\x8c'
p176
aS'Perfect double pirouette in the green room at college today. In dance class, every time, I end up on the floor. And not in a floor work way'
p177
aS"I got offered a full time job today and I'm really debating wether I should do my second year at college or not..."
p178
aS'Although percentages are probably not the best measurement if more people attend college today than in the time period used for comparison.'
p179
aS"Crazy that this time next month I'll be starting my second year work in college\xf0\x9f\x98\xb1"
p180
aS"My nan won't let me drive to college even just today like i planned she was like nope you'll only be allowed certain places and times \xf0\x9f\x98\xab"
p181
aS'Second time college have asked to take pictures of me well I now think its time I apply for Americas next top model\xf0\x9f\x92\x81\xf0\x9f\x92\x81\xf0\x9f\x93\xb7\xf0\x9f\x93\xb7'
p182
aS"I've got so much work I need to do for college in such a short space of time \xf0\x9f\x98\xa9"
p183
aS'Have way to much spare time at college'
p184
aS'First year of college complete! #timeflies'
p185
aS'Is it really bad that I skip college like 3 times a week or'
p186
aS'Nows the time I start crying because I have college in 1 hour'
p187
aS'"can we skip this whole college thing and go straight and go to the part where i have a really awesome job and spend all my time traveling"'
p188
aS"late for college, but there's always time for a cuppa tea!\xf0\x9f\x91\x8c\xf0\x9f\x91\x8d"
p189
aS"The fact I'm getting up for McDonald's and not college at this time is making me slightly even more upset"
p190
aS'Ugh have to get up for a shower then college #tired #collegeallday #fml #time #to #get #up'
p191
aS"@ellomg you've got time, I really don't want to go to college\xf0\x9f\x94\xab"
p192
aS"Omg all next week I'm either at college or work so I have no me time or no catch up on sleep time\xf0\x9f\x98\xad"
p193
aS'Plus I can get home in a reasonable time when college decides to cancel my lessons!'
p194
aS"The only trouble with having wifi at college is that I'm gonna be on Simpons tapped out all the time... #nocomplaintshere"
p195
aS'Only a couple of days left in college, full time studying for a couple of weeks \xf0\x9f\x99\x88\xf0\x9f\x98\x81\xf0\x9f\x94\xab'
p196
aS"Not making any real effort today, if I get into college then cool but if I don't then back to bed for me #tubestrike #bedtime"
p197
aS'@jackchaffey Nah I knew he had English playing rights a long time ago, used to cream over his college YouTube video on a weekly basis'
p198
aS'Thats college done now time for work! #CannaBeArsed'
p199
aS"Typical I wake up at the time that I'm meant to be in college at"
p200
aS"Back to college today, as times goes on by, I'm going to be grinding hard these next few weeks."
p201
aS'Loving the new timetable at college!'
p202
aS"If I'm not at college (full time), I'm at work almost full time and if I'm not doing that I'm attempting to revise for these fucking alevels"
p203
aS"((the drummer's from my class in college and it'd help him alot but if you don't have time, thank you anyway))"
p204
aS"@DiehardNYRFan don't stress it's a great time in college dude"
p205
aS"Don't think I've saw this time of day since college"
p206
aS"Can't wait to finish college this year and get a job!  \xf0\x9f\x98\xa0  So annoyed sometimes \xf0\x9f\x91\x8e"
p207
aS'Theres no reason for me not to go college today #wokeuplate #3\n#times'
p208
aS'Up and ready for college at this time \xf0\x9f\x91\xbc\xf0\x9f\x91\xbc'
p209
aS'First time meeting the twins told the twins I was in college and ed thought I was still in school \xf0\x9f\x98\x82 #jedwardfreespirit'
p210
aS'Sometimes I wonder am I still doing my leaving cert or am I in first year of college!! #toughtimes'
p211
aS'Beer after English class #cool #teacher #thanks #guiness #beer #lovely #time #pub #marino #college\xe2\x80\xa6'
p212
aS'paddy collins has nurture at college. orange juice and biscuits cause he\'s a "special student" haha. nap time patrick'
p213
aS'Work done and now time for college #grafter'
p214
aS'Why is it always when I could be on time for college the subways run late'
p215
aS'Hate getting buses specially on college times!'
p216
aS"iPhone battery's am shit. Gotta carry my charger everytime I go college. Bore off \xf0\x9f\x94\xab\xf0\x9f\x94\xab\xf0\x9f\x94\xab\xf0\x9f\x94\xab\xf0\x9f\x94\xab"
p217
aS'I need a haircut and colouring before I see my college friends again. This is no time to let myself go XD'
p218
aS'That awkward moment when you forget your purse and miss your bus and you need to be in college on time! \xf0\x9f\x99\x88'
p219
aS"Is it nearly time to go back to college already? I'd rather not"
p220
aS"@CharlieRoot_ couldn't make the bus cos it left during the time I was at college so have to watch it at home, you there?"
p221
aS'to think that my first year of college is pretty much coming to an end is unreal #timegoesfartoofast #professionalcookery #rollonnextyear'
p222
aS'@welshproblem If I had a pound for every time someone spelled my name wrong I could pay for college, a new car and a mansion in cash'
p223
aS'Nearly fallen asleep about 5 times already on the way to college\xf0\x9f\x98\xb4'
p224
aS'4 weeks left in college! #scarytimes #decisions'
p225
aS"There's no real reason to stay in college wasting time learning irrelevant shit, I will never need to do a binomial expansion in real life"
p226
aS"The only time I'm willing to do college work at home and i forget the most important bit at college!"
p227
aS"it's that time of the day when all the college people think it's a great idea to walk to McDonald's"
p228
aS'Wooooooooooooo got an audition for college \xf0\x9f\x98\x81\xf0\x9f\x98\x81\xf0\x9f\x98\x81\xf0\x9f\x98\x81 happy days #finally #abouttime'
p229
aS"Can the female population of the 9th/10th floor of Cardonald college please learn to flush the toilet? Especially if it's that time of month"
p230
aS'Shower time, then into college to get some of my project done, then training session for work.. Busy bee lately..\xf0\x9f\x90\x9d'
p231
aS"This time last week I was in First Edition steaming. Now, I'm heading to bed for college. Fuuuck this"
p232
aS'Looking for birthday presents after college #funtimes'
p233
aS'Best college evening yet. Sipping wine and causing trouble in parents question time. Lovely evening :-)'
p234
aS'Walking through neath at home time.. Kinda miss being a college kid!'
p235
aS"And kept asking me why I wasn't already at school even though I told him I was at college 3 times"
p236
aS'If I sleep now I will not be up at the right time to go to college today'
p237
aS'Racing against time to get this college work finished. ...#lastminute'
p238
aS'@hollypower2 I know girl do it to myself the whole time hahaha college is bad buzz !'
p239
aS"It feel so good that you don't have to go to college and no more exams but at the same time it feel so weird."
p240
aS"@Danni_Basilone what time are you I'm college?..."
p241
aS"Just had a really weird thought about college and realised I can't even really remember being there, time is going way too fast these days"
p242
aS'If you ever need waking up in the morning sit in chi college carpark and watch how people park. Think my heart dropped at least 5 times \xf0\x9f\x98\xb7'
p243
aS'The one time I go on Facebook, Algonquin college is a "suggested post" \xf0\x9f\x98\x9f\xf0\x9f\x98\x9f\xf0\x9f\x98\x9f\xf0\x9f\x98\x9f\xf0\x9f\x98\x9f'
p244
aS'morning #workout now time to get some #assignments done. #college #gym #early #coffee #tired'
p245
aS"Proud moment for me today. I made it to the bus on time. Shame I don't need to be in college for another hour."
p246
aS'"If I had a dollar for everytime someone spelled my name wrong, I could pay for college, a new car, and a mansion in cash" UHM THANK YOU YES'
p247
aS'How does college car park get so full at this time????? Urgh'
p248
aS"I haven't been to college for a month so this Monday morning really is a 100 times worse than the rest \xf0\x9f\x98\xa3\xf0\x9f\x98\xb4"
p249
aS"last week of college for me :) where's the time gone!! X"
p250
aS'so I was right, college was a waste of time. :)'
p251
aS"seems weird that I've nearly finished my course at college, how time flys"
p252
aS"don't even wanna go college lately why am I doing the leaving fucking waste of time"
p253
aS"Just beat my record of the time it took me getting to college - only 29mins! Considering it\nnormally takes me like 50mins, that's impressive"
p254
aS'@IrishAnimal11 not so sure about Accenture but there is exciting ventures ahead alright! \xf0\x9f\x98\x84 Gonna miss college big time though!'
p255
aS'8:36 train, hopefully make college in time. So tired!\xf0\x9f\x98\xb4'
p256
aS"Love working at the nursery with all the little munchkins! Can't wait to finish college and go full time \xf0\x9f\x98\x83!! \xf0\x9f\x91\xb6\xf0\x9f\x90\x9d\xe2\x9d\xa4\xef\xb8\x8f"
p257
aS'Back to college for another week And being a bus wanker all at the same time!'
p258
aS"The one time I'm actually up early on a weekday, and I'm not even going in to college... \xf0\x9f\x98\x82\xf0\x9f\x99\x88\xf0\x9f\x98\xb7"
p259
aS'Lovely spending time with @MarshaHiggins2 last night, even though she brought up my college stick across my forehead fringe! \xf0\x9f\x91\x8d\xf0\x9f\x98\x96\xe2\x9d\xa4\xef\xb8\x8f'
p260
aS'I feel terrible and college will be a complete waste of my time'
p261
aS'I have done no school work over easter like non at all, time to sort it out and get myself to college'
p262
aS'Going into college early tomorrow &amp; staying behind to do revision #abouttime'
p263
aS"@Hanabell_ Well, it's a part-time course, about 15 hours a week, I believe, but I will be going to college rather than distance learning.."
p264
aS'so much college work to do and so little time'
p265
aS'Looking at cars and insurance last night has set me to aim to finish college and get a fulltime job in childcare! Lets do this \xf0\x9f\x99\x8c'
p266
aS"@amyl0uise_xo guessing it's look through Chloe's tweets time at college\xf0\x9f\x98\x92"
p267
aS'@_fireflies__ college is like ten times better than school trust me or you know come to england and study here \xe2\x9c\x8c\xef\xb8\x8f'
p268
aS"I want to stay up tonight to get a chunk of college work done but I'll be so deed tomorrow night and not got time for a lil disco nap before"
p269
atp270
Rp271
s.