(dp0
S'anong'
p1
I1
sS'chinese'
p2
I1
sS'yellow'
p3
I1
sS'mile'
p4
I1
sS'grateful'
p5
I2
sS'strokeaholic'
p6
I1
sS'hate'
p7
I8
sS'baller'
p8
I1
sS'tweet'
p9
I1
sS'young'
p10
I2
sS'mcbusted'
p11
I1
sS'lord'
p12
I1
sS'worth'
p13
I3
sS'worse'
p14
I2
sS'song'
p15
I1
sS'far'
p16
I1
sS'regional'
p17
I1
sS'worst'
p18
I9
sS'rayner'
p19
I1
sS'awful'
p20
I3
sS'trouble'
p21
I1
sS'cool'
p22
I5
sS'entire'
p23
I1
sS'marvellous'
p24
I1
sS'quick'
p25
I4
sS'tired'
p26
I11
sS'past'
p27
I11
sS'second'
p28
I10
sS'odd'
p29
I2
sS'cosy'
p30
I1
sS'blue'
p31
I3
sS'stressful'
p32
I4
sS'pathetic'
p33
I1
sS'bail'
p34
I1
sS'international'
p35
I1
sS'told'
p36
I1
sS'jennyannleech'
p37
I1
sS'meg'
p38
I1
sS'full'
p39
I26
sS'hash'
p40
I1
sS'chose'
p41
I1
sS'lel'
p42
I1
sS'met'
p43
I1
sS'slow'
p44
I1
sS'let'
p45
I1
sS'lew'
p46
I1
sS'beurete'
p47
I1
sS'sociable'
p48
I1
sS'tactical'
p49
I1
sS'dry'
p50
I1
sS'great'
p51
I17
sS'woooah'
p52
I1
sS'brilliant'
p53
I1
sS'chant'
p54
I1
sS'social'
p55
I5
sS'military'
p56
I1
sS'weird'
p57
I6
sS'bearable'
p58
I1
sS'ugh'
p59
I1
sS'fantastic'
p60
I2
sS'love'
p61
I3
sS'extra'
p62
I6
sS'private'
p63
I3
sS'drowned'
p64
I2
sS'total'
p65
I1
sS'sarah'
p66
I1
sS'joshhubble'
p67
I1
sS'positive'
p68
I1
sS'hospital'
p69
I2
sS'hungry'
p70
I1
sS'shite'
p71
I1
sS'next'
p72
I35
sS'few'
p73
I17
sS'live'
p74
I1
sS'music'
p75
I4
sS'gorgeous'
p76
I1
sS'timetable'
p77
I2
sS'australian'
p78
I1
sS'toughy'
p79
I1
sS'more'
p80
I20
sS'flat'
p81
I1
sS'successful'
p82
I2
sS'glandular'
p83
I1
sS'chocolate'
p84
I1
sS'sore'
p85
I1
sS'visual'
p86
I1
sS'irishanimal'
p87
I1
sS'rubbish'
p88
I1
sS'glad'
p89
I17
sS'devant'
p90
I1
sS'unreal'
p91
I1
sS'cal'
p92
I1
sS'unconditional'
p93
I1
sS'cad'
p94
I1
sS'beautiful'
p95
I2
sS'crazy'
p96
I2
sS'ritual'
p97
I1
sS'embarrassing'
p98
I1
sS'give'
p99
I6
sS'awesome'
p100
I2
sS'pizzabearandsunshine'
p101
I1
sS'fuck'
p102
I1
sS'high'
p103
I9
sS'minimum'
p104
I1
sS'want'
p105
I11
sS'emmakholford'
p106
I1
sS'david'
p107
I1
sS'absolute'
p108
I6
sS'productive'
p109
I4
sS'studyweekshite'
p110
I1
sS'hot'
p111
I1
sS'animal'
p112
I1
sS'ordinary'
p113
I1
sS'edinburgh'
p114
I1
sS'unbelievable'
p115
I1
sS'becky'
p116
I1
sS'grandad'
p117
I1
sS'lad'
p118
I2
sS'sunny'
p119
I1
sS'earlier'
p120
I3
sS'mad'
p121
I1
sS'such'
p122
I19
sS'short'
p123
I2
sS'remember'
p124
I1
sS'third'
p125
I1
sS'light'
p126
I1
sS'appreciate'
p127
I1
sS'st'
p128
I2
sS'green'
p129
I1
sS'sat'
p130
I1
sS'breast'
p131
I1
sS'cute'
p132
I3
sS'thigh'
p133
I1
sS'leigh'
p134
I1
sS'east'
p135
I1
sS'whilst'
p136
I1
sS'maaaan'
p137
I1
sS'cold'
p138
I4
sS'dont'
p139
I1
sS'ridgebarlow'
p140
I1
sS'le'
p141
I2
sS'fit'
p142
I1
sS'personal'
p143
I2
sS'interesting'
p144
I2
sS'gente'
p145
I1
sS'better'
p146
I14
sS'main'
p147
I1
sS'easier'
p148
I3
sS'northwest'
p149
I1
sS'good'
p150
I55
sS'grievous'
p151
I1
sS'dan'
p152
I1
sS'safe'
p153
I3
sS'sarcastic'
p154
I1
sS'dat'
p155
I1
sS'qualified'
p156
I1
sS'seshed'
p157
I1
sS'delightful'
p158
I1
sS'reasonable'
p159
I1
sS'heavy'
p160
I1
sS'hogwartslogic'
p161
I1
sS'bricedegive'
p162
I1
sS'fish'
p163
I2
sS'hard'
p164
I4
sS'yeah'
p165
I2
sS'happen'
p166
I1
sS'saturday'
p167
I1
sS'special'
p168
I1
sS'gon'
p169
I24
sS'open'
p170
I5
sS'acting'
p171
I1
sS'mate'
p172
I1
sS'internet'
p173
I1
sS'rn'
p174
I2
sS'forth'
p175
I1
sS'yous'
p176
I1
sS'kingsaffair'
p177
I1
sS'looong'
p178
I1
sS'free'
p179
I12
sS'standard'
p180
I1
sS'agresser'
p181
I1
sS'small'
p182
I3
sS'nunny'
p183
I1
sS'earliest'
p184
I1
sS'care'
p185
I1
sS'g'
p186
I1
sS'diabetic'
p187
I1
sS'terrible'
p188
I1
sS'british'
p189
I1
sS'honest'
p190
I1
sS'ish'
p191
I4
sS'massive'
p192
I5
sS'bumper'
p193
I1
sS'retail'
p194
I1
sS'top'
p195
I5
sS'first'
p196
I48
sS'major'
p197
I4
sS'naughty'
p198
I1
sS'unhealthy'
p199
I1
sS'primary'
p200
I1
sS'long'
p201
I8
sS'impossible'
p202
I3
sS'thick'
p203
I1
sS'miss'
p204
I1
sS'little'
p205
I5
sS'bite'
p206
I1
sS'comfy'
p207
I1
sS'least'
p208
I9
sS'gcse'
p209
I2
sS'wonderful'
p210
I2
sS'aimhigh'
p211
I1
sS'janeholian'
p212
I2
sS'regurgitate'
p213
I1
sS'carefreejamal'
p214
I1
sS'painful'
p215
I3
sS'mackycapiral'
p216
I1
sS'revue'
p217
I1
sS'ridiculous'
p218
I5
sS'alvast'
p219
I1
sS'maaaadtinng'
p220
I1
sS'plausible'
p221
I1
sS'forensic'
p222
I1
sS'bed'
p223
I2
sS'final'
p224
I12
sS'shower'
p225
I1
sS'future'
p226
I1
sS'coat'
p227
I1
sS'asleep'
p228
I1
sS'risky'
p229
I1
sS'outstanding'
p230
I1
sS'craig'
p231
I1
sS'shittest'
p232
I1
sS'mind'
p233
I1
sS'craic'
p234
I1
sS'sad'
p235
I3
sS'tonight'
p236
I2
sS'childcare'
p237
I1
sS'miserable'
p238
I2
sS'knackeredbuthappy'
p239
I1
sS'leonmufcvalente'
p240
I1
sS'beachparty'
p241
I1
sS'unbearable'
p242
I1
sS'colourful'
p243
I1
sS'able'
p244
I9
sS'afgelopen'
p245
I1
sS'funniest'
p246
I1
sS'sure'
p247
I9
sS'normal'
p248
I3
sS'most'
p249
I9
sS'canny'
p250
I1
sS'medal'
p251
I1
sS'boringggggggggg'
p252
I1
sS'don'
p253
I4
sS'clear'
p254
I2
sS'later'
p255
I8
sS'drive'
p256
I6
sS'vitrycitygang'
p257
I1
sS'professional'
p258
I2
sS'senior'
p259
I2
sS'usual'
p260
I2
sS'hyper'
p261
I2
sS'text'
p262
I1
sS'utter'
p263
I1
sS'rough'
p264
I1
sS'aaalicemary'
p265
I1
sS'busy'
p266
I3
sS'nervous'
p267
I3
sS'dick'
p268
I1
sS'outside'
p269
I1
sS'unhappy'
p270
I1
sS'only'
p271
I16
sS'black'
p272
I1
sS'rich'
p273
I2
sS'staic'
p274
I1
sS'local'
p275
I1
sS'meant'
p276
I2
sS'hit'
p277
I1
sS'boreddddd'
p278
I1
sS'overall'
p279
I2
sS'lucky'
p280
I1
sS'fastest'
p281
I1
sS'new'
p282
I21
sS'botanical'
p283
I1
sS'secondary'
p284
I1
sS'busiest'
p285
I1
sS'ordintatior'
p286
I1
sS'posh'
p287
I1
sS'bad'
p288
I19
sS'stupid'
p289
I6
sS'qd'
p290
I1
sS'x'
p291
I1
sS'greenhead'
p292
I1
sS'automatic'
p293
I1
sS'scruffy'
p294
I1
sS'fair'
p295
I3
sS'relative'
p296
I1
sS'college'
p297
I3
sS'desperate'
p298
I1
sS'horrendous'
p299
I1
sS'fail'
p300
I1
sS'close'
p301
I2
sS'best'
p302
I19
sS'pete'
p303
I1
sS'library'
p304
I1
sS'enough'
p305
I1
sS'ashleigh'
p306
I1
sS'supernatural'
p307
I1
sS'horrible'
p308
I2
sS'omg'
p309
I1
sS'august'
p310
I1
sS'pipetdesign'
p311
I1
sS'wear'
p312
I2
sS'optional'
p313
I1
sS'thewanted'
p314
I1
sS'last'
p315
I58
sS'many'
p316
I11
sS'ill'
p317
I3
sS'quiet'
p318
I1
sS'sketchy'
p319
I1
sS'ete'
p320
I1
sS'whole'
p321
I14
sS'drunk'
p322
I1
sS'royal'
p323
I2
sS'disturbing'
p324
I1
sS'late'
p325
I30
sS'decent'
p326
I1
sS'due'
p327
I6
sS'confident'
p328
I2
sS'much'
p329
I12
sS'unsociable'
p330
I1
sS'mary'
p331
I6
sS'attractive'
p332
I1
sS'mine'
p333
I1
sS'finished'
p334
I1
sS'busybusybusy'
p335
I1
sS'holsworthy'
p336
I1
sS'shitest'
p337
I1
sS'straight'
p338
I1
sS'near'
p339
I1
sS'coolest'
p340
I1
sS'ive'
p341
I9
sS'site'
p342
I1
sS'cant'
p343
I2
sS'im'
p344
I4
sS'ready'
p345
I15
sS'rid'
p346
I2
sS'id'
p347
I1
sS'funny'
p348
I5
sS'different'
p349
I3
sS'anymore'
p350
I1
sS'same'
p351
I12
sS'shag'
p352
I1
sS'pagaaral'
p353
I1
sS'several'
p354
I1
sS'pal'
p355
I1
sS'privileged'
p356
I1
sS'difficult'
p357
I1
sS'finish'
p358
I10
sS'motivate'
p359
I1
sS'nic'
p360
I1
sS'numerical'
p361
I1
sS'monique'
p362
I1
sS'jealous'
p363
I4
sS'magaaral'
p364
I1
sS'mosaic'
p365
I1
sS'kid'
p366
I1
sS'toekomstig'
p367
I1
sS'lower'
p368
I1
sS'spent'
p369
I2
sS'natalieandersonphotography'
p370
I1
sS'english'
p371
I8
sS'y'
p372
I2
sS'jean'
p373
I1
sS'musical'
p374
I2
sS'latest'
p375
I2
sS'noah'
p376
I1
sS'less'
p377
I4
sS'paul'
p378
I1
sS'dinny'
p379
I1
sS'debile'
p380
I1
sS'weekly'
p381
I2
sS'josh'
p382
I1
sS'other'
p383
I9
sS'perth'
p384
I1
sS'teenager'
p385
I1
sS'easy'
p386
I4
sS'ohhh'
p387
I1
sS'bridal'
p388
I1
sS'hahahhah'
p389
I1
sS'real'
p390
I6
sS'presentable'
p391
I1
sS'big'
p392
I18
sS'possible'
p393
I3
sS'early'
p394
I13
sS'shitty'
p395
I1
sS'unique'
p396
I1
sS'moody'
p397
I1
sS'd'
p398
I2
sS'unnecessary'
p399
I1
sS'stoneyhurst'
p400
I1
sS't'
p401
I79
sS'hallelujah'
p402
I1
sS'stefanrighteous'
p403
I1
sS'tic'
p404
I1
sS'accessible'
p405
I1
sS'right'
p406
I1
sS'old'
p407
I15
sS'deal'
p408
I1
sS'pauline'
p409
I1
sS'scared'
p410
I2
sS'conditional'
p411
I2
sS'alive'
p412
I2
sS'ah'
p413
I1
sS'biff'
p414
I1
sS'proper'
p415
I3
sS'ofter'
p416
I1
sS'supportive'
p417
I2
sS'tutorial'
p418
I1
sS'basic'
p419
I3
sS'monday'
p420
I2
sS'leah'
p421
I1
sS'opposite'
p422
I1
sS'melisabajric'
p423
I1
sS'smelliest'
p424
I1
sS'questionnier'
p425
I1
sS'sixth'
p426
I1
sS'journal'
p427
I1
sS'notable'
p428
I1
sS'loudest'
p429
I1
sS'asan'
p430
I1
sS'super'
p431
I1
sS'inconsiderate'
p432
I1
sS'actual'
p433
I5
sS'working'
p434
I1
sS'oh'
p435
I1
sS'favorite'
p436
I1
sS'swear'
p437
I1
sS'toothpaste'
p438
I1
sS'chive'
p439
I1
sS'own'
p440
I7
sS'functional'
p441
I1
sS'stop'
p442
I1
sS'thankful'
p443
I2
sS'appropriate'
p444
I1
sS'pointless'
p445
I2
sS'canal'
p446
I1
sS'wan'
p447
I11
sS'van'
p448
I1
sS'fabric'
p449
I1
sS'fast'
p450
I2
sS'racist'
p451
I1
sS'low'
p452
I2
sS'biggest'
p453
I2
sS'twitter'
p454
I1
sS'happy'
p455
I12
sS'north'
p456
I2
sS'complete'
p457
I3
sS'peaceful'
p458
I1
sS'dead'
p459
I3
sS'true'
p460
I1
sS'junior'
p461
I1
sS'handsome'
p462
I1
sS'hair'
p463
I1
sS'humbled'
p464
I1
sS'wish'
p465
I1
sS'official'
p466
I1
sS'emotional'
p467
I2
sS'similar'
p468
I1
sS'pensionsgalore'
p469
I1
sS'proud'
p470
I2
sS'ohh'
p471
I1
sS'certain'
p472
I2
sS'general'
p473
I1
sS'molliesheasby'
p474
I1
sS'judgemental'
p475
I1
sS'nah'
p476
I1
sS'offensive'
p477
I1
sS'invalid'
p478
I1
sS'interested'
p479
I2
sS'aaral'
p480
I1
sS'sick'
p481
I9
sS'digital'
p482
I1
sS'woeful'
p483
I1
sS'nice'
p484
I10
sS'accidental'
p485
I1
sS'favourite'
p486
I1
sS'june'
p487
I1
sS'helpful'
p488
I1
sS'drag'
p489
I1
sS'important'
p490
I2
sS'laurenkenny'
p491
I1
sS'bitchy'
p492
I2
sS'skinny'
p493
I1
sS'ghost'
p494
I1
sS'faster'
p495
I1
sS'daily'
p496
I1
sS'havant'
p497
I1
sS'alright'
p498
I1
sS'serious'
p499
I3
sS'oral'
p500
I1
sS'thanniversary'
p501
I1
s.