(dp0
S'anong'
p1
I1
sS'consider'
p2
I2
sS'chinese'
p3
I1
sS'global'
p4
I1
sS'yellow'
p5
I1
sS'enjoyable'
p6
I1
sS'windy'
p7
I1
sS'hyper'
p8
I2
sS'asian'
p9
I1
sS'grateful'
p10
I4
sS'follow'
p11
I1
sS'strokeaholic'
p12
I1
sS'hate'
p13
I12
sS'hansstragier'
p14
I1
sS'hurry'
p15
I1
sS'baller'
p16
I1
sS'remarkable'
p17
I1
sS'eatcleantolookmean'
p18
I1
sS'young'
p19
I5
sS'hillsborough'
p20
I1
sS'mcbusted'
p21
I1
sS'lord'
p22
I1
sS'sorry'
p23
I4
sS'te'
p24
I1
sS'worth'
p25
I4
sS'jamiemclean'
p26
I1
sS'worse'
p27
I6
sS'song'
p28
I2
sS'far'
p29
I2
sS'regional'
p30
I1
sS'fat'
p31
I1
sS'worst'
p32
I14
sS'jack'
p33
I1
sS'sunny'
p34
I1
sS'awful'
p35
I6
sS'trouble'
p36
I1
sS'vast'
p37
I1
sS'cool'
p38
I6
sS'entire'
p39
I3
sS'heaven'
p40
I1
sS'impressive'
p41
I2
sS'marvellous'
p42
I1
sS'wednesday'
p43
I1
sS'large'
p44
I1
sS'mile'
p45
I1
sS'quick'
p46
I7
sS'anal'
p47
I1
sS'proof'
p48
I1
sS'enjoy'
p49
I1
sS'distasteful'
p50
I1
sS'classtime'
p51
I1
sS'brave'
p52
I1
sS'izzy'
p53
I1
sS'tired'
p54
I24
sS'sigh'
p55
I1
sS'repetitive'
p56
I1
sS'mural'
p57
I1
sS'past'
p58
I19
sS'disciplined'
p59
I1
sS'second'
p60
I16
sS'uncomfortable'
p61
I2
sS'organisatie'
p62
I1
sS'further'
p63
I1
sS'odd'
p64
I2
sS'chair'
p65
I1
sS'cosy'
p66
I1
sS'blue'
p67
I3
sS'stressful'
p68
I5
sS'pathetic'
p69
I2
sS'dark'
p70
I2
sS'bail'
p71
I1
sS'anniversary'
p72
I1
sS'current'
p73
I1
sS'international'
p74
I2
sS'public'
p75
I2
sS'told'
p76
I1
sS'ridic'
p77
I1
sS'jennyannleech'
p78
I1
sS'meg'
p79
I1
sS'full'
p80
I59
sS'hash'
p81
I1
sS'chose'
p82
I1
sS'uckfiled'
p83
I1
sS'lel'
p84
I1
sS'finest'
p85
I1
sS'water'
p86
I1
sS'met'
p87
I1
sS'slow'
p88
I1
sS'let'
p89
I2
sS'lew'
p90
I1
sS'beurete'
p91
I1
sS'strong'
p92
I2
sS'sociable'
p93
I1
sS'dry'
p94
I3
sS'great'
p95
I41
sS'bible'
p96
I1
sS'woooah'
p97
I1
sS'brilliant'
p98
I4
sS'chant'
p99
I1
sS'doorgaat'
p100
I1
sS'east'
p101
I1
sS'ptpgofficial'
p102
I1
sS'visssionary'
p103
I1
sS'ah'
p104
I1
sS'social'
p105
I10
sS'military'
p106
I1
sS'weird'
p107
I10
sS'suitable'
p108
I1
sS'tweet'
p109
I1
sS'bearable'
p110
I1
sS'fantastic'
p111
I4
sS'love'
p112
I4
sS'extra'
p113
I9
sS'vodka'
p114
I1
sS'apt'
p115
I1
sS'middlesbrough'
p116
I1
sS'drowned'
p117
I2
sS'total'
p118
I2
sS'select'
p119
I1
sS'sky'
p120
I1
sS'sarah'
p121
I1
sS'certificate'
p122
I1
sS'positive'
p123
I2
sS'angry'
p124
I3
sS'hungry'
p125
I2
sS'shite'
p126
I3
sS'next'
p127
I81
sS'few'
p128
I34
sS'live'
p129
I4
sS'music'
p130
I5
sS'cheeky'
p131
I1
sS'ahhh'
p132
I2
sS'timetable'
p133
I5
sS'tacky'
p134
I1
sS'australian'
p135
I1
sS'toughy'
p136
I1
sS'household'
p137
I1
sS'more'
p138
I54
sS'flat'
p139
I3
sS'fellow'
p140
I1
sS'are'
p141
I1
sS'successful'
p142
I2
sS'micky'
p143
I1
sS'acceptable'
p144
I4
sS'glandular'
p145
I1
sS'chocolate'
p146
I1
sS'grief'
p147
I1
sS'sore'
p148
I1
sS'visual'
p149
I1
sS'irishanimal'
p150
I1
sS'rubbish'
p151
I1
sS'sotired'
p152
I1
sS'central'
p153
I1
sS'hold'
p154
I2
sS'shitehole'
p155
I1
sS'easiest'
p156
I1
sS'glad'
p157
I39
sS'lothian'
p158
I1
sS'devant'
p159
I1
sS'soul'
p160
I1
sS'unreal'
p161
I2
sS'ull'
p162
I1
sS'learn'
p163
I2
sS'meet'
p164
I1
sS'dee'
p165
I1
sS'unconditional'
p166
I2
sS'cad'
p167
I1
sS'beautiful'
p168
I4
sS'crazy'
p169
I6
sS'ritual'
p170
I1
sS'embarrassing'
p171
I1
sS'looooong'
p172
I1
sS'give'
p173
I7
sS'awesome'
p174
I3
sS'emmakholford'
p175
I1
sS'pizzabearandsunshine'
p176
I1
sS'fuck'
p177
I1
sS'broadhurst'
p178
I1
sS'high'
p179
I18
sS'minimum'
p180
I1
sS'want'
p181
I21
sS'sense'
p182
I1
sS'chic'
p183
I1
sS'honest'
p184
I2
sS'clair'
p185
I1
sS'absolute'
p186
I9
sS'huge'
p187
I1
sS'educational'
p188
I1
sS'productive'
p189
I12
sS'comfortable'
p190
I2
sS'winter'
p191
I1
sS'resemble'
p192
I1
sS'breast'
p193
I1
sS'everyday'
p194
I1
sS'unlucky'
p195
I1
sS'studyweekshite'
p196
I1
sS'hot'
p197
I8
sS'fourth'
p198
I2
sS'ordinary'
p199
I2
sS'panic'
p200
I3
sS'edinburgh'
p201
I1
sS'unbelievable'
p202
I2
sS'becky'
p203
I1
sS'grandad'
p204
I1
sS'lad'
p205
I2
sS'cranky'
p206
I1
sS'earlier'
p207
I5
sS'mouthy'
p208
I1
sS'internet'
p209
I1
sS'jimmy'
p210
I1
sS'lukefriendmusic'
p211
I1
sS'wrong'
p212
I7
sS'mad'
p213
I2
sS'such'
p214
I42
sS'short'
p215
I3
sS'natural'
p216
I1
sS'quickest'
p217
I1
sS'third'
p218
I3
sS'conscious'
p219
I1
sS'light'
p220
I1
sS'appreciate'
p221
I1
sS'st'
p222
I2
sS'arrete'
p223
I1
sS'green'
p224
I4
sS'ultimate'
p225
I3
sS'enter'
p226
I1
sS'nous'
p227
I1
sS'spilt'
p228
I1
sS'typical'
p229
I4
sS'cute'
p230
I7
sS'thigh'
p231
I1
sS'leigh'
p232
I2
sS'varndean'
p233
I1
sS'kampen'
p234
I1
sS'midnight'
p235
I1
sS'kong'
p236
I1
sS'whilst'
p237
I2
sS'maaaan'
p238
I1
sS'unite'
p239
I1
sS'cold'
p240
I8
sS'cole'
p241
I1
sS'unhealthy'
p242
I1
sS'portable'
p243
I1
sS'ridgebarlow'
p244
I1
sS'le'
p245
I3
sS'police'
p246
I1
sS'fit'
p247
I1
sS'personal'
p248
I3
sS'interesting'
p249
I4
sS'ohheymic'
p250
I1
sS'better'
p251
I29
sS'willing'
p252
I1
sS'nursary'
p253
I1
sS'main'
p254
I2
sS'easier'
p255
I5
sS'northwest'
p256
I1
sS'good'
p257
I109
sS'grievous'
p258
I1
sS'animal'
p259
I1
sS'conseille'
p260
I1
sS'dan'
p261
I1
sS'safe'
p262
I4
sS'ye'
p263
I1
sS'sarcastic'
p264
I2
sS'toekomstig'
p265
I1
sS'qualified'
p266
I1
sS'seshed'
p267
I1
sS'legendary'
p268
I1
sS'diary'
p269
I1
sS'february'
p270
I1
sS'holographic'
p271
I1
sS'l'
p272
I1
sS'privileged'
p273
I1
sS'ilssontparmisvous'
p274
I1
sS'delightful'
p275
I1
sS'betty'
p276
I1
sS'reasonable'
p277
I1
sS'difficult'
p278
I1
sS'mean'
p279
I2
sS'heavy'
p280
I1
sS'hogwartslogic'
p281
I1
sS'mental'
p282
I7
sS'bricedegive'
p283
I1
sS'fish'
p284
I2
sS'hard'
p285
I8
sS'yeah'
p286
I5
sS'eve'
p287
I1
sS'used'
p288
I1
sS'cathedral'
p289
I1
sS'happen'
p290
I1
sS'sexual'
p291
I1
sS'saturday'
p292
I1
sS'special'
p293
I4
sS'gon'
p294
I42
sS'rude'
p295
I1
sS'open'
p296
I13
sS'acting'
p297
I1
sS'mate'
p298
I4
sS'hilarious'
p299
I1
sS'rn'
p300
I2
sS'forth'
p301
I1
sS'red'
p302
I1
sS'nic'
p303
I1
sS'numerical'
p304
I1
sS'yous'
p305
I1
sS'kingsaffair'
p306
I1
sS'independentstudy'
p307
I1
sS'looong'
p308
I2
sS'free'
p309
I23
sS'standard'
p310
I1
sS'agresser'
p311
I1
sS'small'
p312
I6
sS'aboriginal'
p313
I1
sS'beachparty'
p314
I1
sS'nunny'
p315
I1
sS'earliest'
p316
I3
sS'havent'
p317
I1
sS'care'
p318
I1
sS'scary'
p319
I1
sS'g'
p320
I1
sS'diabetic'
p321
I2
sS'terrible'
p322
I4
sS'british'
p323
I1
sS'david'
p324
I2
sS'american'
p325
I1
sS'ish'
p326
I5
sS'madichester'
p327
I1
sS'massive'
p328
I11
sS'bumper'
p329
I1
sS'retail'
p330
I2
sS'bite'
p331
I1
sS'first'
p332
I104
sS'cheese'
p333
I2
sS'major'
p334
I6
sS'naughty'
p335
I1
sS'dont'
p336
I4
sS'nutritional'
p337
I1
sS'primary'
p338
I1
sS'xd'
p339
I1
sS'twat'
p340
I1
sS'fast'
p341
I5
sS'impossible'
p342
I4
sS'thick'
p343
I2
sS'miss'
p344
I5
sS'regret'
p345
I1
sS'little'
p346
I10
sS'top'
p347
I10
sS'comfy'
p348
I2
sS'least'
p349
I23
sS'gcse'
p350
I3
sS'wonderful'
p351
I3
sS'aimhigh'
p352
I1
sS'janeholian'
p353
I2
sS'regurgitate'
p354
I1
sS'conormccarthy'
p355
I1
sS'white'
p356
I5
sS'final'
p357
I23
sS'painful'
p358
I4
sS'mackycapiral'
p359
I1
sS'revue'
p360
I1
sS'lawsonofficial'
p361
I1
sS'immediate'
p362
I1
sS'ridiculous'
p363
I7
sS'alvast'
p364
I1
sS'elite'
p365
I1
sS'boreddddd'
p366
I1
sS'maaaadtinng'
p367
I1
sS'remember'
p368
I1
sS'ipad'
p369
I1
sS'plausible'
p370
I1
sS'double'
p371
I2
sS'aan'
p372
I1
sS'likely'
p373
I1
sS'bed'
p374
I6
sS'carefreejamal'
p375
I1
sS'shower'
p376
I3
sS'future'
p377
I2
sS'store'
p378
I1
sS'coat'
p379
I2
sS'dang'
p380
I1
sS'college'
p381
I6
sS'risky'
p382
I1
sS'vocal'
p383
I1
sS'outstanding'
p384
I1
sS'craig'
p385
I1
sS'shittest'
p386
I3
sS'modern'
p387
I1
sS'mind'
p388
I3
sS'mine'
p389
I1
sS'sad'
p390
I11
sS'tonight'
p391
I2
sS'childcare'
p392
I1
sS'miserable'
p393
I2
sS'knackeredbuthappy'
p394
I1
sS'leonmufcvalente'
p395
I1
sS'sat'
p396
I9
sS'catholic'
p397
I2
sS'afraid'
p398
I1
sS'arachnidian'
p399
I1
sS'colourful'
p400
I1
sS'mic'
p401
I1
sS'able'
p402
I20
sS'prayforme'
p403
I1
sS'swaglow'
p404
I1
sS'afgelopen'
p405
I1
sS'laughed'
p406
I1
sS'funniest'
p407
I1
sS'pete'
p408
I1
sS'sure'
p409
I25
sS'normal'
p410
I7
sS'beautimousbish'
p411
I1
sS'most'
p412
I18
sS'pizzahappy'
p413
I1
sS'canny'
p414
I2
sS'medal'
p415
I1
sS'boringggggggggg'
p416
I1
sS'peaceful'
p417
I1
sS'forever'
p418
I1
sS'don'
p419
I9
sS'touchy'
p420
I1
sS'clear'
p421
I3
sS'later'
p422
I17
sS'upset'
p423
I1
sS'dog'
p424
I1
sS'doe'
p425
I1
sS'traditional'
p426
I1
sS'vitrycitygang'
p427
I1
sS'professional'
p428
I3
sS'skinny'
p429
I1
sS'latest'
p430
I2
sS'productivewave'
p431
I1
sS'ugh'
p432
I3
sS'bury'
p433
I1
sS'text'
p434
I2
sS'wijsheid'
p435
I1
sS'bright'
p436
I3
sS'hack'
p437
I1
sS'earth'
p438
I1
sS'rough'
p439
I1
sS'longer'
p440
I1
sS'aaalicemary'
p441
I1
sS'envy'
p442
I1
sS'busy'
p443
I7
sS'advanced'
p444
I1
sS'nervous'
p445
I7
sS'dick'
p446
I1
sS'enough'
p447
I3
sS'unhappy'
p448
I1
sS'terminal'
p449
I1
sS'only'
p450
I36
sS'unable'
p451
I1
sS'black'
p452
I2
sS'rich'
p453
I3
sS'staic'
p454
I1
sS'local'
p455
I2
sS'meant'
p456
I8
sS'hit'
p457
I1
sS'wide'
p458
I4
sS'gonnakillballet'
p459
I1
sS'routine'
p460
I1
sS'overall'
p461
I2
sS'lucky'
p462
I4
sS'bear'
p463
I1
sS'fastest'
p464
I2
sS'new'
p465
I50
sS'botanical'
p466
I1
sS'idealcynic'
p467
I1
sS'secondary'
p468
I1
sS'bestest'
p469
I1
sS'myerscough'
p470
I1
sS'artist'
p471
I1
sS'busiest'
p472
I1
sS'ordintatior'
p473
I1
sS'posh'
p474
I1
sS'bad'
p475
I35
sS'stupid'
p476
I15
sS'qd'
p477
I1
sS'x'
p478
I1
sS'greenhead'
p479
I1
sS'automatic'
p480
I1
sS'valid'
p481
I1
sS'forensic'
p482
I1
sS'scruffy'
p483
I1
sS'fair'
p484
I4
sS'burst'
p485
I1
sS'national'
p486
I1
sS'infectious'
p487
I1
sS'relative'
p488
I1
sS'opposite'
p489
I2
sS'asleep'
p490
I3
sS'sean'
p491
I1
sS'desperate'
p492
I1
sS'horrendous'
p493
I2
sS'fail'
p494
I1
sS'close'
p495
I4
sS'best'
p496
I36
sS'subject'
p497
I2
sS'closer'
p498
I1
sS'library'
p499
I1
sS'outside'
p500
I3
sS'ashleigh'
p501
I1
sS'supernatural'
p502
I1
sS'horrible'
p503
I5
sS'piss'
p504
I1
sS'scaryyy'
p505
I1
sS'lazy'
p506
I1
sS'omg'
p507
I1
sS'august'
p508
I1
sS'parental'
p509
I1
sS'pipetdesign'
p510
I1
sS'wear'
p511
I4
sS'precious'
p512
I1
sS'optional'
p513
I1
sS'thewanted'
p514
I1
sS'legit'
p515
I1
sS'last'
p516
I136
sS'many'
p517
I19
sS'ill'
p518
I10
sS'quiet'
p519
I4
sS'foreign'
p520
I1
sS'sketchy'
p521
I1
sS'ete'
p522
I1
sS'whole'
p523
I29
sS'gente'
p524
I1
sS'drunk'
p525
I2
sS'simple'
p526
I1
sS'royal'
p527
I2
sS'tubestrike'
p528
I1
sS'laugh'
p529
I1
sS'disturbing'
p530
I1
sS'expensive'
p531
I1
sS'narcissistic'
p532
I1
sS'late'
p533
I71
sS'worthless'
p534
I1
sS'hillsong'
p535
I2
sS'rete'
p536
I1
sS'toothpaste'
p537
I1
sS'due'
p538
I11
sS'pute'
p539
I1
sS'confident'
p540
I2
sS'much'
p541
I25
sS'west'
p542
I1
sS'unsociable'
p543
I1
sS'mary'
p544
I6
sS'attractive'
p545
I1
sS'website'
p546
I1
sS'cal'
p547
I1
sS'turned'
p548
I1
sS'bitchy'
p549
I2
sS'finished'
p550
I3
sS'gal'
p551
I2
sS'worked'
p552
I1
sS'busybusybusy'
p553
I1
sS'fullfrontal'
p554
I1
sS'present'
p555
I1
sS'sound'
p556
I1
sS'holsworthy'
p557
I1
sS'shitest'
p558
I2
sS'straight'
p559
I4
sS'taper'
p560
I1
sS'harder'
p561
I1
sS'ugly'
p562
I1
sS'near'
p563
I1
sS'suppose'
p564
I1
sS'emosh'
p565
I1
sS'rembrandt'
p566
I1
sS'stupidest'
p567
I1
sS'coolest'
p568
I1
sS'ive'
p569
I14
sS'ducky'
p570
I1
sS'murphy'
p571
I1
sS'lush'
p572
I1
sS'site'
p573
I1
sS'pinky'
p574
I1
sS'cant'
p575
I7
sS'sudden'
p576
I2
sS'im'
p577
I9
sS'il'
p578
I1
sS'ready'
p579
I47
sS'rid'
p580
I3
sS'id'
p581
I2
sS'hollypower'
p582
I1
sS'funny'
p583
I12
sS'different'
p584
I9
sS'denial'
p585
I1
sS'glastofest'
p586
I1
sS'anymore'
p587
I4
sS'cumulative'
p588
I1
sS'same'
p589
I24
sS'strange'
p590
I1
sS'shag'
p591
I1
sS'pagaaral'
p592
I1
sS'several'
p593
I2
sS'pal'
p594
I1
sS'thingg'
p595
I1
sS'higher'
p596
I1
sS'finish'
p597
I17
sS'motivate'
p598
I1
sS'unbearable'
p599
I3
sS'motivational'
p600
I1
sS'unready'
p601
I1
sS'tactical'
p602
I1
sS'lxzzy'
p603
I1
sS'elle'
p604
I1
sS'monique'
p605
I1
sS'beast'
p606
I1
sS'scenicroute'
p607
I1
sS'stanmore'
p608
I1
sS'jealous'
p609
I6
sS'robust'
p610
I1
sS'magaaral'
p611
I1
sS'mosaic'
p612
I1
sS'kid'
p613
I1
sS'dat'
p614
I1
sS'lower'
p615
I1
sS'spent'
p616
I2
sS'natalieandersonphotography'
p617
I1
sS'english'
p618
I16
sS'y'
p619
I3
sS'jean'
p620
I2
sS'corporate'
p621
I1
sS'musical'
p622
I2
sS'usual'
p623
I5
sS'noah'
p624
I1
sS'less'
p625
I10
sS'virtual'
p626
I1
sS'paul'
p627
I1
sS'dinny'
p628
I1
sS'debile'
p629
I1
sS'weekly'
p630
I2
sS'like'
p631
I1
sS'clueless'
p632
I1
sS'wee'
p633
I1
sS'overdue'
p634
I1
sS'hated'
p635
I1
sS'drive'
p636
I10
sS'josh'
p637
I1
sS'other'
p638
I26
sS'perth'
p639
I1
sS'teenager'
p640
I1
sS'easy'
p641
I6
sS'ohhh'
p642
I1
sS'bridal'
p643
I1
sS'hahahhah'
p644
I1
sS'easter'
p645
I1
sS'rayner'
p646
I1
sS'real'
p647
I16
sS'presentable'
p648
I1
sS'big'
p649
I28
sS'possible'
p650
I4
sS'early'
p651
I39
sS'shitty'
p652
I2
sS'working'
p653
I2
sS'traffic'
p654
I1
sS'mon'
p655
I1
sS'propper'
p656
I1
sS'unique'
p657
I1
sS'grim'
p658
I1
sS'aral'
p659
I2
sS'moody'
p660
I1
sS'necessary'
p661
I2
sS'd'
p662
I4
sS'redbubble'
p663
I1
sS'theofficial'
p664
I1
sS'signal'
p665
I1
sS'unnecessary'
p666
I2
sS'stoneyhurst'
p667
I1
sS'girl'
p668
I1
sS'private'
p669
I3
sS't'
p670
I207
sS'hallelujah'
p671
I1
sS'chick'
p672
I1
sS'stefanrighteous'
p673
I1
sS'tic'
p674
I1
sS'healthy'
p675
I1
sS'accessible'
p676
I1
sS'right'
p677
I2
sS'old'
p678
I35
sS'deal'
p679
I2
sS'pauline'
p680
I1
sS'twitter'
p681
I1
sS'conditional'
p682
I6
sS'alive'
p683
I3
sS'hair'
p684
I2
sS'biff'
p685
I1
sS'flush'
p686
I1
sS'proper'
p687
I4
sS'curious'
p688
I1
sS'supportive'
p689
I2
sS'tutorial'
p690
I1
sS'basic'
p691
I4
sS'est'
p692
I1
sS'monday'
p693
I2
sS'leah'
p694
I1
sS'jamiewhyte'
p695
I1
sS'bedtime'
p696
I1
sS'melisabajric'
p697
I1
sS'pen'
p698
I2
sS'smelliest'
p699
I1
sS'moderate'
p700
I1
sS'adorable'
p701
I1
sS'questionnier'
p702
I1
sS'bc'
p703
I1
sS'sixth'
p704
I4
sS'journal'
p705
I1
sS'notable'
p706
I1
sS'loudest'
p707
I1
sS'binomial'
p708
I1
sS'utter'
p709
I1
sS'hectic'
p710
I1
sS'become'
p711
I1
sS'asan'
p712
I1
sS'super'
p713
I2
sS'freeeee'
p714
I1
sS'inconsiderate'
p715
I1
sS'cozy'
p716
I1
sS'actual'
p717
I7
sS'joshhubble'
p718
I1
sS'oh'
p719
I3
sS'favorite'
p720
I1
sS'intercultural'
p721
I1
sS'essential'
p722
I1
sS'unintentional'
p723
I1
sS'swear'
p724
I1
sS'decent'
p725
I1
sS'chive'
p726
I1
sS'hospital'
p727
I3
sS'own'
p728
I18
sS'functional'
p729
I1
sS'stop'
p730
I1
sS'thankful'
p731
I2
sS'appropriate'
p732
I1
sS'brush'
p733
I1
sS'female'
p734
I4
sS'nautious'
p735
I1
sS'pointless'
p736
I3
sS'canal'
p737
I1
sS'wan'
p738
I18
sS'van'
p739
I3
sS'fabric'
p740
I2
sS'long'
p741
I27
sS'racist'
p742
I1
sS'low'
p743
I5
sS'biggest'
p744
I5
sS'scared'
p745
I2
sS'happy'
p746
I35
sS'north'
p747
I2
sS'complete'
p748
I7
sS'polite'
p749
I1
sS'gorgeous'
p750
I1
sS'jus'
p751
I1
sS'hear'
p752
I1
sS'dead'
p753
I13
sS'true'
p754
I5
sS'junior'
p755
I1
sS'handsome'
p756
I1
sS'rush'
p757
I1
sS'humbled'
p758
I1
sS'qualitative'
p759
I1
sS'wish'
p760
I2
sS'official'
p761
I1
sS'un'
p762
I1
sS'dirty'
p763
I1
sS'emotional'
p764
I3
sS'similar'
p765
I2
sS'medical'
p766
I1
sS'pensionsgalore'
p767
I1
sS'proud'
p768
I3
sS'ohh'
p769
I1
sS'vous'
p770
I2
sS'certain'
p771
I4
sS'pic'
p772
I1
sS'al'
p773
I1
sS'general'
p774
I4
sS'single'
p775
I4
sS'molliesheasby'
p776
I1
sS'ofter'
p777
I1
sS'judgemental'
p778
I1
sS'illegal'
p779
I1
sS'shit'
p780
I2
sS'nah'
p781
I1
sS'offensive'
p782
I1
sS'invalid'
p783
I1
sS'graduate'
p784
I1
sS'tight'
p785
I1
sS'interested'
p786
I5
sS'aaral'
p787
I2
sS'sick'
p788
I16
sS'digital'
p789
I1
sS'tie'
p790
I1
sS'woeful'
p791
I1
sS'nice'
p792
I18
sS'poor'
p793
I2
sS'accidental'
p794
I1
sS'gross'
p795
I1
sS'favourite'
p796
I2
sS'june'
p797
I1
sS'weirdest'
p798
I1
sS'helpful'
p799
I2
sS'drag'
p800
I2
sS'important'
p801
I6
sS'serious'
p802
I4
sS'laurenkenny'
p803
I1
sS'senior'
p804
I3
sS'ghost'
p805
I1
sS'younger'
p806
I1
sS'happier'
p807
I1
sS'faster'
p808
I1
sS'craic'
p809
I2
sS'daily'
p810
I2
sS'havant'
p811
I1
sS'searched'
p812
I1
sS'alright'
p813
I1
sS'fresh'
p814
I3
sS'klasy'
p815
I1
sS'oral'
p816
I2
sS'thanniversary'
p817
I1
s.