(dp0
S'beautiful'
p1
I1
sS'cute'
p2
I1
sS'crazy'
p3
I1
sS'google'
p4
I1
sS'fuck'
p5
I1
sS'high'
p6
I2
sS'fuder'
p7
I1
sS'want'
p8
I1
sS'girl'
p9
I1
sS'best'
p10
I2
sS'different'
p11
I1
sS'slow'
p12
I1
sS'stressful'
p13
I1
sS'crystal'
p14
I1
sS'federal'
p15
I2
sS'much'
p16
I1
sS'facultad'
p17
I1
sS'special'
p18
I1
sS'local'
p19
I1
sS'real'
p20
I1
sS'good'
p21
I1
sS'august'
p22
I1
sS'big'
p23
I2
sS'universidad'
p24
I1
sS'fat'
p25
I1
sS'most'
p26
I1
sS'gon'
p27
I1
sS'que'
p28
I1
sS'such'
p29
I1
sS'blast'
p30
I1
sS'niallofficial'
p31
I1
sS'arrogant'
p32
I1
sS'shitty'
p33
I1
sS'dossier'
p34
I1
sS'forth'
p35
I2
sS'favorite'
p36
I1
sS'brilliant'
p37
I1
sS'idle'
p38
I1
sS'stupid'
p39
I1
sS't'
p40
I1
sS'cal'
p41
I1
sS'nous'
p42
I1
sS'anal'
p43
I1
s.