c__builtin__
set
p0
((lp1
S'\xe2\x80\x9c@GVSmurf: Want to go bk to my college first year\xe2\x80\x9d'
p2
aS'instead of being in college today, I swam through the under water caves, best experience of my life \xf0\x9f\x99\x8c'
p3
aS"Spring break for college kids right now.... We're gonna have a blast \xf0\x9f\x8e\x89"
p4
aS'Desejo a todas as inimigas vida longa. Bom dia\n\n#xoxo #goodmorning #cute #boy #glamuor #college\xe2\x80\xa6'
p5
aS'Back 2 school! {#girl #boy #college #friends #gristopher #ily} @ Facultad de Ciencias Pol\xc3\xadticas y\xe2\x80\xa6'
p6
aS'#latepost #fun #school #project #college #colleagues @ La Mansi\xc3\xb3n - San Jos\xc3\xa9 de las matas'
p7
aS'Dat a da kinda maths inna college... awd'
p8
aS'Ik wil die mannen van de #snijtafel in mijn college!'
p9
aS"It's time to do a work of college! #work #college #anhembimorumbi #advertising #arteecultura #popart\xe2\x80\xa6"
p10
aS'We were really idle in college anuh \xf0\x9f\x98\x94'
p11
aS'"@49ers: #49ers announce 64 invites for local college pro day, including Jerry Rice Jr. READ:'
p12
aS'Preciso comprar outra college'
p13
aS'Sick for the big sun #good #morning #saturday #beach #college @ Praia De Boa Viagem'
p14
aS'@scornwell12 @BrookeRonney #college'
p15
aS'Quero uma toca, uma blusa college e um vans'
p16
aS'All these vaccines are a good motivator to work in KFC and not go to college \xf0\x9f\x98\x90'
p17
aS'Have to take 20 hours a semester for the rest of college in order to graduate on time \xf0\x9f\x98\x91\xf0\x9f\x98\x91'
p18
aS'Anal\xc3\xadtica para de tentar me fuder? N\xc3\xa3o tenho mais medo de voc\xc3\xaa!!!!!! #college #fatecdiadema #cold @\xe2\x80\xa6'
p19
aS'Gabriela es mi college stuff reminder'
p20
aS'C\xc3\xa1lculo da manh\xc3\xa3: se perdizes esta frio, Senacre estar\xc3\xa1 frio x3! #partiufrio #senacre #senac #college\xe2\x80\xa6'
p21
aS'Horror in the college street RT@LolaCordero: El semestre como tal, me da...'
p22
aS"that's why I fighting all of them when this college accept me in 2 weeks."
p23
aS"Man after today... I can't wait for college"
p24
aS'thank you southwestern college for the dance classes that make me miss school tomorrow \xf0\x9f\x99\x8c'
p25
aS'@nego_da_lage os cara da college tava numa banca gigaante'
p26
aS'\xe2\x80\x9c@ReaITrippy: trying to pay for college like'
p27
aS'\xe2\x80\x9c@Gillettefch: School for 12 years, college for 4 years, then you work until you die.\xe2\x80\x9d'
p28
aS'"@brandonreifer19: yes boss, it\'s crazy. "@suave268: Dat a da kinda maths inna college... awd"" just shed a tear'
p29
aS"@Cannalcool choppe ta fille a l'heure au college ou fouiny baby lui mettra dans le cu mdrr"
p30
aS'One of your favorite guitar player and also one of the best in the world is making a workshop in your town and you had exam at college \xf0\x9f\x91\x8d'
p31
aS'\xe2\x80\x9c@collegefession: "Just asked my fuck buddy to bring potato chips when he comes to fuck me... #notashamed" - College of Wooster\xe2\x80\x9d \xf0\x9f\x91\x8c'
p32
aS'Always wanted to go to college but never had the money or opportunity so I turned to dis rap shit'
p33
aS'En legisla... #tired #classes #collegedays #college #autumn #\xeb\xa7\x88\xec\x9a\xb0\xec\x8a\xa4\xeb\x9e\x98\xeb\xb9\x97 #MouseRabbit #almostweekend @\xe2\x80\xa6'
p34
aS'One thing I notice college peeps nu sleep work ave dem away'
p35
aS'@TheEllenShow thinking about going back to college,  only need 11,875,000 pennies to paid out the mortgage LOL #nevergiveup #keepdreaming'
p36
aS'Orra, os cara da college miaraoo a saida la da yankee'
p37
aS'All my Bros from high school either not going to college or going to different college as me. I see it coming.'
p38
aS'Any college student ever take an online class before? If so, are they chill?'
p39
aS'Seeing everyone post their college graduation pictures &lt;&lt;&lt;&lt; #onemoreyear #supersenior'
p40
aS'@Harry_Styles @Real_Liam_Payne @zaynmalik want to be there, I want to now , damn college \xf0\x9f\x98\xad\xf0\x9f\x98\xad\xf0\x9f\x98\xad\xf0\x9f\x98\xad I love guys !!!!'
p41
aS'@isberlymarie have you decided what course will you do on college?'
p42
aS'In #hell \xf0\x9f\x98\xad\xf0\x9f\x98\xad\xf0\x9f\x98\xad\xf0\x9f\x98\xad #unversity #PuertoRican  #night  #college'
p43
aS'Omw to college'
p44
aS'Back to freaking reality!! Aka= college \xf0\x9f\x98\xa9\xf0\x9f\x98\xa9\xf0\x9f\x98\xa9'
p45
aS'Por que metade de mim \xc3\xa9 dentista e a outra tamb\xc3\xa9m ser\xc3\xa1 \xf0\x9f\x98\x8d\xe2\x9d\xa4\xef\xb8\x8f\xf0\x9f\x98\xb7   #turma30 #dentistry #college #friends\xe2\x80\xa6'
p46
aS'Stupid college reopens... Sigh...'
p47
aS'Finalizando el taller de web-series, las ojeras dan prueba #uao #college #instauao #tired\xe2\x80\xa6'
p48
aS'@space_pup3000 its college i wish i could'
p49
aS'The fact that I have to be a Bermuda college at 9 am tomorrow. \xf0\x9f\x98\x92\xf0\x9f\x98\xa9'
p50
aS'Um college verde mt lindo, to um pouco arrependida devo trocar pelo vermelho'
p51
aS'@Toasted_Bread24 haha that is brilliant, youre planning to go to college?? You still have whatsapp so we can talk there better?'
p52
aS'i wrote 2/5 pages of my work from college and am already wanting that all fuck'
p53
aS'\xf0\x9f\x90\xb6\xe2\x9d\xa4 #puppy#veterinaria#uss#college#love#doglover#girl#me#cute#sunnyday @ Universidad San Sebastian'
p54
aS'I spent such crazy week with them on college. According Earth Day we decided to take us a #GlobalSelfie'
p55
aS'@iamIanrebo @mguindin en jr college'
p56
aS'@NiallOfficial want to be there, I want to now , damn college'
p57
aS'Bom dia, icbs! \xe2\x98\xba #beautiful #love  #college @ ICBS UFRGS'
p58
aS'Ganas de college'
p59
aS'N aguento mais 2 hrs de aula, estou enlouquecendo hahahaha \xf0\x9f\x98\x9c mt numero na cabe\xc3\xa7a \xf0\x9f\x98\xb1 #nofilter #college\xe2\x80\xa6'
p60
aS'Mais cansado do que eu... #fa7 #college #law #study #direito #brazil #Corinthians #TimedoPovo\xe2\x80\xa6'
p61
aS"El talento nunca es suficiente. Why Google doesn't care about college degrees?"
p62
aS'#GoodMorning #fmu #food #college #cold #now \xf0\x9f\x98\x9c @ FMU Santo Amaro'
p63
aS'@raaalmeida menina, onde vc achou o college? Sou louca por um e nunca acho :( j\xc3\xa1 sei! Me da de niver, fecho? Fecho.'
p64
aS"I'm at colbourne college (Kingston, Jamaica)"
p65
aS'ele ta de \xc3\xb3culos e cal\xc3\xa7a preta e college e tem um piercing no l\xc3\xa1bio e meu deus'
p66
aS'Traveling back to United States always makes me realize how shitty and arrogant Americans are. Fuck ur ugg wearin college shirt reppin ass.'
p67
aS'@alimarcin OMG... How much time do we have to wait? In two hours I gotta go to college...\xf0\x9f\x98\xa5\xf0\x9f\x98\xa2'
p68
aS'Sthep I love you so much \xe2\x99\xa5\xe2\x99\xa5\xe2\x99\xa5 #bff #besties #bestfriends #loveher #college #studying #cali #calico\xe2\x80\xa6'
p69
aS'Orra cara, voc\xc3\xaa me chama pra ir na ultra college bicha @pseudogabre'
p70
aS'@Louis_Tomlinson want to be there , I want to know , damn college'
p71
aS'I moving to a family island after college'
p72
aS'#nofilter #friends #smiles #cutie #hottie #selfie #college #loveher #handsome #instamoment #iphonesia\xe2\x80\xa6'
p73
aS'The kid i babysit: *whispering* "when Miss Jennel goes to college she is gonna be fat and never get a boyfriend"  #kidssaythedardnestthings'
p74
atp75
Rp76
.