c__builtin__
set
p0
((lp1
S'\xe2\x80\x9c@GVSmurf: Want to go bk to my college first year\xe2\x80\x9d'
p2
aS"Spring break for college kids right now.... We're gonna have a blast \xf0\x9f\x8e\x89"
p3
aS'Como tem gente que n\xc3\xa3o sabe onde fica a college do centro?'
p4
aS'Back 2 school! {#girl #boy #college #friends #gristopher #ily} @ Facultad de Ciencias Pol\xc3\xadticas y\xe2\x80\xa6'
p5
aS'"@brandonreifer19: yes boss, it\'s crazy. "@suave268: Dat a da kinda maths inna college... awd"" just shed a tear'
p6
aS'Os cre... haha #migos #college @ Escola Agrot\xc3\xa9cnica Federal de Manaus'
p7
aS'Dat a da kinda maths inna college... awd'
p8
aS"It's time to do a work of college! #work #college #anhembimorumbi #advertising #arteecultura #popart\xe2\x80\xa6"
p9
aS'We were really idle in college anuh \xf0\x9f\x98\x94'
p10
aS"Slow yuh role.... Don't even have a college degree yet but wanna act like lawyer #ButJustSitDownNuh"
p11
aS'Sick for the big sun #good #morning #saturday #beach #college @ Praia De Boa Viagem'
p12
aS'@scornwell12 @BrookeRonney #college'
p13
aS'Quero uma toca, uma blusa college e um vans'
p14
aS"what happens if i don't do my college research paper :O"
p15
aS'Have to take 20 hours a semester for the rest of college in order to graduate on time \xf0\x9f\x98\x91\xf0\x9f\x98\x91'
p16
aS'Anal\xc3\xadtica para de tentar me fuder? N\xc3\xa3o tenho mais medo de voc\xc3\xaa!!!!!! #college #fatecdiadema #cold @\xe2\x80\xa6'
p17
aS'C\xc3\xa1lculo da manh\xc3\xa3: se perdizes esta frio, Senacre estar\xc3\xa1 frio x3! #partiufrio #senacre #senac #college\xe2\x80\xa6'
p18
aS'Feel confident about the Managent finals yes!\nAugust mi ago see back college Maths again lol'
p19
aS'@Louis_Tomlinson want to be there , I want to know , damn college'
p20
aS'@determination6 loll meme is go what college ?'
p21
aS"@Mvmvdou pas de secret entren nous Mams j'men rappelle au college quand tu me balan\xc3\xa7ais tes dossier"
p22
aS'thanks uva, the college students loves you. \xf0\x9f\x91\x8a\xf0\x9f\x91\x8c\xf0\x9f\x98\x94'
p23
aS'En legisla... #tired #classes #collegedays #college #autumn #\xeb\xa7\x88\xec\x9a\xb0\xec\x8a\xa4\xeb\x9e\x98\xeb\xb9\x97 #MouseRabbit #almostweekend @\xe2\x80\xa6'
p24
aS'One thing I notice college peeps nu sleep work ave dem away'
p25
aS'@iamIanrebo @mguindin en jr college'
p26
aS'Seeing everyone post their college graduation pictures &lt;&lt;&lt;&lt; #onemoreyear #supersenior'
p27
aS'"@GraceFund: We are offering $500-1,000USD scholarships to Jamaican youth going to college.  PleaSe help spread the word! #dogood"'
p28
aS'@isberlymarie have you decided what course will you do on college?'
p29
aS'In #hell \xf0\x9f\x98\xad\xf0\x9f\x98\xad\xf0\x9f\x98\xad\xf0\x9f\x98\xad #unversity #PuertoRican  #night  #college'
p30
aS'Omw to college'
p31
aS'Stupid college reopens... Sigh...'
p32
aS'@space_pup3000 its college i wish i could'
p33
aS'@notKoze what D: ol so you finnished college and then took a masters and thats the degree you got right? :0'
p34
aS'Ganas de college'
p35
aS'"Visita \xc3\xa0 IMED - 3\xc3\xa3o Insta."\n#college #classmate #amazing #winter #cold #rain #teachers #special\xe2\x80\xa6'
p36
aS'@Toasted_Bread24 haha that is brilliant, youre planning to go to college?? You still have whatsapp so we can talk there better?'
p37
aS'i wrote 2/5 pages of my work from college and am already wanting that all fuck'
p38
aS'\xf0\x9f\x90\xb6\xe2\x9d\xa4 #puppy#veterinaria#uss#college#love#doglover#girl#me#cute#sunnyday @ Universidad San Sebastian'
p39
aS'Bom dia, icbs! \xe2\x98\xba #beautiful #love  #college @ ICBS UFRGS'
p40
aS'"@SoDamnGirIs: Things to do before graduating #college'
p41
aS'#friend \xf0\x9f\x91\xad #chanching #sandals #pink #nails #crystal \xf0\x9f\x91\x91 #princess  #funny #college \xf0\x9f\x8e\x80\xe2\x9c\x8f\xef\xb8\x8f\xf0\x9f\x93\x95 #cambiando\xe2\x80\xa6'
p42
aS'N aguento mais 2 hrs de aula, estou enlouquecendo hahahaha \xf0\x9f\x98\x9c mt numero na cabe\xc3\xa7a \xf0\x9f\x98\xb1 #nofilter #college\xe2\x80\xa6'
p43
aS'@NiallOfficial want to be there, I want to now , damn college'
p44
aS"El talento nunca es suficiente. Why Google doesn't care about college degrees?"
p45
aS'@alimarcin OMG... How much time do we have to wait? In two hours I gotta go to college...\xf0\x9f\x98\xa5\xf0\x9f\x98\xa2'
p46
aS'#GoodMorning #fmu #food #college #cold #now \xf0\x9f\x98\x9c @ FMU Santo Amaro'
p47
atp48
Rp49
.