(dp0
S'suicidal'
p1
I1
sS'searchable'
p2
I1
sS'dynamic'
p3
I1
sS'yellow'
p4
I4
sS'smethwick'
p5
I1
sS'sleep'
p6
I4
sS'asian'
p7
I7
sS'oldest'
p8
I6
sS'hate'
p9
I35
sS'vile'
p10
I1
sS'eligible'
p11
I4
sS'tweet'
p12
I3
sS'cushy'
p13
I1
sS'sweetest'
p14
I1
sS'bike'
p15
I1
sS'stevenoh'
p16
I1
sS'lord'
p17
I1
sS'sorry'
p18
I20
sS'worth'
p19
I17
sS'perishable'
p20
I1
sS'void'
p21
I1
sS'regional'
p22
I6
sS'vast'
p23
I1
sS'scholar'
p24
I3
sS'supersenior'
p25
I1
sS'math'
p26
I2
sS'straight'
p27
I11
sS'enjoy'
p28
I2
sS'veritable'
p29
I1
sS'charter'
p30
I1
sS'tired'
p31
I37
sS'direct'
p32
I1
sS'second'
p33
I75
sS'rigorous'
p34
I2
sS'air'
p35
I1
sS'expressive'
p36
I1
sS'blue'
p37
I15
sS'christ'
p38
I1
sS'liberty'
p39
I2
sS'above'
p40
I1
sS'new'
p41
I271
sS'net'
p42
I1
sS'mashal'
p43
I1
sS'told'
p44
I5
sS'meg'
p45
I1
sS'dreadful'
p46
I1
sS'jasmine'
p47
I1
sS'richest'
p48
I2
sS'herd'
p49
I1
sS'met'
p50
I10
sS'soanxious'
p51
I1
sS'dry'
p52
I5
sS'lol'
p53
I1
sS'daughter'
p54
I2
sS'unwatchable'
p55
I1
sS'zahier'
p56
I1
sS'ainsworth'
p57
I1
sS'military'
p58
I17
sS'fantastic'
p59
I10
sS'unic'
p60
I2
sS'moral'
p61
I1
sS'amherst'
p62
I1
sS'drowned'
p63
I2
sS'socioeconomic'
p64
I1
sS'total'
p65
I3
sS'sarah'
p66
I5
sS'hospital'
p67
I5
sS'motivate'
p68
I1
sS'negative'
p69
I4
sS'hanmean'
p70
I1
sS'music'
p71
I31
sS'survive'
p72
I7
sS'regarder'
p73
I1
sS'mystical'
p74
I1
sS'grier'
p75
I1
sS'standardized'
p76
I2
sS'wary'
p77
I1
sS'successful'
p78
I40
sS'naive'
p79
I2
sS'subtweet'
p80
I1
sS'aware'
p81
I2
sS'matgal'
p82
I1
sS'irishanimal'
p83
I1
sS'excellent'
p84
I1
sS'ahmedabad'
p85
I1
sS'immature'
p86
I3
sS'bartender'
p87
I1
sS'cheapest'
p88
I2
sS'aleciamercier'
p89
I1
sS'akic'
p90
I1
sS'sweeter'
p91
I1
sS'mr'
p92
I2
sS'addictive'
p93
I1
sS'offkey'
p94
I1
sS'give'
p95
I27
sS'makakagraduate'
p96
I1
sS'reach'
p97
I1
sS'involve'
p98
I1
sS'want'
p99
I44
sS'keep'
p100
I1
sS'absolute'
p101
I11
sS'egyptian'
p102
I1
sS'very'
p103
I4
sS'hot'
p104
I25
sS'ohmyyy'
p105
I1
sS'answer'
p106
I2
sS'ordinary'
p107
I1
sS'beach'
p108
I2
sS'mdanielsonmusic'
p109
I1
sS'classify'
p110
I1
sS'jborcky'
p111
I1
sS'becky'
p112
I1
sS'lah'
p113
I1
sS'grandad'
p114
I1
sS'lad'
p115
I2
sS'earlier'
p116
I11
sS'biotest'
p117
I1
sS'wrong'
p118
I41
sS'mesh'
p119
I1
sS'icant'
p120
I1
sS'lesbian'
p121
I1
sS'lar'
p122
I1
sS'danny'
p123
I4
sS'third'
p124
I14
sS'appreciate'
p125
I3
sS'greek'
p126
I1
sS'green'
p127
I6
sS'ultimate'
p128
I9
sS'enter'
p129
I3
sS'worst'
p130
I49
sS'exotic'
p131
I2
sS'prospective'
p132
I1
sS'zal'
p133
I1
sS'eish'
p134
I1
sS'victoriajean'
p135
I1
sS'newgoal'
p136
I1
sS'digest'
p137
I1
sS'fit'
p138
I4
sS'personal'
p139
I16
sS'gente'
p140
I1
sS'better'
p141
I120
sS'fic'
p142
I1
sS'easier'
p143
I18
sS'grievous'
p144
I1
sS'thee'
p145
I2
sS'safe'
p146
I10
sS'break'
p147
I1
sS'roommate'
p148
I3
sS'sentimental'
p149
I3
sS'shameful'
p150
I1
sS'rocky'
p151
I2
sS'l'
p152
I2
sS'choir'
p153
I1
sS'reasonable'
p154
I2
sS'alexscott'
p155
I1
sS'went'
p156
I3
sS'mean'
p157
I13
sS'brendalicious'
p158
I1
sS'hogwartslogic'
p159
I1
sS'financial'
p160
I21
sS'bricedegive'
p161
I1
sS'allah'
p162
I1
sS'dawg'
p163
I1
sS'navy'
p164
I2
sS'saturday'
p165
I1
sS'gon'
p166
I170
sS'oprah'
p167
I1
sS'god'
p168
I2
sS'psychic'
p169
I1
sS'crucial'
p170
I3
sS're'
p171
I1
sS'sane'
p172
I1
sS'smh'
p173
I4
sS'rn'
p174
I2
sS'forth'
p175
I2
sS'numerical'
p176
I1
sS'cutest'
p177
I2
sS'associate'
p178
I1
sS'kingsaffair'
p179
I1
sS'eternal'
p180
I1
sS'looong'
p181
I1
sS'free'
p182
I137
sS'standard'
p183
I4
sS'woooah'
p184
I1
sS'struggle'
p185
I2
sS'wanted'
p186
I1
sS'certified'
p187
I2
sS'enormous'
p188
I2
sS'ate'
p189
I4
sS'lsgh'
p190
I1
sS'ritual'
p191
I1
sS'flawless'
p192
I1
sS'ish'
p193
I7
sS'theinfamous'
p194
I1
sS'isn'
p195
I6
sS'loud'
p196
I4
sS'fuckin'
p197
I2
sS'nerdatcooltable'
p198
I1
sS'rang'
p199
I1
sS'industrial'
p200
I3
sS'reaaaal'
p201
I2
sS'annnnakate'
p202
I1
sS'fantasy'
p203
I1
sS'wasn'
p204
I1
sS'sober'
p205
I1
sS'thick'
p206
I1
sS'basketball'
p207
I8
sS'top'
p208
I47
sS'jwilliamsmusic'
p209
I1
sS'rond'
p210
I1
sS'master'
p211
I2
sS'janeholian'
p212
I2
sS'aimhigh'
p213
I1
sS'bitter'
p214
I6
sS'murder'
p215
I1
sS'fanatical'
p216
I1
sS'weirdest'
p217
I2
sS'japanese'
p218
I2
sS'western'
p219
I4
sS'xaxier'
p220
I1
sS'glorified'
p221
I1
sS'forensic'
p222
I2
sS'tree'
p223
I1
sS'likely'
p224
I15
sS'final'
p225
I178
sS'shower'
p226
I3
sS'idle'
p227
I1
sS'historical'
p228
I1
sS'spoiled'
p229
I2
sS'seminary'
p230
I1
sS'rad'
p231
I1
sS'humble'
p232
I3
sS'thestruggleisreal'
p233
I2
sS'boston'
p234
I1
sS'modern'
p235
I4
sS'mind'
p236
I5
sS'mine'
p237
I16
sS'childcare'
p238
I1
sS'alive'
p239
I15
sS'imold'
p240
I1
sS'hispanic'
p241
I1
sS'feelingemotional'
p242
I1
sS'convenient'
p243
I3
sS'responsible'
p244
I9
sS'revue'
p245
I1
sS'imprudent'
p246
I1
sS'spreadable'
p247
I2
sS'maiden'
p248
I1
sS'though'
p249
I1
sS'phast'
p250
I1
sS'anatomy'
p251
I1
sS'rumble'
p252
I1
sS'regular'
p253
I21
sS'plenty'
p254
I2
sS'zaplatosch'
p255
I1
sS'don'
p256
I32
sS'medical'
p257
I17
sS'metal'
p258
I2
sS'tech'
p259
I4
sS'entertaining'
p260
I2
sS'came'
p261
I1
sS'hunger'
p262
I1
sS'hazy'
p263
I1
sS'earth'
p264
I8
sS'bail'
p265
I1
sS'magaral'
p266
I2
sS'busy'
p267
I19
sS'teeejyptian'
p268
I1
sS'shellfish'
p269
I1
sS'edtech'
p270
I1
sS'boleh'
p271
I1
sS'buttefootbal'
p272
I1
sS'bush'
p273
I1
sS'deepest'
p274
I1
sS'rich'
p275
I16
sS'subhuman'
p276
I1
sS'aral'
p277
I4
sS'foreveraspartan'
p278
I1
sS'steventurous'
p279
I1
sS'dd'
p280
I1
sS'stop'
p281
I8
sS'nasty'
p282
I3
sS'beleive'
p283
I1
sS'botanical'
p284
I1
sS'earn'
p285
I1
sS'autistic'
p286
I2
sS'ordintatior'
p287
I1
sS'bad'
p288
I138
sS'fugggggggg'
p289
I1
sS'analytical'
p290
I1
sS'steak'
p291
I1
sS'automatic'
p292
I2
sS'daddydanny'
p293
I1
sS'ethical'
p294
I1
sS'mandatory'
p295
I2
sS'fair'
p296
I10
sS'precal'
p297
I1
sS'horrendous'
p298
I1
sS'corrupt'
p299
I2
sS'miserable'
p300
I5
sS'nocturnal'
p301
I1
sS'best'
p302
I302
sS'subject'
p303
I2
sS'pete'
p304
I3
sS'pressured'
p305
I1
sS'inappropriate'
p306
I1
sS'salesian'
p307
I1
sS'score'
p308
I1
sS'muc'
p309
I1
sS'mum'
p310
I1
sS'indecisive'
p311
I3
sS'lazy'
p312
I11
sS'relatable'
p313
I1
sS'omg'
p314
I2
sS'nationwide'
p315
I1
sS'wean'
p316
I1
sS'microwaveable'
p317
I2
sS'weak'
p318
I3
sS'residual'
p319
I1
sS'wear'
p320
I20
sS'wtf'
p321
I1
sS'convertible'
p322
I1
sS'roller'
p323
I1
sS'ill'
p324
I9
sS'lookin'
p325
I1
sS'demander'
p326
I1
sS'cuboard'
p327
I1
sS'tough'
p328
I13
sS'josh'
p329
I2
sS'irresponsible'
p330
I2
sS'epidemic'
p331
I2
sS'inquisitive'
p332
I1
sS'unprotected'
p333
I1
sS'initiative'
p334
I3
sS'basque'
p335
I1
sS'trust'
p336
I1
sS'speak'
p337
I1
sS'petty'
p338
I1
sS'jobless'
p339
I1
sS'solentofficial'
p340
I1
sS'newest'
p341
I1
sS'confident'
p342
I7
sS'much'
p343
I91
sS'detrimental'
p344
I1
sS'basic'
p345
I12
sS'flexible'
p346
I1
sS'lovely'
p347
I1
sS'threw'
p348
I1
sS'website'
p349
I2
sS'innocent'
p350
I1
sS'mch'
p351
I1
sS'excite'
p352
I1
sS'fest'
p353
I1
sS'worked'
p354
I1
sS'papersdue'
p355
I1
sS'applied'
p356
I1
sS'hahahhah'
p357
I1
sS'uchic'
p358
I1
sS'moneyyyyy'
p359
I1
sS'kentucky'
p360
I2
sS'n'
p361
I4
sS'strangest'
p362
I2
sS'ugly'
p363
I3
sS'near'
p364
I2
sS'suppose'
p365
I5
sS'vernal'
p366
I1
sS'meetig'
p367
I1
sS'pyramid'
p368
I1
sS'cont'
p369
I1
sS'provocative'
p370
I1
sS'ir'
p371
I1
sS'cant'
p372
I12
sS'im'
p373
I15
sS'comparative'
p374
I1
sS'smoothest'
p375
I1
sS'id'
p376
I7
sS'ig'
p377
I2
sS'memorial'
p378
I1
sS'belle'
p379
I1
sS'katiecouric'
p380
I1
sS'cumulative'
p381
I1
sS'canny'
p382
I2
sS'hahah'
p383
I1
sS'unfortunate'
p384
I1
sS'pagaaral'
p385
I1
sS'several'
p386
I4
sS'yung'
p387
I2
sS'independent'
p388
I2
sS'screw'
p389
I1
sS'nic'
p390
I2
sS'pick'
p391
I3
sS'hang'
p392
I6
sS'evil'
p393
I1
sS'warden'
p394
I1
sS'jealous'
p395
I19
sS'palpable'
p396
I1
sS'vvd'
p397
I1
sS'magaaral'
p398
I1
sS'hellquotemeright'
p399
I1
sS'kid'
p400
I18
sS'positve'
p401
I1
sS'kept'
p402
I1
sS'thy'
p403
I2
sS'tht'
p404
I1
sS'ocean'
p405
I3
sS'academic'
p406
I8
sS'thisispathetic'
p407
I1
sS'greatest'
p408
I21
sS'incapable'
p409
I1
sS'mother'
p410
I1
sS'jean'
p411
I2
sS'corporate'
p412
I1
sS'musical'
p413
I13
sS'seasonal'
p414
I1
sS'unified'
p415
I1
sS'kale'
p416
I1
sS'athletic'
p417
I13
sS'boastful'
p418
I1
sS'sleepy'
p419
I2
sS'unfair'
p420
I4
sS'assigned'
p421
I1
sS'fuder'
p422
I1
sS'human'
p423
I3
sS'debile'
p424
I1
sS'previous'
p425
I4
sS'remedial'
p426
I4
sS'han'
p427
I1
sS'turnuportransfer'
p428
I1
sS'royal'
p429
I2
sS'salamat'
p430
I1
sS'spread'
p431
I1
sS'teenager'
p432
I1
sS'easy'
p433
I49
sS'pitiful'
p434
I1
sS'east'
p435
I3
sS'hat'
p436
I3
sS'erikaleigh'
p437
I1
sS'insensitive'
p438
I1
sS'longgggg'
p439
I1
sS'possible'
p440
I23
sS'birth'
p441
I2
sS'dr'
p442
I1
sS'unique'
p443
I1
sS'burnt'
p444
I1
sS'advanced'
p445
I3
sS'd'
p446
I29
sS'unnecessary'
p447
I6
sS'stoneyhurst'
p448
I1
sS'specific'
p449
I3
sS'airheat'
p450
I1
sS'notorious'
p451
I1
sS'portuguese'
p452
I1
sS'right'
p453
I9
sS'old'
p454
I160
sS'ole'
p455
I2
sS'deal'
p456
I3
sS'dead'
p457
I25
sS'manziel'
p458
I1
sS'sheeeeet'
p459
I1
sS'biff'
p460
I1
sS'scrabble'
p461
I1
sS'dear'
p462
I1
sS'multiple'
p463
I2
sS'indirect'
p464
I1
sS'tolong'
p465
I1
sS'tutorial'
p466
I4
sS'cocaine'
p467
I1
sS'llorian'
p468
I1
sS'normal'
p469
I27
sS'ateneofast'
p470
I1
sS'creative'
p471
I4
sS'knyn'
p472
I1
sS'dreambig'
p473
I1
sS'newperspective'
p474
I1
sS'adorable'
p475
I1
sS'bold'
p476
I1
sS'posh'
p477
I1
sS'harlemnyte'
p478
I1
sS'dental'
p479
I2
sS'defensive'
p480
I2
sS'graduated'
p481
I1
sS'memorable'
p482
I2
sS'super'
p483
I22
sS'diner'
p484
I1
sS'essential'
p485
I2
sS'anime'
p486
I1
sS'cherish'
p487
I3
sS'twitch'
p488
I1
sS'nerve'
p489
I1
sS'bate'
p490
I1
sS'georgiastate'
p491
I1
sS'intellectual'
p492
I1
sS'ppl'
p493
I2
sS'thankful'
p494
I20
sS'coastal'
p495
I2
sS'dean'
p496
I4
sS'wan'
p497
I64
sS'wal'
p498
I1
sS'fabric'
p499
I2
sS'wah'
p500
I1
sS'medal'
p501
I1
sS'jealousy'
p502
I1
sS'fight'
p503
I1
sS'clinical'
p504
I1
sS'call'
p505
I1
sS'wat'
p506
I1
sS'happy'
p507
I91
sS'lowest'
p508
I1
sS'head'
p509
I2
sS'heat'
p510
I1
sS'hear'
p511
I4
sS'jennifer'
p512
I1
sS'true'
p513
I38
sS'scressful'
p514
I4
sS'instagnan'
p515
I1
sS'humbled'
p516
I1
sS'toughy'
p517
I1
sS'inside'
p518
I1
sS'intern'
p519
I1
sS'crystal'
p520
I2
sS'oratorical'
p521
I1
sS'economic'
p522
I3
sS'veterinarian'
p523
I1
sS'emotional'
p524
I10
sS'daddy'
p525
I1
sS'fuckitaaaall'
p526
I1
sS'proud'
p527
I39
sS'liberal'
p528
I5
sS'classic'
p529
I2
sS'stronger'
p530
I4
sS'drive'
p531
I12
sS'molliesheasby'
p532
I1
sS'ofter'
p533
I1
sS'mediocre'
p534
I1
sS'sympathy'
p535
I1
sS'check'
p536
I1
sS'shit'
p537
I4
sS'physical'
p538
I3
sS'eventual'
p539
I1
sS'na'
p540
I1
sS'ng'
p541
I2
sS'ny'
p542
I1
sS'interested'
p543
I17
sS'aaral'
p544
I7
sS'ambitious'
p545
I1
sS'digital'
p546
I3
sS'rantchic'
p547
I1
sS'tic'
p548
I1
sS'football'
p549
I3
sS'update'
p550
I1
sS'diet'
p551
I3
sS'belive'
p552
I1
sS'northgate'
p553
I1
sS'laurenkenny'
p554
I1
sS'tfamous'
p555
I1
sS'jeddah'
p556
I1
sS'younger'
p557
I8
sS'ljulian'
p558
I1
sS'faster'
p559
I12
sS'daily'
p560
I12
sS'dailycollegian'
p561
I1
sS'loyal'
p562
I3
sS'abbeymarble'
p563
I1
sS'serious'
p564
I21
sS'anong'
p565
I1
sS'coach'
p566
I2
sS'remarkable'
p567
I1
sS'global'
p568
I4
sS'ouch'
p569
I1
sS'therandomant'
p570
I1
sS'grateful'
p571
I8
sS'strokeaholic'
p572
I1
sS'pahble'
p573
I1
sS'chapin'
p574
I1
sS'yummy'
p575
I1
sS'scribble'
p576
I1
sS'abhorrent'
p577
I1
sS'veg'
p578
I1
sS'umich'
p579
I1
sS'constancehilary'
p580
I1
sS'matagal'
p581
I1
sS'otooley'
p582
I1
sS'ingid'
p583
I1
sS'hannah'
p584
I1
sS'sappy'
p585
I1
sS'rayner'
p586
I1
sS'anonymous'
p587
I7
sS'airfare'
p588
I1
sS'fullest'
p589
I3
sS'blast'
p590
I3
sS'exact'
p591
I2
sS'cool'
p592
I51
sS'impressive'
p593
I3
sS'did'
p594
I2
sS'brother'
p595
I1
sS'turnt'
p596
I4
sS'leave'
p597
I2
sS'tarrant'
p598
I1
sS'quick'
p599
I15
sS'yall'
p600
I5
sS'upper'
p601
I2
sS'indianoxrat'
p602
I1
sS'unexpected'
p603
I1
sS'slower'
p604
I1
sS'regret'
p605
I6
sS'sigh'
p606
I4
sS'obsolete'
p607
I1
sS'sign'
p608
I1
sS'upped'
p609
I1
sS'rough'
p610
I10
sS'cosy'
p611
I2
sS'stressful'
p612
I58
sS'appear'
p613
I1
sS'reminiscent'
p614
I1
sS'hypocritical'
p615
I1
sS'international'
p616
I12
sS'freaky'
p617
I1
sS'jennyannleech'
p618
I1
sS'mechanic'
p619
I1
sS'dnotive'
p620
I1
sS'french'
p621
I4
sS'fluke'
p622
I1
sS'tagal'
p623
I1
sS'sociable'
p624
I1
sS'boy'
p625
I2
sS'canadian'
p626
I1
sS'brilliant'
p627
I4
sS'mcfadd'
p628
I1
sS'guilty'
p629
I1
sS'cinnamon'
p630
I1
sS'patriotic'
p631
I1
sS'weird'
p632
I60
sS'lesmisofficial'
p633
I1
sS'pillow'
p634
I1
sS'frazer'
p635
I1
sS'love'
p636
I23
sS'extra'
p637
I22
sS'problematic'
p638
I2
sS'lowery'
p639
I1
sS'bloody'
p640
I1
sS'working'
p641
I2
sS'positive'
p642
I12
sS'angry'
p643
I4
sS'theaermusic'
p644
I1
sS'dude'
p645
I1
sS'intense'
p646
I3
sS'yavoir'
p647
I1
sS'live'
p648
I35
sS'olympian'
p649
I1
sS'black'
p650
I27
sS'australian'
p651
I1
sS'wicked'
p652
I1
sS'montreal'
p653
I1
sS'varmanic'
p654
I1
sS'afford'
p655
I1
sS'acceptable'
p656
I8
sS'glandular'
p657
I1
sS'nbcsn'
p658
I1
sS'chocolate'
p659
I3
sS'teary'
p660
I3
sS'visual'
p661
I3
sS'ignorant'
p662
I3
sS'easiest'
p663
I4
sS'graphic'
p664
I5
sS'edible'
p665
I1
sS'humungous'
p666
I1
sS'jole'
p667
I1
sS'soul'
p668
I1
sS'cat'
p669
I3
sS'hardest'
p670
I21
sS'achieve'
p671
I1
sS'ull'
p672
I1
sS'cal'
p673
I5
sS'following'
p674
I1
sS'arrive'
p675
I1
sS'unconditional'
p676
I2
sS'cad'
p677
I1
sS'nearest'
p678
I1
sS'crazy'
p679
I62
sS'internet'
p680
I2
sS'awesome'
p681
I15
sS'confused'
p682
I3
sS'topic'
p683
I5
sS'sophdean'
p684
I1
sS'intrasquad'
p685
I1
sS'stole'
p686
I5
sS'clair'
p687
I1
sS'swedish'
p688
I1
sS'productive'
p689
I13
sS'bankrupt'
p690
I1
sS'exceptional'
p691
I1
sS'grosser'
p692
I1
sS'write'
p693
I3
sS'vital'
p694
I2
sS'fourth'
p695
I2
sS'unforgettable'
p696
I1
sS'edinburgh'
p697
I3
sS'unbelievable'
p698
I2
sS'laundry'
p699
I2
sS'fairleigh'
p700
I1
sS'dive'
p701
I1
sS'stil'
p702
I1
sS'substitute'
p703
I1
sS'fanactic'
p704
I1
sS'islamic'
p705
I1
sS'mac'
p706
I1
sS'mad'
p707
I9
sS'mag'
p708
I1
sS'floral'
p709
I1
sS'such'
p710
I93
sS'suck'
p711
I1
sS'filthy'
p712
I1
sS'eighth'
p713
I2
sS'stress'
p714
I3
sS'natural'
p715
I6
sS'oyy'
p716
I1
sS'conscious'
p717
I2
sS'whenever'
p718
I1
sS'benny'
p719
I1
sS'rollin'
p720
I1
sS'st'
p721
I6
sS'sh'
p722
I1
sS'african'
p723
I2
sS'nous'
p724
I3
sS'impactful'
p725
I1
sS'typical'
p726
I15
sS'cute'
p727
I33
sS'sweatin'
p728
I1
sS'allangorgeous'
p729
I1
sS'letthemplayadownfirst'
p730
I1
sS'unacceptable'
p731
I2
sS'kong'
p732
I2
sS'lyric'
p733
I1
sS'statistical'
p734
I1
sS'cold'
p735
I12
sS'tore'
p736
I1
sS'ridgebarlow'
p737
I1
sS'avid'
p738
I2
sS'terhegeh'
p739
I1
sS'gtg'
p740
I1
sS'interesting'
p741
I17
sS'civic'
p742
I1
sS'sexiest'
p743
I1
sS'sheglar'
p744
I1
sS'faaarr'
p745
I1
sS'main'
p746
I8
sS'meridian'
p747
I1
sS'non'
p748
I1
sS'truest'
p749
I1
sS'smash'
p750
I1
sS'smarter'
p751
I2
sS'bein'
p752
I1
sS'sarcastic'
p753
I2
sS'claycochran'
p754
I1
sS'qualified'
p755
I1
sS'chrismurphy'
p756
I1
sS'jsnyder'
p757
I1
sS'wont'
p758
I1
sS'nagsaliwan'
p759
I1
sS'term'
p760
I1
sS'sophomore'
p761
I11
sS'january'
p762
I6
sS'didn'
p763
I1
sS'realistic'
p764
I6
sS'fabian'
p765
I1
sS'h'
p766
I1
sS'takte'
p767
I1
sS'square'
p768
I2
sS'unproductive'
p769
I2
sS'lowkey'
p770
I1
sS'median'
p771
I1
sS'yeah'
p772
I7
sS'ec'
p773
I1
sS'gruden'
p774
I1
sS'kpmg'
p775
I1
sS'happen'
p776
I5
sS'mgcrummy'
p777
I1
sS'reese'
p778
I1
sS'relive'
p779
I2
sS'funnest'
p780
I1
sS'costliest'
p781
I1
sS'thirst'
p782
I1
sS'salutatorian'
p783
I1
sS'instate'
p784
I3
sS'canal'
p785
I1
sS'satanic'
p786
I1
sS'argh'
p787
I1
sS'beurete'
p788
I1
sS'crazier'
p789
I2
sS'carl'
p790
I1
sS'cough'
p791
I1
sS'inevitable'
p792
I2
sS'researchpaper'
p793
I1
sS'care'
p794
I4
sS'underwear'
p795
I2
sS'couldn'
p796
I1
sS'watty'
p797
I1
sS'british'
p798
I3
sS'honest'
p799
I6
sS'nakagraduate'
p800
I1
sS'massive'
p801
I10
sS'tekst'
p802
I1
sS'first'
p803
I753
sS'blind'
p804
I1
sS'cheese'
p805
I5
sS'hannahwhang'
p806
I1
sS'ugagrady'
p807
I1
sS'theeproblematic'
p808
I1
sS'xd'
p809
I2
sS'sylvcorral'
p810
I1
sS'fast'
p811
I31
sS'spanish'
p812
I14
sS'impossible'
p813
I12
sS'unattainable'
p814
I1
sS'open'
p815
I42
sS'little'
p816
I49
sS'silent'
p817
I4
sS'bite'
p818
I1
sS'plastic'
p819
I2
sS'reppin'
p820
I1
sS'fml'
p821
I1
sS'draft'
p822
I1
sS'kukere'
p823
I1
sS'stuffed'
p824
I1
sS'facultad'
p825
I1
sS'white'
p826
I19
sS'cheapscholar'
p827
I3
sS'mermaid'
p828
I1
sS'mackycapiral'
p829
I1
sS'pittsburgh'
p830
I3
sS'huh'
p831
I1
sS'pooldecktime'
p832
I1
sS'hillary'
p833
I1
sS'ridiculous'
p834
I28
sS'dumonjic'
p835
I1
sS'copy'
p836
I1
sS'wide'
p837
I2
sS'yasss'
p838
I1
sS'future'
p839
I57
sS'college'
p840
I24
sS'pre'
p841
I1
sS'ang'
p842
I4
sS'san'
p843
I3
sS'nicer'
p844
I1
sS'craig'
p845
I1
sS'craic'
p846
I1
sS'sad'
p847
I51
sS'prestigious'
p848
I2
sS'rent'
p849
I1
sS'breakfast'
p850
I5
sS'sat'
p851
I8
sS'hummelcreative'
p852
I1
sS'snowbunny'
p853
I1
sS'advil'
p854
I2
sS'sew'
p855
I1
sS'ideal'
p856
I2
sS'potential'
p857
I5
sS'footlong'
p858
I1
sS'afgelopen'
p859
I1
sS'funniest'
p860
I1
sS'taught'
p861
I1
sS'sure'
p862
I92
sS'prick'
p863
I1
sS'opposite'
p864
I3
sS'indelible'
p865
I1
sS'semarang'
p866
I1
sS'freshman'
p867
I1
sS'librarian'
p868
I1
sS'arunachal'
p869
I1
sS'pager'
p870
I1
sS'forever'
p871
I2
sS'average'
p872
I9
sS'later'
p873
I40
sS'steady'
p874
I1
sS'hungry'
p875
I12
sS'fille'
p876
I1
sS'badd'
p877
I1
sS'professional'
p878
I21
sS'senior'
p879
I180
sS'detective'
p880
I1
sS'shot'
p881
I1
sS'german'
p882
I1
sS'wijsheid'
p883
I1
sS'bright'
p884
I7
sS'jordanian'
p885
I1
sS'materialistic'
p886
I1
sS'takin'
p887
I1
sS'aint'
p888
I1
sS'slow'
p889
I11
sS'doneee'
p890
I1
sS'dick'
p891
I1
sS'kest'
p892
I2
sS'pjboelhouwer'
p893
I1
sS'dull'
p894
I1
sS'foward'
p895
I1
sS'only'
p896
I115
sS'actin'
p897
I1
sS'hockey'
p898
I1
sS'staic'
p899
I1
sS'parabolic'
p900
I1
sS'espngolic'
p901
I2
sS'respectable'
p902
I2
sS'congressional'
p903
I1
sS'aderall'
p904
I1
sS'assistant'
p905
I3
sS'boreddddd'
p906
I1
sS'ged'
p907
I2
sS'necosinger'
p908
I1
sS'celebrate'
p909
I1
sS'secondary'
p910
I3
sS'prime'
p911
I3
sS'girl'
p912
I2
sS'lul'
p913
I1
sS'busiest'
p914
I2
sS'imbecile'
p915
I1
sS'worried'
p916
I2
sS'mattie'
p917
I1
sS'stupid'
p918
I67
sS'greenhead'
p919
I1
sS'mustcelebrate'
p920
I1
sS'instapic'
p921
I1
sS'seat'
p922
I1
sS'relative'
p923
I1
sS'asleep'
p924
I4
sS'taztastic'
p925
I1
sS'lng'
p926
I1
sS'wonder'
p927
I1
sS'colgate'
p928
I1
sS'wayy'
p929
I1
sS'bryceenglish'
p930
I1
sS'federal'
p931
I5
sS'knoxville'
p932
I1
sS'enough'
p933
I22
sS'shortsmurfsmith'
p934
I1
sS'affordable'
p935
I4
sS'august'
p936
I9
sS'prettiest'
p937
I1
sS'galingan'
p938
I1
sS'needsd'
p939
I1
sS'jamesworthy'
p940
I1
sS'many'
p941
I163
sS'stupidest'
p942
I1
sS'quiet'
p943
I1
sS'sketchy'
p944
I1
sS'tous'
p945
I1
sS'jdjasper'
p946
I1
sS'pop'
p947
I1
sS'youarewrong'
p948
I1
sS'pole'
p949
I1
sS'freak'
p950
I2
sS'extinct'
p951
I1
sS'roseandkush'
p952
I1
sS'mare'
p953
I1
sS'unusual'
p954
I1
sS'teammate'
p955
I1
sS'capable'
p956
I3
sS'west'
p957
I2
sS'scandalous'
p958
I1
sS'tropical'
p959
I3
sS'peaceful'
p960
I2
sS'linguistic'
p961
I1
sS'daylong'
p962
I1
sS'mary'
p963
I9
sS'enable'
p964
I1
sS'urgh'
p965
I1
sS'dramatic'
p966
I4
sS'careful'
p967
I4
sS'irrelevant'
p968
I5
sS'former'
p969
I17
sS'winky'
p970
I1
sS'disconnected'
p971
I1
sS'arnold'
p972
I1
sS'ongoing'
p973
I1
sS'eid'
p974
I1
sS'coolest'
p975
I2
sS'ive'
p976
I24
sS'alcoholic'
p977
I4
sS'engaged'
p978
I1
sS'bumper'
p979
I1
sS'pinky'
p980
I1
sS'middle'
p981
I6
sS'sudden'
p982
I3
sS'ironic'
p983
I2
sS'obnoxious'
p984
I1
sS'ivy'
p985
I1
sS'worry'
p986
I1
sS'different'
p987
I53
sS'harsh'
p988
I2
sS'same'
p989
I128
sS'poetic'
p990
I1
sS'pag'
p991
I2
sS'pal'
p992
I2
sS'finish'
p993
I41
sS'tactical'
p994
I1
sS'weed'
p995
I1
sS'renewable'
p996
I1
sS'constitutional'
p997
I1
sS'jqwhiskeyginger'
p998
I1
sS'severe'
p999
I2
sS'nikkiradinovic'
p1000
I1
sS'summer'
p1001
I4
sS'noah'
p1002
I1
sS'lowerthancal'
p1003
I1
sS'unofficial'
p1004
I1
sS'reputable'
p1005
I1
sS'morong'
p1006
I1
sS'touch'
p1007
I1
sS'weekly'
p1008
I3
sS'xtian'
p1009
I1
sS'perth'
p1010
I1
sS'halftime'
p1011
I1
sS'extensive'
p1012
I1
sS'joyful'
p1013
I1
sS'real'
p1014
I177
sS'nytnational'
p1015
I1
sS'spectacular'
p1016
I2
sS'read'
p1017
I2
sS'early'
p1018
I47
sS'traffic'
p1019
I2
sS'mon'
p1020
I3
sS'amp'
p1021
I1
sS'disappointed'
p1022
I1
sS'nexttonormal'
p1023
I1
sS'rear'
p1024
I1
sS'monicastieh'
p1025
I1
sS'kennedy'
p1026
I1
sS'theofficial'
p1027
I1
sS'collective'
p1028
I1
sS'ballstothewall'
p1029
I1
sS'farmingdale'
p1030
I1
sS't'
p1031
I655
sS'hallelujah'
p1032
I1
sS'stefanrighteous'
p1033
I1
sS'passionate'
p1034
I4
sS'stationary'
p1035
I1
sS'chuckgoudieabc'
p1036
I1
sS'satisfactory'
p1037
I1
sS'climactic'
p1038
I1
sS'croatoan'
p1039
I2
sS'conditional'
p1040
I2
sS'locust'
p1041
I1
sS'respect'
p1042
I1
sS'seeyahnextyear'
p1043
I1
sS'jgh'
p1044
I1
sS'viral'
p1045
I1
sS'slick'
p1046
I1
sS'legal'
p1047
I3
sS'conservative'
p1048
I1
sS'critical'
p1049
I4
sS'hipster'
p1050
I1
sS'boat'
p1051
I1
sS'scientific'
p1052
I1
sS'power'
p1053
I1
sS'intimate'
p1054
I1
sS'sixth'
p1055
I7
sS'equivalent'
p1056
I2
sS'notable'
p1057
I1
sS'loudest'
p1058
I2
sS'terrified'
p1059
I1
sS'asan'
p1060
I1
sS'exciting'
p1061
I4
sS'acc'
p1062
I1
sS'central'
p1063
I8
sS'oh'
p1064
I11
sS'favorite'
p1065
I55
sS'slender'
p1066
I1
sS'practical'
p1067
I1
sS'giffith'
p1068
I1
sS'macapagal'
p1069
I1
sS'act'
p1070
I1
sS'sidraiqbal'
p1071
I1
sS'sumwhat'
p1072
I1
sS'shief'
p1073
I1
sS'vball'
p1074
I1
sS'nyong'
p1075
I1
sS'candy'
p1076
I1
sS'aerial'
p1077
I1
sS'spinal'
p1078
I1
sS'homeless'
p1079
I7
sS'gary'
p1080
I1
sS'elementary'
p1081
I15
sS'valuable'
p1082
I1
sS'yous'
p1083
I3
sS'beautyful'
p1084
I1
sS'aren'
p1085
I1
sS'stark'
p1086
I1
sS'compliant'
p1087
I2
sS'racist'
p1088
I3
sS'low'
p1089
I12
sS'viscous'
p1090
I1
sS'hysterical'
p1091
I2
sS'redbull'
p1092
I1
sS'complete'
p1093
I33
sS'shitcray'
p1094
I1
sS'duchy'
p1095
I1
sS'jul'
p1096
I1
sS'sophisticated'
p1097
I1
sS'geekforlive'
p1098
I1
sS'saric'
p1099
I1
sS'attainable'
p1100
I1
sS'longer'
p1101
I4
sS'rush'
p1102
I2
sS'romantic'
p1103
I1
sS'offical'
p1104
I1
sS'exoternal'
p1105
I1
sS'tellin'
p1106
I1
sS'ncstate'
p1107
I1
sS'jamaican'
p1108
I1
sS'dirty'
p1109
I2
sS'agree'
p1110
I1
sS'rust'
p1111
I1
sS'expect'
p1112
I1
sS'ohh'
p1113
I1
sS'johnny'
p1114
I4
sS'ah'
p1115
I1
sS'al'
p1116
I3
sS'fellow'
p1117
I3
sS'incorrect'
p1118
I1
sS'selfish'
p1119
I4
sS'graduate'
p1120
I24
sS'tight'
p1121
I4
sS'woeful'
p1122
I1
sS'forcing'
p1123
I2
sS'poor'
p1124
I36
sS'vocabulary'
p1125
I2
sS'separate'
p1126
I1
sS'melisabajric'
p1127
I1
sS'pear'
p1128
I1
sS'important'
p1129
I43
sS'gayest'
p1130
I1
sS'equitable'
p1131
I1
sS'fayetteville'
p1132
I1
sS'masc'
p1133
I1
sS'apathy'
p1134
I1
sS'adat'
p1135
I1
sS'newnansfinest'
p1136
I1
sS'havant'
p1137
I1
sS'unnatural'
p1138
I1
sS'alright'
p1139
I1
sS'oral'
p1140
I4
sS'original'
p1141
I2
sS'desprite'
p1142
I1
sS'suny'
p1143
I1
sS'consider'
p1144
I1
sS'chinese'
p1145
I5
sS'hooked'
p1146
I1
sS'neigh'
p1147
I1
sS'tonic'
p1148
I1
sS'messy'
p1149
I1
sS'follow'
p1150
I3
sS'religious'
p1151
I2
sS'jerome'
p1152
I1
sS'jessie'
p1153
I1
sS'artavous'
p1154
I1
sS'thursday'
p1155
I1
sS'hillsborough'
p1156
I2
sS'th'
p1157
I2
sS'maywish'
p1158
I2
sS'te'
p1159
I2
sS'hideous'
p1160
I1
sS'worse'
p1161
I9
sS'song'
p1162
I18
sS'far'
p1163
I8
sS'carefree'
p1164
I1
sS'fat'
p1165
I12
sS'ican'
p1166
I1
sS'fan'
p1167
I2
sS'polytechnic'
p1168
I1
sS'awful'
p1169
I14
sS'shitest'
p1170
I1
sS'enjoyable'
p1171
I1
sS'heaven'
p1172
I7
sS'cable'
p1173
I1
sS'marvellous'
p1174
I1
sS'large'
p1175
I6
sS'yugioh'
p1176
I1
sS'mile'
p1177
I2
sS'harry'
p1178
I1
sS'small'
p1179
I21
sS'anal'
p1180
I3
sS'quicker'
p1181
I1
sS'past'
p1182
I40
sS'discriminated'
p1183
I1
sS'perspective'
p1184
I1
sS'further'
p1185
I2
sS'casual'
p1186
I5
sS'richard'
p1187
I1
sS'pinterest'
p1188
I3
sS'anniversary'
p1189
I1
sS'crush'
p1190
I4
sS'public'
p1191
I13
sS'dontbenegitive'
p1192
I1
sS'hasn'
p1193
I1
sS'full'
p1194
I127
sS'christian'
p1195
I10
sS'empower'
p1196
I1
sS'loose'
p1197
I2
sS'smartest'
p1198
I1
sS'shouldn'
p1199
I1
sS'eventful'
p1200
I2
sS'strong'
p1201
I13
sS'vitrycitygang'
p1202
I1
sS'bible'
p1203
I8
sS'ahead'
p1204
I1
sS'brutal'
p1205
I2
sS'healthier'
p1206
I2
sS'social'
p1207
I40
sS'cookie'
p1208
I1
sS'vic'
p1209
I2
sS'vid'
p1210
I1
sS'btnlive'
p1211
I1
sS'wesleyan'
p1212
I1
sS'solitude'
p1213
I1
sS'gosh'
p1214
I1
sS'huzzah'
p1215
I1
sS'herridge'
p1216
I1
sS'episcopalian'
p1217
I1
sS'mcbusted'
p1218
I1
sS'shite'
p1219
I3
sS'gorgeous'
p1220
I8
sS'tacky'
p1221
I1
sS'unthinkable'
p1222
I1
sS'minor'
p1223
I2
sS'more'
p1224
I349
sS'teen'
p1225
I1
sS'flat'
p1226
I2
sS'jamzy'
p1227
I1
sS'diamond'
p1228
I1
sS'askin'
p1229
I1
sS'hatespeech'
p1230
I1
sS'asheville'
p1231
I1
sS'stick'
p1232
I1
sS'broke'
p1233
I1
sS'glad'
p1234
I65
sS'sucky'
p1235
I1
sS'whitomatic'
p1236
I1
sS'recall'
p1237
I1
sS'jateng'
p1238
I21
sS'chetan'
p1239
I1
sS'kaminsky'
p1240
I1
sS'morgan'
p1241
I2
sS'learn'
p1242
I1
sS'male'
p1243
I2
sS'spontaneous'
p1244
I2
sS'def'
p1245
I2
sS'beautiful'
p1246
I34
sS'compare'
p1247
I1
sS'diabetic'
p1248
I1
sS'embarrassing'
p1249
I2
sS'cityoftajmahal'
p1250
I1
sS'bethanybiernat'
p1251
I1
sS'pizzabearandsunshine'
p1252
I1
sS'accept'
p1253
I1
sS'lingual'
p1254
I1
sS'pushed'
p1255
I1
sS'minimum'
p1256
I9
sS'ave'
p1257
I2
sS'sharp'
p1258
I1
sS'pong'
p1259
I1
sS'beerinthebackpack'
p1260
I1
sS'huge'
p1261
I25
sS'respective'
p1262
I1
sS'goal'
p1263
I1
sS'awkward'
p1264
I2
sS'tooeasy'
p1265
I1
sS'speedy'
p1266
I1
sS'ft'
p1267
I1
sS'rude'
p1268
I4
sS'cordmn'
p1269
I1
sS'ballsy'
p1270
I1
sS'panoramic'
p1271
I1
sS'softball'
p1272
I3
sS'short'
p1273
I13
sS'resemble'
p1274
I1
sS'coat'
p1275
I1
sS'volleyball'
p1276
I1
sS'shore'
p1277
I1
sS'lunchable'
p1278
I1
sS'fundamental'
p1279
I2
sS'kimangelique'
p1280
I1
sS'infant'
p1281
I1
sS'concretejungle'
p1282
I1
sS'leigh'
p1283
I1
sS'september'
p1284
I1
sS'ite'
p1285
I1
sS'proverbial'
p1286
I1
sS'isnt'
p1287
I1
sS'bullpen'
p1288
I1
sS'pang'
p1289
I1
sS'brim'
p1290
I1
sS'hell'
p1291
I1
sS'trouble'
p1292
I2
sS'arrogant'
p1293
I1
sS'unhealthy'
p1294
I6
sS'alle'
p1295
I1
sS'overhead'
p1296
I1
sS'pray'
p1297
I1
sS'bangle'
p1298
I1
sS'late'
p1299
I86
sS'strange'
p1300
I1
sS'baal'
p1301
I1
sS'relate'
p1302
I1
sS'wouldn'
p1303
I2
sS'good'
p1304
I423
sS'goblue'
p1305
I1
sS'disrespectful'
p1306
I2
sS'died'
p1307
I1
sS'countrysweetgal'
p1308
I2
sS'primary'
p1309
I2
sS'yr'
p1310
I3
sS'bigger'
p1311
I8
sS'respectful'
p1312
I1
sS'diary'
p1313
I1
sS'bryan'
p1314
I1
sS'sonervous'
p1315
I1
sS'pregnant'
p1316
I5
sS'alford'
p1317
I1
sS'nauseous'
p1318
I1
sS'tear'
p1319
I1
sS'goofy'
p1320
I1
sS'heavy'
p1321
I7
sS'mental'
p1322
I12
sS'weight'
p1323
I1
sS'fish'
p1324
I5
sS'hard'
p1325
I97
sS'extended'
p1326
I1
sS'fewer'
p1327
I1
sS'todd'
p1328
I1
sS'emalilaine'
p1329
I1
sS'try'
p1330
I4
sS'flower'
p1331
I2
sS'stooooopppppiiiidddd'
p1332
I1
sS'childish'
p1333
I5
sS'freshmanyear'
p1334
I1
sS'acting'
p1335
I5
sS'growthefuckupkid'
p1336
I1
sS'salute'
p1337
I1
sS'ass'
p1338
I1
sS'pathetic'
p1339
I4
sS'agresser'
p1340
I1
sS'extraordinary'
p1341
I2
sS'anthonyfinkral'
p1342
I1
sS'brightest'
p1343
I2
sS'dire'
p1344
I1
sS'imagine'
p1345
I2
sS'teach'
p1346
I2
sS'earliest'
p1347
I2
sS'cattle'
p1348
I1
sS'forgetacular'
p1349
I1
sS'sammonsean'
p1350
I1
sS'launch'
p1351
I1
sS'terrible'
p1352
I9
sS'american'
p1353
I13
sS'kung'
p1354
I4
sS'w'
p1355
I1
sS'theterrible'
p1356
I1
sS'existential'
p1357
I3
sS'dulong'
p1358
I1
sS'caryscary'
p1359
I1
sS'major'
p1360
I93
sS'dont'
p1361
I7
sS'gettingcreative'
p1362
I1
sS'radical'
p1363
I1
sS'eagleshockey'
p1364
I1
sS'spiritual'
p1365
I1
sS'kapag'
p1366
I2
sS'brave'
p1367
I1
sS'miss'
p1368
I19
sS'guess'
p1369
I1
sS'guest'
p1370
I1
sS'comfy'
p1371
I1
sS'least'
p1372
I79
sS'wonderful'
p1373
I17
sS'store'
p1374
I2
sS'easyyyyyyy'
p1375
I1
sS'relieved'
p1376
I2
sS'antimal'
p1377
I1
sS'immediate'
p1378
I1
sS'theridgerwirral'
p1379
I2
sS'chair'
p1380
I1
sS'jordan'
p1381
I1
sS'differentiate'
p1382
I1
sS'believe'
p1383
I1
sS'unrealistic'
p1384
I2
sS'ungrateful'
p1385
I1
sS'kind'
p1386
I4
sS'grew'
p1387
I1
sS'mahal'
p1388
I1
sS'dossier'
p1389
I1
sS'double'
p1390
I12
sS'aan'
p1391
I2
sS'scandinavian'
p1392
I1
sS'youth'
p1393
I1
sS'stall'
p1394
I1
sS'dang'
p1395
I6
sS'sister'
p1396
I1
sS'stale'
p1397
I1
sS'risky'
p1398
I1
sS'outstanding'
p1399
I2
sS'suspicious'
p1400
I1
sS'affirmative'
p1401
I1
sS'whatismylifern'
p1402
I1
sS'illiterate'
p1403
I1
sS'kare'
p1404
I1
sS'knackeredbuthappy'
p1405
I1
sS'leonmufcvalente'
p1406
I1
sS'aged'
p1407
I1
sS'clutch'
p1408
I1
sS'tarnish'
p1409
I1
sS'imdepressed'
p1410
I1
sS'accumulative'
p1411
I1
sS'couch'
p1412
I2
sS'internal'
p1413
I1
sS'useless'
p1414
I4
sS'cofc'
p1415
I1
sS'play'
p1416
I1
sS'electric'
p1417
I3
sS'diegotheanimal'
p1418
I1
sS'darth'
p1419
I1
sS'most'
p1420
I103
sS'realrossnoble'
p1421
I1
sS'significant'
p1422
I1
sS'funnier'
p1423
I1
sS'mobile'
p1424
I1
sS'clear'
p1425
I6
sS'unreasonable'
p1426
I1
sS'traditional'
p1427
I6
sS'clean'
p1428
I5
sS'dddd'
p1429
I1
sS'latest'
p1430
I14
sS'technical'
p1431
I2
sS'ugh'
p1432
I4
sS'okcupid'
p1433
I1
sS'spastic'
p1434
I1
sS'aaalicemary'
p1435
I1
sS'find'
p1436
I11
sS'current'
p1437
I9
sS'giant'
p1438
I1
sS'sayin'
p1439
I1
sS'northern'
p1440
I4
sS'nervous'
p1441
I24
sS'unhappy'
p1442
I2
sS'hardened'
p1443
I1
sS'hit'
p1444
I3
sS'sunny'
p1445
I2
sS'cheaper'
p1446
I9
sS'famous'
p1447
I16
sS'longest'
p1448
I4
sS'louisburg'
p1449
I1
sS'judged'
p1450
I1
sS'contextual'
p1451
I1
sS'progressive'
p1452
I1
sS'tscan'
p1453
I1
sS'cry'
p1454
I4
sS'withy'
p1455
I1
sS'common'
p1456
I16
sS'naughty'
p1457
I1
sS'x'
p1458
I1
sS'baller'
p1459
I1
sS'insane'
p1460
I3
sS'scruffy'
p1461
I1
sS'ary'
p1462
I1
sS'jordancornish'
p1463
I1
sS'plausible'
p1464
I1
sS'dumb'
p1465
I1
sS'are'
p1466
I1
sS'trashhhhhh'
p1467
I1
sS'close'
p1468
I20
sS'retweet'
p1469
I1
sS'breast'
p1470
I1
sS'mercuryelite'
p1471
I1
sS'glue'
p1472
I1
sS'probable'
p1473
I1
sS'pokemon'
p1474
I1
sS'bridgewater'
p1475
I1
sS'electoral'
p1476
I7
sS'smallest'
p1477
I2
sS'various'
p1478
I2
sS'numerous'
p1479
I3
sS'available'
p1480
I5
sS'rosie'
p1481
I1
sS'soweird'
p1482
I1
sS'unconscious'
p1483
I2
sS'commercial'
p1484
I3
sS'nashville'
p1485
I1
sS'pipetdesign'
p1486
I1
sS'invisible'
p1487
I2
sS'thewanted'
p1488
I1
sS'youngest'
p1489
I3
sS'c'
p1490
I2
sS'last'
p1491
I825
sS'hesitant'
p1492
I1
sS'influential'
p1493
I1
sS'annual'
p1494
I6
sS'foreign'
p1495
I2
sS'whole'
p1496
I112
sS'gdddd'
p1497
I2
sS'flier'
p1498
I1
sS'drunk'
p1499
I3
sS'simple'
p1500
I8
sS'sweet'
p1501
I14
sS'myleswright'
p1502
I1
sS'header'
p1503
I1
sS'expensive'
p1504
I39
sS'duh'
p1505
I2
sS'pt'
p1506
I1
sS'arrest'
p1507
I2
sS'monthly'
p1508
I1
sS'whaterbuger'
p1509
I1
sS'create'
p1510
I1
sS'political'
p1511
I3
sS'due'
p1512
I35
sS'damn'
p1513
I1
sS'navigate'
p1514
I1
sS'pile'
p1515
I1
sS'escapethefate'
p1516
I1
sS'empty'
p1517
I3
sS'firm'
p1518
I1
sS'akong'
p1519
I3
sS'fird'
p1520
I1
sS'bitchy'
p1521
I2
sS'anthony'
p1522
I1
sS'gal'
p1523
I2
sS'representative'
p1524
I1
sS'busybusybusy'
p1525
I1
sS'nashgrier'
p1526
I2
sS'solid'
p1527
I5
sS'reliable'
p1528
I1
sS'feelingaccomplished'
p1529
I2
sS'pian'
p1530
I1
sS'fun'
p1531
I7
sS'costly'
p1532
I1
sS'portugal'
p1533
I1
sS'wherever'
p1534
I1
sS'ecstasy'
p1535
I1
sS'centennial'
p1536
I1
sS'ready'
p1537
I174
sS'rid'
p1538
I4
sS'theblackpilgrim'
p1539
I1
sS'ric'
p1540
I1
sS'funny'
p1541
I41
sS'lengthy'
p1542
I1
sS'presentable'
p1543
I1
sS'anymore'
p1544
I11
sS'belong'
p1545
I2
sS'wierd'
p1546
I1
sS'shag'
p1547
I1
sS'grand'
p1548
I1
sS'lenient'
p1549
I1
sS'ruth'
p1550
I1
sS'imeishaziglar'
p1551
I1
sS'sunacomusic'
p1552
I1
sS'higher'
p1553
I7
sS'used'
p1554
I3
sS'temporary'
p1555
I2
sS'therealamberm'
p1556
I1
sS'crushed'
p1557
I1
sS'infamous'
p1558
I1
sS'recent'
p1559
I14
sS'dark'
p1560
I1
sS'lower'
p1561
I4
sS'older'
p1562
I14
sS'persuasive'
p1563
I1
sS'spent'
p1564
I6
sS'cheer'
p1565
I2
sS'bearable'
p1566
I1
sS'y'
p1567
I10
sS'nahmean'
p1568
I1
sS'skressful'
p1569
I1
sS'competitive'
p1570
I1
sS'cocky'
p1571
I1
sS'useful'
p1572
I3
sS'dinny'
p1573
I1
sS'ofsted'
p1574
I1
sS'grim'
p1575
I1
sS'eager'
p1576
I2
sS'studious'
p1577
I1
sS'dare'
p1578
I1
sS'bridal'
p1579
I1
sS'excited'
p1580
I2
sS'big'
p1581
I119
sS'sittin'
p1582
I1
sS'triste'
p1583
I1
sS'shitty'
p1584
I1
sS'moody'
p1585
I1
sS'edified'
p1586
I1
sS'pertinent'
p1587
I1
sS'cognitive'
p1588
I2
sS'gullible'
p1589
I1
sS'popular'
p1590
I7
sS'stylish'
p1591
I1
sS'healthy'
p1592
I5
sS'google'
p1593
I15
sS'tinderboxmusic'
p1594
I1
sS'lifecomplete'
p1595
I1
sS'dermal'
p1596
I1
sS'loser'
p1597
I1
sS'curious'
p1598
I13
sS'sheesh'
p1599
I1
sS'rolltide'
p1600
I1
sS'desean'
p1601
I1
sS'bball'
p1602
I1
sS'syaniebalkish'
p1603
I1
sS'epic'
p1604
I1
sS'minimal'
p1605
I1
sS'laughing'
p1606
I1
sS'patient'
p1607
I2
sS'questionnier'
p1608
I2
sS'bc'
p1609
I2
sS'amazig'
p1610
I1
sS'alissaliebler'
p1611
I2
sS'comportable'
p1612
I1
sS'faith'
p1613
I1
sS'cautious'
p1614
I1
sS'lamest'
p1615
I1
sS'delish'
p1616
I1
sS'doodle'
p1617
I1
sS'hahahah'
p1618
I1
sS'idc'
p1619
I2
sS'credible'
p1620
I1
sS'mommy'
p1621
I1
sS'appropriate'
p1622
I2
sS'jonny'
p1623
I1
sS'proportional'
p1624
I1
sS'mkg'
p1625
I1
sS'dontwanttograduate'
p1626
I1
sS'gouge'
p1627
I1
sS'hellhole'
p1628
I1
sS'mariellebouvier'
p1629
I1
sS'sneaky'
p1630
I1
sS'long'
p1631
I61
sS'occupy'
p1632
I1
sS'mybaby'
p1633
I1
sS'summertime'
p1634
I1
sS'bruh'
p1635
I1
sS'etch'
p1636
I1
sS'twitter'
p1637
I5
sS'nonchelant'
p1638
I1
sS'beachparty'
p1639
I1
sS'bore'
p1640
I1
sS'jewish'
p1641
I1
sS'larry'
p1642
I1
sS'uofsc'
p1643
I1
sS'wnt'
p1644
I1
sS'russian'
p1645
I2
sS'sdh'
p1646
I1
sS'junior'
p1647
I79
sS'icdc'
p1648
I1
sS'erich'
p1649
I1
sS'kayong'
p1650
I1
sS'characteristic'
p1651
I1
sS'oldrowofficial'
p1652
I1
sS'ur'
p1653
I3
sS'ul'
p1654
I3
sS'mature'
p1655
I3
sS'precalc'
p1656
I1
sS'fried'
p1657
I2
sS'similar'
p1658
I6
sS'spurrier'
p1659
I1
sS'uber'
p1660
I1
sS'hash'
p1661
I1
sS'worthwhile'
p1662
I1
sS'unsociable'
p1663
I2
sS'doesn'
p1664
I2
sS'talofficial'
p1665
I1
sS'single'
p1666
I35
sS'diverse'
p1667
I1
sS'chat'
p1668
I4
sS'finalfinal'
p1669
I1
sS'accoplish'
p1670
I1
sS'finishstrong'
p1671
I1
sS'aeronautical'
p1672
I1
sS'nak'
p1673
I1
sS'nah'
p1674
I3
sS'realest'
p1675
I2
sS'invalid'
p1676
I1
sS'arithmetic'
p1677
I2
sS'nice'
p1678
I68
sS'accidental'
p1679
I1
sS'gross'
p1680
I2
sS'favourite'
p1681
I1
sS'drag'
p1682
I1
sS'evan'
p1683
I1
sS'notchangingmymind'
p1684
I1
sS'tigerfest'
p1685
I1
sS'formal'
p1686
I4
sS'hanover'
p1687
I1
sS'happier'
p1688
I7
sS'youtube'
p1689
I1
sS'peytondean'
p1690
I1
sS'southwind'
p1691
I1
sS'depth'
p1692
I1
sS'fresh'
p1693
I17
sS'underrated'
p1694
I1
sS'thanniversary'
p1695
I1
sS'gd'
p1696
I1
sS'katy'
p1697
I1
sS'partial'
p1698
I1
sS'baruch'
p1699
I1
sS'steve'
p1700
I4
sS'hyper'
p1701
I2
sS'izzy'
p1702
I1
sS'freakin'
p1703
I1
sS'nung'
p1704
I1
sS'kate'
p1705
I3
sS'young'
p1706
I58
sS'culinary'
p1707
I3
sS'smelliest'
p1708
I1
sS'sorrynotsorry'
p1709
I1
sS'masculine'
p1710
I1
sS'suite'
p1711
I1
sS'dislike'
p1712
I1
sS'fatal'
p1713
I1
sS'friendly'
p1714
I4
sS'sent'
p1715
I2
sS'virtuous'
p1716
I1
sS'pistolpete'
p1717
I1
sS'outside'
p1718
I3
sS'studyweekshite'
p1719
I1
sS'colourful'
p1720
I1
sS'layingdown'
p1721
I1
sS'niallofficial'
p1722
I4
sS'harlow'
p1723
I1
sS'entire'
p1724
I24
sS'magic'
p1725
I6
sS'ornah'
p1726
I1
sS'falloutboy'
p1727
I1
sS'gettin'
p1728
I1
sS'arneduncan'
p1729
I1
sS'ryan'
p1730
I2
sS'anxious'
p1731
I3
sS'indescribable'
p1732
I1
sS'futureougrad'
p1733
I1
sS'austinhodder'
p1734
I1
sS'smaller'
p1735
I4
sS'uncomfortable'
p1736
I4
sS'shameemah'
p1737
I2
sS'warnermusic'
p1738
I1
sS'odd'
p1739
I7
sS'imasenior'
p1740
I1
sS'savebyschneider'
p1741
I1
sS'indian'
p1742
I3
sS'ahhhhh'
p1743
I1
sS'catholic'
p1744
I2
sS'chose'
p1745
I1
sS'degree'
p1746
I1
sS'lel'
p1747
I1
sS'embiid'
p1748
I1
sS'let'
p1749
I5
sS'lew'
p1750
I1
sS'sexy'
p1751
I1
sS'inaral'
p1752
I1
sS'great'
p1753
I203
sS'receive'
p1754
I4
sS'chant'
p1755
I1
sS'larger'
p1756
I2
sS'slightest'
p1757
I1
sS'jalal'
p1758
I1
sS'wid'
p1759
I1
sS'private'
p1760
I18
sS'emon'
p1761
I1
sS'dumbest'
p1762
I3
sS'seniorpower'
p1763
I1
sS'greg'
p1764
I1
sS'patron'
p1765
I1
sS'joshhubble'
p1766
I1
sS'illegal'
p1767
I3
sS'whyyyyy'
p1768
I1
sS'next'
p1769
I253
sS'procrastinate'
p1770
I1
sS'few'
p1771
I90
sS'ust'
p1772
I1
sS'scariest'
p1773
I2
sS'timetable'
p1774
I4
sS'scheller'
p1775
I1
sS'touched'
p1776
I1
sS'prized'
p1777
I1
sS'biblical'
p1778
I1
sS'musician'
p1779
I1
sS'waukegan'
p1780
I1
sS'fuck'
p1781
I4
sS'sore'
p1782
I5
sS'rubbish'
p1783
I2
sS'actual'
p1784
I21
sS'had'
p1785
I1
sS'annoy'
p1786
I1
sS'lumbee'
p1787
I1
sS'devant'
p1788
I1
sS'midterm'
p1789
I2
sS'islamabad'
p1790
I1
sS'athlete'
p1791
I3
sS'unreal'
p1792
I10
sS'obvious'
p1793
I4
sS'thin'
p1794
I1
sS'meet'
p1795
I4
sS'closing'
p1796
I1
sS'point'
p1797
I1
sS'bittersweet'
p1798
I4
sS'thirsty'
p1799
I1
sS'acary'
p1800
I1
sS'high'
p1801
I589
sS'emmakholford'
p1802
I1
sS'intramural'
p1803
I2
sS'katycat'
p1804
I1
sS'native'
p1805
I5
sS'educational'
p1806
I3
sS'united'
p1807
I1
sS'stellar'
p1808
I1
sS'lame'
p1809
I1
sS'inaugural'
p1810
I1
sS'fortunate'
p1811
I1
sS'brian'
p1812
I2
sS'wayyyy'
p1813
I1
sS'animal'
p1814
I4
sS'comedy'
p1815
I1
sS'intelligent'
p1816
I4
sS'cuffed'
p1817
I1
sS'watch'
p1818
I1
sS'elle'
p1819
I2
sS'chive'
p1820
I1
sS'frat'
p1821
I2
sS'tier'
p1822
I1
sS'upstate'
p1823
I1
sS'somethig'
p1824
I1
sS'light'
p1825
I5
sS'classy'
p1826
I3
sS'fastest'
p1827
I4
sS'thigh'
p1828
I2
sS'mute'
p1829
I1
sS'knowledgable'
p1830
I1
sS'whilst'
p1831
I2
sS'maaaan'
p1832
I1
sS'tamuc'
p1833
I1
sS'agricultural'
p1834
I1
sS'happiest'
p1835
I2
sS'perfect'
p1836
I11
sS'superior'
p1837
I1
sS'le'
p1838
I3
sS'blacademic'
p1839
I1
sS'twistin'
p1840
I7
sS'nostalgic'
p1841
I1
sS'lt'
p1842
I2
sS'willing'
p1843
I9
sS'choose'
p1844
I1
sS'orange'
p1845
I1
sS'criminal'
p1846
I1
sS'dad'
p1847
I3
sS'crash'
p1848
I1
sS'greater'
p1849
I3
sS'dan'
p1850
I2
sS'preetinyaynite'
p1851
I1
sS'renewhannibal'
p1852
I1
sS'flew'
p1853
I1
sS'dat'
p1854
I6
sS'seshed'
p1855
I1
sS'kiss'
p1856
I1
sS'front'
p1857
I2
sS'pompous'
p1858
I1
sS'maddiepouch'
p1859
I1
sS'strive'
p1860
I1
sS'contagious'
p1861
I1
sS'tish'
p1862
I1
sS'panic'
p1863
I1
sS'nfl'
p1864
I1
sS'delightful'
p1865
I1
sS'truth'
p1866
I1
sS'cursive'
p1867
I1
sS'related'
p1868
I1
sS'angelinamic'
p1869
I1
sS'meth'
p1870
I1
sS'sexual'
p1871
I15
sS'special'
p1872
I13
sS'upset'
p1873
I4
sS'mate'
p1874
I1
sS'stud'
p1875
I1
sS'hilarious'
p1876
I9
sS'red'
p1877
I1
sS'imdjdummy'
p1878
I1
sS'sleach'
p1879
I1
sS'trashy'
p1880
I1
sS'blackic'
p1881
I1
sS'diagonal'
p1882
I1
sS'greedy'
p1883
I1
sS'que'
p1884
I4
sS'tilden'
p1885
I1
sS'scary'
p1886
I22
sS'mansionelan'
p1887
I1
sS'organic'
p1888
I3
sS'hostile'
p1889
I1
sS'g'
p1890
I1
sS'steal'
p1891
I1
sS'compulsive'
p1892
I1
sS'nicjustnic'
p1893
I1
sS'david'
p1894
I3
sS'adrian'
p1895
I1
sS'retail'
p1896
I1
sS'south'
p1897
I1
sS'kendall'
p1898
I1
sS'manger'
p1899
I1
sS'finest'
p1900
I2
sS'blown'
p1901
I1
sS'blogger'
p1902
I2
sS'powerful'
p1903
I2
sS'twat'
p1904
I1
sS'bitch'
p1905
I3
sS'shellwoodard'
p1906
I1
sS'prolyphic'
p1907
I1
sS'ancient'
p1908
I1
sS'hilary'
p1909
I1
sS'gcse'
p1910
I2
sS'precautionary'
p1911
I1
sS'regurgitate'
p1912
I1
sS'carefreejamal'
p1913
I1
sS'painful'
p1914
I7
sS'craziest'
p1915
I5
sS'megan'
p1916
I2
sS'environmental'
p1917
I2
sS'gean'
p1918
I1
sS'alvast'
p1919
I1
sS'elite'
p1920
I1
sS'haven'
p1921
I1
sS'maaaadtinng'
p1922
I1
sS'remember'
p1923
I12
sS'ipad'
p1924
I1
sS'glamorous'
p1925
I1
sS'ihandle'
p1926
I1
sS'bed'
p1927
I10
sS'bet'
p1928
I3
sS'shittest'
p1929
I3
sS'sakte'
p1930
I1
sS'spelled'
p1931
I1
sS'tonight'
p1932
I8
sS'fail'
p1933
I1
sS'kairistal'
p1934
I1
sS'have'
p1935
I1
sS'disturbing'
p1936
I2
sS'yskiholic'
p1937
I1
sS'soclose'
p1938
I1
sS'unbearable'
p1939
I1
sS'afraid'
p1940
I4
sS'mic'
p1941
I2
sS'able'
p1942
I64
sS'mid'
p1943
I4
sS'souler'
p1944
I1
sS'shillong'
p1945
I1
sS'bourogh'
p1946
I1
sS'korean'
p1947
I1
sS'toughest'
p1948
I2
sS'ambitiouspinky'
p1949
I1
sS'sweeeeeet'
p1950
I1
sS'misogynistic'
p1951
I1
sS'maintenant'
p1952
I1
sS'tall'
p1953
I3
sS'intrinsic'
p1954
I1
sS'boringggggggggg'
p1955
I1
sS'hypocrite'
p1956
I1
sS'saddest'
p1957
I1
sS'enthusiastic'
p1958
I1
sS'request'
p1959
I1
sS'headlong'
p1960
I1
sS'sentral'
p1961
I1
sS'absurd'
p1962
I2
sS'mechanical'
p1963
I1
sS'xavier'
p1964
I1
sS'skinny'
p1965
I3
sS'tamaranic'
p1966
I1
sS'affair'
p1967
I1
sS'text'
p1968
I2
sS'alinsky'
p1969
I1
sS'diaphcnous'
p1970
I1
sS'unreliable'
p1971
I2
sS'utter'
p1972
I1
sS'fear'
p1973
I2
sS'debate'
p1974
I1
sS'mesabaseball'
p1975
I1
sS'holistic'
p1976
I1
sS'hopeful'
p1977
I1
sS'jan'
p1978
I1
sS'won'
p1979
I1
sS'geese'
p1980
I1
sS'handsome'
p1981
I1
sS'local'
p1982
I17
sS'inferior'
p1983
I1
sS'meant'
p1984
I4
sS'handle'
p1985
I6
sS'delirious'
p1986
I1
sS'beat'
p1987
I3
sS'familiar'
p1988
I1
sS'michigan'
p1989
I1
sS'overall'
p1990
I4
sS'lucky'
p1991
I23
sS'bear'
p1992
I2
sS'imenjoyingthismomentwaytoomuch'
p1993
I1
sS'beal'
p1994
I1
sS'tbh'
p1995
I1
sS'legitimate'
p1996
I1
sS'webcast'
p1997
I1
sS'sassy'
p1998
I1
sS'swindle'
p1999
I1
sS'marunong'
p2000
I1
sS'bmccarthy'
p2001
I1
sS'shy'
p2002
I2
sS'undergrad'
p2003
I1
sS'dearest'
p2004
I1
sS'qd'
p2005
I1
sS'nunny'
p2006
I1
sS'vier'
p2007
I2
sS'grad'
p2008
I7
sS'untrue'
p2009
I1
sS'gayahin'
p2010
I1
sS'farthest'
p2011
I2
sS'national'
p2012
I35
sS'oomf'
p2013
I1
sS'desperate'
p2014
I2
sS'packed'
p2015
I2
sS'closer'
p2016
I19
sS'nuclear'
p2017
I1
sS'horny'
p2018
I1
sS'ashleigh'
p2019
I1
sS'supernatural'
p2020
I1
sS'horrible'
p2021
I14
sS'luh'
p2022
I1
sS'govgary'
p2023
I1
sS'email'
p2024
I1
sS'greatful'
p2025
I1
sS'jor'
p2026
I1
sS'exam'
p2027
I1
sS'kunal'
p2028
I1
sS'shittiest'
p2029
I1
sS'joe'
p2030
I1
sS'key'
p2031
I16
sS'adderall'
p2032
I1
sS'precious'
p2033
I1
sS'optional'
p2034
I3
sS'instacrazy'
p2035
I1
sS'mindy'
p2036
I1
sS'equal'
p2037
I3
sS'fulfilled'
p2038
I1
sS'atleast'
p2039
I2
sS'grail'
p2040
I3
sS'ete'
p2041
I1
sS'swallow'
p2042
I1
sS'glorious'
p2043
I2
sS'doneeeeeeeeee'
p2044
I1
sS'relevant'
p2045
I1
sS'laugh'
p2046
I3
sS'table'
p2047
I3
sS'nrnr'
p2048
I1
sS'tremendous'
p2049
I2
sS'decent'
p2050
I1
sS'stmary'
p2051
I1
sS'yal'
p2052
I1
sS'yan'
p2053
I1
sS'roomate'
p2054
I1
sS'yah'
p2055
I2
sS'certain'
p2056
I12
sS'hottest'
p2057
I3
sS'waste'
p2058
I2
sS'penny'
p2059
I1
sS'retrospective'
p2060
I1
sS'finished'
p2061
I3
sS'general'
p2062
I8
sS'myflawisfatal'
p2063
I1
sS'holsworthy'
p2064
I1
sS'prestonfier'
p2065
I1
sS'harder'
p2066
I20
sS'wild'
p2067
I3
sS'medicinal'
p2068
I1
sS'bawal'
p2069
I2
sS'artisanal'
p2070
I1
sS'site'
p2071
I2
sS'helped'
p2072
I1
sS'optimistic'
p2073
I1
sS'dual'
p2074
I7
sS'trihubby'
p2075
I1
sS'vy'
p2076
I1
sS'arabic'
p2077
I2
sS'descriptive'
p2078
I1
sS'denial'
p2079
I2
sS'generic'
p2080
I1
sS'eric'
p2081
I3
sS'advan'
p2082
I1
sS'northwest'
p2083
I1
sS'largest'
p2084
I3
sS'party'
p2085
I1
sS'privileged'
p2086
I1
sS'difficult'
p2087
I11
sS'ball'
p2088
I2
sS'unconventional'
p2089
I1
sS'zpull'
p2090
I1
sS'bald'
p2091
I1
sS'infinite'
p2092
I1
sS'whale'
p2093
I1
sS'mosaic'
p2094
I1
sS'toekomstig'
p2095
I1
sS'off'
p2096
I2
sS'incredible'
p2097
I4
sS'kaylabruch'
p2098
I1
sS'thought'
p2099
I2
sS'natalieandersonphotography'
p2100
I1
sS'felonious'
p2101
I1
sS'english'
p2102
I34
sS'usual'
p2103
I7
sS'spherical'
p2104
I1
sS'taller'
p2105
I1
sS'excessive'
p2106
I1
sS'legendary'
p2107
I2
sS'less'
p2108
I54
sS'accurate'
p2109
I4
sS'executive'
p2110
I1
sS'domestic'
p2111
I1
sS'interim'
p2112
I1
sS'paul'
p2113
I4
sS'lauren'
p2114
I1
sS'wether'
p2115
I1
sS'generous'
p2116
I1
sS'rapid'
p2117
I2
sS'choquant'
p2118
I1
sS'poppingsomeonetonight'
p2119
I1
sS'smith'
p2120
I1
sS'naaaah'
p2121
I1
sS'add'
p2122
I1
sS'attractive'
p2123
I9
sS'ohhh'
p2124
I1
sS'expensiveeeeee'
p2125
I1
sS'nate'
p2126
I2
sS'identical'
p2127
I1
sS'sonic'
p2128
I2
sS'punctual'
p2129
I1
sS'monique'
p2130
I1
sS'historic'
p2131
I1
sS'facial'
p2132
I1
sS'harford'
p2133
I1
sS'necessary'
p2134
I5
sS'helpful'
p2135
I4
sS'lost'
p2136
I1
sS'clown'
p2137
I1
sS'justingenious'
p2138
I1
sS'lose'
p2139
I2
sS'become'
p2140
I2
sS'soft'
p2141
I3
sS'italian'
p2142
I1
sS'accessible'
p2143
I3
sS'classical'
p2144
I1
sS'pauline'
p2145
I1
sS'scared'
p2146
I9
sS'freshy'
p2147
I1
sS'library'
p2148
I7
sS'hair'
p2149
I3
sS'asitisofficial'
p2150
I1
sS'proper'
p2151
I8
sS'thier'
p2152
I1
sS'haaaah'
p2153
I1
sS'supportive'
p2154
I3
sS'carlsbad'
p2155
I1
sS'quidditch'
p2156
I1
sS'monday'
p2157
I2
sS'inexpensive'
p2158
I2
sS'leah'
p2159
I1
sS'liberalbutnotthatliberal'
p2160
I1
sS'vfl'
p2161
I1
sS'liketofollow'
p2162
I1
sS'comical'
p2163
I1
sS'fanny'
p2164
I1
sS'ripped'
p2165
I1
sS'journal'
p2166
I3
sS'paper'
p2167
I1
sS'worthy'
p2168
I2
sS'hypeeeee'
p2169
I1
sS'gained'
p2170
I1
sS'inconsiderate'
p2171
I2
sS'fugazy'
p2172
I1
sS'rare'
p2173
I1
sS'louisville'
p2174
I1
sS'swear'
p2175
I1
sS'moniiquekim'
p2176
I1
sS'documentary'
p2177
I2
sS'own'
p2178
I78
sS'pussy'
p2179
I2
sS'catherine'
p2180
I1
sS'functional'
p2181
I1
sS'articulate'
p2182
I1
sS'chronic'
p2183
I2
sS'camden'
p2184
I1
sS'brush'
p2185
I1
sS'female'
p2186
I3
sS'secretive'
p2187
I1
sS'pointless'
p2188
I3
sS'mere'
p2189
I1
sS'van'
p2190
I1
sS'val'
p2191
I1
sS'spiral'
p2192
I1
sS'trigger'
p2193
I1
sS'natuloy'
p2194
I1
sS'biggest'
p2195
I36
sS'toothpaste'
p2196
I1
sS'bagged'
p2197
I1
sS'hanggang'
p2198
I1
sS'washingtonpost'
p2199
I1
sS'north'
p2200
I16
sS'moravian'
p2201
I1
sS'highest'
p2202
I4
sS'eat'
p2203
I2
sS'growupple'
p2204
I1
sS'wish'
p2205
I12
sS'official'
p2206
I17
sS'birthdate'
p2207
I1
sS'garnetandgold'
p2208
I1
sS'informational'
p2209
I1
sS'herculese'
p2210
I1
sS'pensionsgalore'
p2211
I1
sS'horrific'
p2212
I2
sS'pic'
p2213
I14
sS'donneeeeeee'
p2214
I1
sS'judgemental'
p2215
I1
sS'ew'
p2216
I1
sS'jesse'
p2217
I1
sS'mutual'
p2218
I1
sS'contest'
p2219
I2
sS'eastern'
p2220
I1
sS'offensive'
p2221
I1
sS'virtual'
p2222
I1
sS'setable'
p2223
I1
sS'dapat'
p2224
I1
sS'surreal'
p2225
I4
sS'other'
p2226
I134
sS'sick'
p2227
I15
sS'talkin'
p2228
I2
sS'stimulant'
p2229
I1
sS'stat'
p2230
I1
sS'star'
p2231
I1
sS'ecstatic'
p2232
I3
sS'june'
p2233
I2
sS'regan'
p2234
I1
sS'goin'
p2235
I6
sS'ghost'
p2236
I1
sS'prevalent'
p2237
I1
sS'compete'
p2238
I1
sS'rural'
p2239
I1
sS'staygold'
p2240
I1
s.