(dp0
S'coach'
p1
I2
sS'partial'
p2
I1
sS'chinese'
p3
I2
sS'ballstothewall'
p4
I1
sS'global'
p5
I1
sS'ouch'
p6
I1
sS'yellow'
p7
I3
sS'enjoyable'
p8
I1
sS'helped'
p9
I1
sS'therandomant'
p10
I1
sS'sleep'
p11
I2
sS'asian'
p12
I1
sS'grateful'
p13
I2
sS'tore'
p14
I1
sS'chair'
p15
I1
sS'oldest'
p16
I1
sS'hate'
p17
I11
sS'chapin'
p18
I1
sS'jerome'
p19
I1
sS'sappy'
p20
I1
sS'documentary'
p21
I1
sS'careful'
p22
I1
sS'yummy'
p23
I1
sS'eligible'
p24
I2
sS'papersdue'
p25
I1
sS'young'
p26
I20
sS'thursday'
p27
I1
sS'hillsborough'
p28
I1
sS'culinary'
p29
I1
sS'bike'
p30
I1
sS'th'
p31
I2
sS'umich'
p32
I1
sS'constancehilary'
p33
I1
sS'sorry'
p34
I9
sS'te'
p35
I1
sS'hideous'
p36
I1
sS'friendly'
p37
I1
sS'sent'
p38
I1
sS'point'
p39
I1
sS'worse'
p40
I3
sS'song'
p41
I6
sS'far'
p42
I6
sS'mdanielsonmusic'
p43
I1
sS'smh'
p44
I1
sS'carefree'
p45
I1
sS'fat'
p46
I5
sS'worst'
p47
I16
sS'anonymous'
p48
I3
sS'airfare'
p49
I1
sS'awful'
p50
I6
sS'lumbee'
p51
I1
sS'fullest'
p52
I1
sS'blast'
p53
I1
sS'exact'
p54
I1
sS'cool'
p55
I16
sS'entire'
p56
I12
sS'heaven'
p57
I3
sS'magic'
p58
I1
sS'scholar'
p59
I2
sS'cable'
p60
I1
sS'gettin'
p61
I1
sS'brother'
p62
I1
sS'ryan'
p63
I2
sS'anxious'
p64
I2
sS'mile'
p65
I1
sS'cookie'
p66
I1
sS'math'
p67
I1
sS'tarrant'
p68
I1
sS'small'
p69
I6
sS'straight'
p70
I3
sS'yall'
p71
I3
sS'veritable'
p72
I1
sS'regret'
p73
I4
sS'tired'
p74
I11
sS'sigh'
p75
I1
sS'obsolete'
p76
I1
sS'sign'
p77
I1
sS'past'
p78
I13
sS'second'
p79
I33
sS'longest'
p80
I1
sS'arnold'
p81
I1
sS'uncomfortable'
p82
I3
sS'upped'
p83
I1
sS'whatismylifern'
p84
I1
sS'available'
p85
I1
sS'odd'
p86
I3
sS'fear'
p87
I1
sS'substitute'
p88
I1
sS'blue'
p89
I7
sS'stressful'
p90
I20
sS'pathetic'
p91
I3
sS'pinterest'
p92
I2
sS'imasenior'
p93
I1
sS'liberty'
p94
I2
sS'find'
p95
I6
sS'crush'
p96
I1
sS'ancient'
p97
I1
sS'new'
p98
I89
sS'net'
p99
I1
sS'public'
p100
I5
sS'full'
p101
I35
sS'christian'
p102
I4
sS'sweeter'
p103
I1
sS'degree'
p104
I1
sS'jessie'
p105
I1
sS'mr'
p106
I1
sS'dnotive'
p107
I1
sS'french'
p108
I1
sS'adrian'
p109
I1
sS'embiid'
p110
I1
sS'met'
p111
I5
sS'fluke'
p112
I1
sS'busy'
p113
I1
sS'soanxious'
p114
I1
sS'eventful'
p115
I1
sS'strong'
p116
I6
sS'maddiepouch'
p117
I1
sS'shellfish'
p118
I1
sS'dry'
p119
I1
sS'great'
p120
I79
sS'stark'
p121
I1
sS'daughter'
p122
I1
sS'smarter'
p123
I1
sS'canadian'
p124
I1
sS'healthy'
p125
I3
sS'reminiscent'
p126
I1
sS'wherever'
p127
I1
sS'brutal'
p128
I2
sS'mac'
p129
I1
sS'zahier'
p130
I1
sS'healthier'
p131
I2
sS'slightest'
p132
I1
sS'edtech'
p133
I1
sS'patriotic'
p134
I1
sS'military'
p135
I10
sS'weird'
p136
I26
sS'struggle'
p137
I1
sS'sweeeeeet'
p138
I1
sS'fantastic'
p139
I5
sS'donneeeeeee'
p140
I1
sS'love'
p141
I9
sS'extra'
p142
I8
sS'unic'
p143
I1
sS'wesleyan'
p144
I1
sS'solitude'
p145
I1
sS'compare'
p146
I1
sS'private'
p147
I7
sS'emon'
p148
I1
sS'moral'
p149
I1
sS'socioeconomic'
p150
I1
sS'total'
p151
I1
sS'sarah'
p152
I2
sS'patron'
p153
I1
sS'illegal'
p154
I1
sS'hospital'
p155
I1
sS'dude'
p156
I1
sS'negative'
p157
I2
sS'next'
p158
I98
sS'few'
p159
I38
sS'live'
p160
I11
sS'music'
p161
I11
sS'researchpaper'
p162
I1
sS'gorgeous'
p163
I2
sS'mediocre'
p164
I1
sS'actin'
p165
I1
sS'unthinkable'
p166
I1
sS'more'
p167
I143
sS'mystical'
p168
I1
sS'prized'
p169
I1
sS'fellow'
p170
I1
sS'african'
p171
I1
sS'successful'
p172
I21
sS'naive'
p173
I1
sS'musician'
p174
I1
sS'nbcsn'
p175
I1
sS'aware'
p176
I2
sS'sore'
p177
I2
sS'asheville'
p178
I1
sS'ignorant'
p179
I1
sS'broke'
p180
I1
sS'subhuman'
p181
I1
sS'rare'
p182
I1
sS'easiest'
p183
I4
sS'glad'
p184
I25
sS'topic'
p185
I2
sS'graphic'
p186
I2
sS'bartender'
p187
I1
sS'dreadful'
p188
I1
sS'conscious'
p189
I2
sS'humungous'
p190
I1
sS'recall'
p191
I1
sS'athlete'
p192
I1
sS'roomate'
p193
I1
sS'cat'
p194
I2
sS'hardest'
p195
I10
sS'unreal'
p196
I5
sS'obvious'
p197
I4
sS'morgan'
p198
I1
sS'cal'
p199
I4
sS'meet'
p200
I3
sS'spontaneous'
p201
I1
sS'def'
p202
I2
sS'pick'
p203
I3
sS'beautiful'
p204
I9
sS'bittersweet'
p205
I2
sS'crazy'
p206
I23
sS'seniorpower'
p207
I1
sS'thirsty'
p208
I1
sS'give'
p209
I6
sS'awesome'
p210
I4
sS'confused'
p211
I1
sS'lingual'
p212
I1
sS'high'
p213
I261
sS'ready'
p214
I67
sS'minimum'
p215
I1
sS'slender'
p216
I1
sS'want'
p217
I13
sS'foreveraspartan'
p218
I1
sS'stole'
p219
I2
sS'sdh'
p220
I1
sS'beerinthebackpack'
p221
I1
sS'crucial'
p222
I1
sS'huge'
p223
I12
sS'respective'
p224
I1
sS'productive'
p225
I5
sS'awkward'
p226
I1
sS'january'
p227
I5
sS'grosser'
p228
I1
sS'fortunate'
p229
I1
sS'write'
p230
I2
sS'brian'
p231
I2
sS'louisville'
p232
I1
sS'tooeasy'
p233
I1
sS'silent'
p234
I1
sS'fourth'
p235
I1
sS'answer'
p236
I1
sS'comedy'
p237
I1
sS'intelligent'
p238
I2
sS'classify'
p239
I1
sS'jborcky'
p240
I1
sS'unbelievable'
p241
I1
sS'regional'
p242
I2
sS'laundry'
p243
I2
sS'rude'
p244
I2
sS'glamorous'
p245
I1
sS'stop'
p246
I5
sS'cordmn'
p247
I1
sS'ballsy'
p248
I1
sS'educational'
p249
I1
sS'panoramic'
p250
I1
sS'wrong'
p251
I19
sS'united'
p252
I1
sS'mad'
p253
I3
sS'softball'
p254
I1
sS'tier'
p255
I1
sS'such'
p256
I33
sS'unacceptable'
p257
I1
sS'eighth'
p258
I1
sS'scressful'
p259
I2
sS'stress'
p260
I2
sS'vfl'
p261
I1
sS'natural'
p262
I2
sS'remember'
p263
I6
sS'third'
p264
I6
sS'resemble'
p265
I1
sS'advil'
p266
I1
sS'hahahah'
p267
I1
sS'appreciate'
p268
I1
sS'volleyball'
p269
I1
sS'st'
p270
I2
sS'greek'
p271
I1
sS'green'
p272
I4
sS'ultimate'
p273
I3
sS'enter'
p274
I1
sS'fan'
p275
I2
sS'typical'
p276
I5
sS'burnt'
p277
I1
sS'cute'
p278
I16
sS'alinsky'
p279
I1
sS'cumulative'
p280
I1
sS'mute'
p281
I1
sS'september'
p282
I1
sS'ged'
p283
I1
sS'hannahwhang'
p284
I1
sS'layingdown'
p285
I1
sS'lyric'
p286
I1
sS'tamuc'
p287
I1
sS'victoriajean'
p288
I1
sS'cold'
p289
I1
sS'newgoal'
p290
I1
sS'sassy'
p291
I1
sS'unhealthy'
p292
I1
sS'perfect'
p293
I6
sS'superior'
p294
I1
sS'avid'
p295
I1
sS'twitter'
p296
I1
sS'call'
p297
I1
sS'personal'
p298
I6
sS'interesting'
p299
I8
sS'dramatic'
p300
I1
sS'twistin'
p301
I4
sS'sexiest'
p302
I1
sS'hot'
p303
I6
sS'faaarr'
p304
I1
sS'better'
p305
I50
sS'skinny'
p306
I2
sS'lt'
p307
I1
sS'willing'
p308
I6
sS'criminal'
p309
I1
sS'easier'
p310
I7
sS'dad'
p311
I2
sS'non'
p312
I1
sS'good'
p313
I152
sS'goblue'
p314
I1
sS'animal'
p315
I1
sS'disrespectful'
p316
I1
sS'countrysweetgal'
p317
I2
sS'safe'
p318
I3
sS'sarcastic'
p319
I1
sS'dat'
p320
I1
sS'roommate'
p321
I2
sS'sentimental'
p322
I2
sS'shameful'
p323
I1
sS'legendary'
p324
I1
sS'front'
p325
I1
sS'yr'
p326
I1
sS'jsnyder'
p327
I1
sS'touched'
p328
I1
sS'bigger'
p329
I2
sS'respectful'
p330
I1
sS'diary'
p331
I1
sS'greg'
p332
I1
sS'sonervous'
p333
I1
sS'sophomore'
p334
I7
sS'tish'
p335
I1
sS'beach'
p336
I1
sS'nfl'
p337
I1
sS'realistic'
p338
I2
sS'eager'
p339
I1
sS'reasonable'
p340
I1
sS'h'
p341
I1
sS'alexscott'
p342
I1
sS'went'
p343
I2
sS'higher'
p344
I2
sS'mean'
p345
I5
sS'heavy'
p346
I4
sS'brendalicious'
p347
I1
sS'square'
p348
I1
sS'financial'
p349
I6
sS'mental'
p350
I4
sS'weight'
p351
I1
sS'short'
p352
I1
sS'fish'
p353
I2
sS'hard'
p354
I36
sS'ft'
p355
I1
sS'yeah'
p356
I1
sS'used'
p357
I1
sS'ball'
p358
I1
sS'fewer'
p359
I1
sS'navy'
p360
I1
sS'kpmg'
p361
I1
sS'happen'
p362
I2
sS'sexual'
p363
I3
sS'special'
p364
I1
sS'relive'
p365
I2
sS'leave'
p366
I1
sS'gon'
p367
I61
sS'oprah'
p368
I1
sS'open'
p369
I14
sS'childish'
p370
I5
sS'hooked'
p371
I1
sS'mattie'
p372
I1
sS'upset'
p373
I3
sS'acting'
p374
I2
sS'hilarious'
p375
I3
sS'growthefuckupkid'
p376
I1
sS'red'
p377
I1
sS'common'
p378
I3
sS'ass'
p379
I1
sS'fun'
p380
I4
sS'asleep'
p381
I1
sS'earlier'
p382
I2
sS'sleach'
p383
I1
sS'trashy'
p384
I1
sS'cutest'
p385
I1
sS'dontwanttograduate'
p386
I1
sS'satanic'
p387
I1
sS'eternal'
p388
I1
sS'free'
p389
I50
sS'quick'
p390
I3
sS'wal'
p391
I1
sS'anthonyfinkral'
p392
I1
sS'brightest'
p393
I1
sS'carl'
p394
I1
sS'teach'
p395
I1
sS'earliest'
p396
I1
sS'inevitable'
p397
I1
sS'certified'
p398
I1
sS'care'
p399
I1
sS'suny'
p400
I1
sS'scary'
p401
I10
sS'underwear'
p402
I1
sS'ate'
p403
I1
sS'organic'
p404
I2
sS'launch'
p405
I1
sS'watty'
p406
I1
sS'steal'
p407
I1
sS'worth'
p408
I5
sS'inexpensive'
p409
I1
sS'terrible'
p410
I3
sS'british'
p411
I1
sS'honest'
p412
I2
sS'american'
p413
I9
sS'ish'
p414
I1
sS'speedy'
p415
I1
sS'isn'
p416
I3
sS'theterrible'
p417
I1
sS'existential'
p418
I2
sS'loud'
p419
I2
sS'fuckin'
p420
I1
sS'first'
p421
I362
sS'exotic'
p422
I1
sS'cheese'
p423
I4
sS'major'
p424
I36
sS'finest'
p425
I1
sS'dont'
p426
I3
sS'reaaaal'
p427
I2
sS'blown'
p428
I1
sS'gettingcreative'
p429
I1
sS'relate'
p430
I1
sS'theeproblematic'
p431
I1
sS'caryscary'
p432
I1
sS'sympathy'
p433
I1
sS'long'
p434
I22
sS'savebyschneider'
p435
I1
sS'spanish'
p436
I5
sS'miserable'
p437
I3
sS'impossible'
p438
I1
sS'miss'
p439
I6
sS'little'
p440
I23
sS'basketball'
p441
I2
sS'guest'
p442
I1
sS'top'
p443
I14
sS'jwilliamsmusic'
p444
I1
sS'hilary'
p445
I1
sS'least'
p446
I33
sS'plastic'
p447
I1
sS'reppin'
p448
I1
sS'wonderful'
p449
I6
sS'racist'
p450
I1
sS'white'
p451
I5
sS'kid'
p452
I11
sS'bitter'
p453
I4
sS'final'
p454
I82
sS'mermaid'
p455
I1
sS'xavier'
p456
I1
sS'easyyyyyyy'
p457
I1
sS'illiterate'
p458
I1
sS'craziest'
p459
I2
sS'pittsburgh'
p460
I1
sS'update'
p461
I1
sS'huh'
p462
I1
sS'immediate'
p463
I1
sS'environmental'
p464
I2
sS'hillary'
p465
I1
sS'ridiculous'
p466
I10
sS'jordan'
p467
I1
sS'western'
p468
I2
sS'gean'
p469
I1
sS'believe'
p470
I1
sS'elite'
p471
I1
sS'wide'
p472
I1
sS'kind'
p473
I1
sS'grew'
p474
I1
sS'mahal'
p475
I1
sS'double'
p476
I3
sS'expressive'
p477
I1
sS'greatful'
p478
I1
sS'likely'
p479
I4
sS'bed'
p480
I6
sS'youth'
p481
I1
sS'whenever'
p482
I1
sS'female'
p483
I2
sS'stall'
p484
I1
sS'spoiled'
p485
I1
sS'dang'
p486
I3
sS'dumb'
p487
I1
sS'seminary'
p488
I1
sS'spinal'
p489
I1
sS'whaterbuger'
p490
I1
sS'futureougrad'
p491
I1
sS'rad'
p492
I1
sS'ang'
p493
I1
sS'thestruggleisreal'
p494
I1
sS'doneee'
p495
I1
sS'boston'
p496
I1
sS'mine'
p497
I6
sS'sad'
p498
I23
sS'tonight'
p499
I3
sS'rigorous'
p500
I1
sS'dislike'
p501
I1
sS'kaylabruch'
p502
I1
sS'have'
p503
I1
sS'disturbing'
p504
I1
sS'nonchelant'
p505
I1
sS'breakfast'
p506
I2
sS'soclose'
p507
I1
sS'alive'
p508
I6
sS'sat'
p509
I1
sS'imold'
p510
I1
sS'screw'
p511
I1
sS'afraid'
p512
I2
sS'convenient'
p513
I2
sS'mic'
p514
I2
sS'responsible'
p515
I2
sS'able'
p516
I23
sS'mid'
p517
I1
sS'couch'
p518
I2
sS'ideal'
p519
I1
sS'potential'
p520
I3
sS'packed'
p521
I1
sS'impressive'
p522
I1
sS'bourogh'
p523
I1
sS'cofc'
p524
I1
sS'toughest'
p525
I1
sS'pete'
p526
I2
sS'play'
p527
I1
sS'sure'
p528
I30
sS'multiple'
p529
I1
sS'electric'
p530
I1
sS'normal'
p531
I12
sS'phast'
p532
I1
sS'classy'
p533
I1
sS'moravian'
p534
I1
sS'anatomy'
p535
I1
sS'most'
p536
I41
sS'regular'
p537
I10
sS'plenty'
p538
I1
sS'tall'
p539
I2
sS'future'
p540
I26
sS'intrinsic'
p541
I1
sS'peaceful'
p542
I1
sS'forever'
p543
I1
sS'don'
p544
I10
sS'saddest'
p545
I1
sS'clear'
p546
I2
sS'later'
p547
I6
sS'request'
p548
I1
sS'hungry'
p549
I7
sS'traditional'
p550
I1
sS'govgary'
p551
I1
sS'tech'
p552
I3
sS'clean'
p553
I3
sS'professional'
p554
I5
sS'senior'
p555
I102
sS'usual'
p556
I1
sS'technical'
p557
I2
sS'belle'
p558
I1
sS'cinnamon'
p559
I1
sS'hunger'
p560
I1
sS'anniversary'
p561
I1
sS'georgiastate'
p562
I1
sS'bright'
p563
I6
sS'jordanian'
p564
I1
sS'unreliable'
p565
I2
sS'earth'
p566
I3
sS'rough'
p567
I2
sS'takin'
p568
I1
sS'debate'
p569
I1
sS'current'
p570
I4
sS'mesabaseball'
p571
I1
sS'slow'
p572
I4
sS'sayin'
p573
I1
sS'northern'
p574
I2
sS'nervous'
p575
I8
sS'stooooopppppiiiidddd'
p576
I1
sS'hopeful'
p577
I1
sS'eat'
p578
I2
sS'foward'
p579
I1
sS'only'
p580
I47
sS'won'
p581
I1
sS'black'
p582
I6
sS'hockey'
p583
I1
sS'rich'
p584
I6
sS'teary'
p585
I1
sS'espngolic'
p586
I1
sS'local'
p587
I7
sS'congressional'
p588
I1
sS'aderall'
p589
I1
sS'handle'
p590
I2
sS'steventurous'
p591
I1
sS'tacky'
p592
I1
sS'delirious'
p593
I1
sS'beat'
p594
I2
sS'assistant'
p595
I2
sS'michigan'
p596
I1
sS'overall'
p597
I1
sS'lucky'
p598
I10
sS'bear'
p599
I1
sS'cheaper'
p600
I2
sS'famous'
p601
I7
sS'icdc'
p602
I1
sS'fastest'
p603
I3
sS'international'
p604
I2
sS'nasty'
p605
I1
sS'judged'
p606
I1
sS'domestic'
p607
I1
sS'smash'
p608
I1
sS'bmccarthy'
p609
I1
sS'autistic'
p610
I1
sS'shy'
p611
I1
sS'tscan'
p612
I1
sS'cry'
p613
I2
sS'nahmean'
p614
I1
sS'ahhhhh'
p615
I1
sS'bad'
p616
I52
sS'stupid'
p617
I20
sS'withy'
p618
I1
sS'fugggggggg'
p619
I1
sS'though'
p620
I1
sS'analytical'
p621
I1
sS'grad'
p622
I4
sS'mustcelebrate'
p623
I1
sS'insane'
p624
I1
sS'ethical'
p625
I1
sS'fair'
p626
I1
sS'national'
p627
I10
sS'jordancornish'
p628
I1
sS'opposite'
p629
I1
sS'college'
p630
I3
sS'desperate'
p631
I1
sS'hell'
p632
I1
sS'corrupt'
p633
I1
sS'close'
p634
I10
sS'best'
p635
I131
sS'closer'
p636
I11
sS'glue'
p637
I1
sS'bryceenglish'
p638
I1
sS'library'
p639
I1
sS'federal'
p640
I2
sS'nuclear'
p641
I1
sS'ugly'
p642
I1
sS'knoxville'
p643
I1
sS'electoral'
p644
I3
sS'enough'
p645
I6
sS'shortsmurfsmith'
p646
I1
sS'horrible'
p647
I8
sS'warnermusic'
p648
I1
sS'veterinarian'
p649
I1
sS'numerous'
p650
I1
sS'email'
p651
I1
sS'affordable'
p652
I1
sS'indecisive'
p653
I3
sS'lazy'
p654
I5
sS'relatable'
p655
I1
sS'omg'
p656
I1
sS'august'
p657
I4
sS'nationwide'
p658
I1
sS'prettiest'
p659
I1
sS'microwaveable'
p660
I1
sS'weak'
p661
I2
sS'metal'
p662
I2
sS'sunny'
p663
I1
sS'wear'
p664
I10
sS'key'
p665
I10
sS'garnetandgold'
p666
I1
sS'precious'
p667
I1
sS'youngest'
p668
I2
sS'c'
p669
I1
sS'daddy'
p670
I1
sS'last'
p671
I413
sS'hesitant'
p672
I1
sS'many'
p673
I65
sS'ill'
p674
I2
sS'annual'
p675
I2
sS'equal'
p676
I1
sS'involve'
p677
I1
sS'grail'
p678
I2
sS'bangle'
p679
I1
sS'jdjasper'
p680
I1
sS'swallow'
p681
I1
sS'whole'
p682
I45
sS'doneeeeeeeeee'
p683
I1
sS'lookin'
p684
I1
sS'comparative'
p685
I1
sS'flier'
p686
I1
sS'tough'
p687
I5
sS'very'
p688
I2
sS'drunk'
p689
I1
sS'simple'
p690
I3
sS'sweet'
p691
I7
sS'irresponsible'
p692
I1
sS'pop'
p693
I1
sS'youarewrong'
p694
I1
sS'pole'
p695
I1
sS'danny'
p696
I4
sS'initiative'
p697
I1
sS'table'
p698
I1
sS'extinct'
p699
I1
sS'nostalgic'
p700
I1
sS'convertible'
p701
I1
sS'expensive'
p702
I12
sS'san'
p703
I2
sS'late'
p704
I16
sS'unusual'
p705
I1
sS'light'
p706
I1
sS'teammate'
p707
I1
sS'capable'
p708
I2
sS'tremendous'
p709
I1
sS'west'
p710
I2
sS'create'
p711
I1
sS'political'
p712
I3
sS'due'
p713
I8
sS'tropical'
p714
I2
sS'confident'
p715
I4
sS'much'
p716
I35
sS'damn'
p717
I1
sS'yah'
p718
I2
sS'basic'
p719
I3
sS'rollin'
p720
I1
sS'hottest'
p721
I1
sS'lovely'
p722
I1
sS'empty'
p723
I1
sS'threw'
p724
I1
sS'anthony'
p725
I1
sS'finished'
p726
I2
sS'bible'
p727
I5
sS'mindy'
p728
I1
sS'worked'
p729
I1
sS'affirmative'
p730
I1
sS'irrelevant'
p731
I3
sS'former'
p732
I4
sS'nashgrier'
p733
I1
sS'applied'
p734
I1
sS'main'
p735
I2
sS'prestigious'
p736
I1
sS'solid'
p737
I2
sS'moneyyyyy'
p738
I1
sS'reliable'
p739
I1
sS'harder'
p740
I12
sS'kentucky'
p741
I2
sS'n'
p742
I2
sS'feelingaccomplished'
p743
I2
sS'near'
p744
I1
sS'ongoing'
p745
I1
sS'eid'
p746
I1
sS'wild'
p747
I3
sS'medicinal'
p748
I1
sS'vernal'
p749
I1
sS'identical'
p750
I1
sS'provocative'
p751
I1
sS'alcoholic'
p752
I4
sS'guilty'
p753
I1
sS'ljulian'
p754
I1
sS'ive'
p755
I8
sS'middle'
p756
I3
sS'cant'
p757
I8
sS'sudden'
p758
I1
sS'im'
p759
I6
sS'optimistic'
p760
I1
sS'dual'
p761
I1
sS'trihubby'
p762
I1
sS'ironic'
p763
I1
sS'ave'
p764
I2
sS'rid'
p765
I2
sS'theblackpilgrim'
p766
I1
sS'id'
p767
I3
sS'worry'
p768
I1
sS'descriptive'
p769
I1
sS'funny'
p770
I15
sS'different'
p771
I23
sS'denial'
p772
I2
sS'anymore'
p773
I3
sS'large'
p774
I2
sS'katiecouric'
p775
I1
sS'belong'
p776
I1
sS'same'
p777
I43
sS'eric'
p778
I1
sS'austinhodder'
p779
I1
sS'dean'
p780
I3
sS'strange'
p781
I1
sS'largest'
p782
I1
sS'party'
p783
I1
sS'lenient'
p784
I1
sS'several'
p785
I1
sS'imeishaziglar'
p786
I1
sS'sunacomusic'
p787
I1
sS'difficult'
p788
I5
sS'independent'
p789
I1
sS'finish'
p790
I9
sS'temporary'
p791
I1
sS'unconventional'
p792
I1
sS'catholic'
p793
I1
sS'zpull'
p794
I1
sS'social'
p795
I9
sS'hang'
p796
I5
sS'therealamberm'
p797
I1
sS'average'
p798
I3
sS'costliest'
p799
I1
sS'commercial'
p800
I1
sS'jealous'
p801
I8
sS'hellquotemeright'
p802
I1
sS'infamous'
p803
I1
sS'recent'
p804
I6
sS'lower'
p805
I1
sS'chronic'
p806
I1
sS'thy'
p807
I1
sS'older'
p808
I7
sS'try'
p809
I1
sS'gdddd'
p810
I1
sS'persuasive'
p811
I1
sS'spent'
p812
I2
sS'thankful'
p813
I11
sS'ocean'
p814
I2
sS'academic'
p815
I1
sS'cheer'
p816
I2
sS'thisispathetic'
p817
I1
sS'greatest'
p818
I6
sS'english'
p819
I11
sS'y'
p820
I4
sS'traffic'
p821
I2
sS'whitomatic'
p822
I1
sS'musical'
p823
I4
sS'latest'
p824
I1
sS'seasonal'
p825
I1
sS'summer'
p826
I3
sS'taller'
p827
I1
sS'kale'
p828
I1
sS'less'
p829
I29
sS'athletic'
p830
I6
sS'accurate'
p831
I4
sS'sleepy'
p832
I1
sS'unfair'
p833
I1
sS'competitive'
p834
I1
sS'accumulative'
p835
I1
sS'relevant'
p836
I1
sS'human'
p837
I2
sS'lauren'
p838
I1
sS'previous'
p839
I1
sS'shellwoodard'
p840
I1
sS'mother'
p841
I1
sS'xtian'
p842
I1
sS'drive'
p843
I3
sS'turnt'
p844
I1
sS'nexttonormal'
p845
I1
sS'arrest'
p846
I1
sS'studious'
p847
I1
sS'other'
p848
I50
sS'attractive'
p849
I2
sS'easy'
p850
I17
sS'east'
p851
I1
sS'hat'
p852
I1
sS'real'
p853
I81
sS'sonic'
p854
I2
sS'insensitive'
p855
I1
sS'spectacular'
p856
I1
sS'read'
p857
I1
sS'big'
p858
I41
sS'possible'
p859
I8
sS'early'
p860
I13
sS'historic'
p861
I1
sS'unprotected'
p862
I1
sS'mon'
p863
I1
sS'disappointed'
p864
I1
sS'harford'
p865
I1
sS'rear'
p866
I1
sS'monicastieh'
p867
I1
sS'necessary'
p868
I4
sS'd'
p869
I8
sS'kennedy'
p870
I1
sS'pregnant'
p871
I2
sS'unnecessary'
p872
I3
sS'clown'
p873
I1
sS'talkin'
p874
I1
sS'specific'
p875
I1
sS'girl'
p876
I1
sS't'
p877
I242
sS'justingenious'
p878
I1
sS'lose'
p879
I1
sS'popular'
p880
I5
sS'passionate'
p881
I3
sS'stationary'
p882
I1
sS'essential'
p883
I1
sS'accessible'
p884
I1
sS'portuguese'
p885
I1
sS'google'
p886
I3
sS'tinderboxmusic'
p887
I1
sS'ole'
p888
I1
sS'ugh'
p889
I2
sS'scared'
p890
I3
sS'locust'
p891
I1
sS'dead'
p892
I12
sS'jennifer'
p893
I1
sS'intern'
p894
I1
sS'felonious'
p895
I1
sS'scrabble'
p896
I1
sS'candy'
p897
I1
sS'proper'
p898
I1
sS'curious'
p899
I5
sS'supportive'
p900
I1
sS'sheesh'
p901
I1
sS'carlsbad'
p902
I1
sS'viral'
p903
I1
sS'ecstatic'
p904
I1
sS'llorian'
p905
I1
sS'stronger'
p906
I2
sS'liberalbutnotthatliberal'
p907
I1
sS'slick'
p908
I1
sS'legal'
p909
I1
sS'creative'
p910
I1
sS'critical'
p911
I3
sS'central'
p912
I3
sS'indelible'
p913
I1
sS'dreambig'
p914
I1
sS'comical'
p915
I1
sS'fanny'
p916
I1
sS'airheat'
p917
I1
sS'truth'
p918
I1
sS'intimate'
p919
I1
sS'amazig'
p920
I1
sS'equivalent'
p921
I2
sS'loudest'
p922
I1
sS'immature'
p923
I2
sS'defensive'
p924
I1
sS'worthy'
p925
I1
sS'memorable'
p926
I1
sS'exciting'
p927
I2
sS'super'
p928
I11
sS'intense'
p929
I2
sS'kendall'
p930
I1
sS'gained'
p931
I1
sS'inconsiderate'
p932
I1
sS'cautious'
p933
I1
sS'actual'
p934
I8
sS'oh'
p935
I5
sS'lamest'
p936
I1
sS'delish'
p937
I1
sS'favorite'
p938
I24
sS'greater'
p939
I1
sS'monthly'
p940
I1
sS'daylong'
p941
I1
sS'cherish'
p942
I1
sS'sumwhat'
p943
I1
sS'idc'
p944
I1
sS'own'
p945
I29
sS'civic'
p946
I1
sS'act'
p947
I1
sS'catherine'
p948
I1
sS'articulate'
p949
I1
sS'respectable'
p950
I2
sS'right'
p951
I3
sS'camden'
p952
I1
sS'brush'
p953
I1
sS'homeless'
p954
I4
sS'elementary'
p955
I8
sS'old'
p956
I56
sS'valuable'
p957
I1
sS'didn'
p958
I1
sS'positive'
p959
I5
sS'croatoan'
p960
I2
sS'wan'
p961
I23
sS'hellhole'
p962
I1
sS'val'
p963
I1
sS'sneaky'
p964
I1
sS'pager'
p965
I1
sS'jealousy'
p966
I1
sS'fast'
p967
I11
sS'mybaby'
p968
I1
sS'low'
p969
I1
sS'summertime'
p970
I1
sS'bruh'
p971
I1
sS'biggest'
p972
I16
sS'turnuportransfer'
p973
I1
sS'etch'
p974
I1
sS'hysterical'
p975
I2
sS'redbull'
p976
I1
sS'happy'
p977
I41
sS'bagged'
p978
I1
sS'head'
p979
I1
sS'north'
p980
I6
sS'complete'
p981
I13
sS'snowbunny'
p982
I1
sS'stimulant'
p983
I1
sS'jewish'
p984
I1
sS'edified'
p985
I1
sS'hypocrite'
p986
I1
sS'extended'
p987
I1
sS'pinky'
p988
I1
sS'larry'
p989
I1
sS'hear'
p990
I2
sS'uofsc'
p991
I1
sS'wnt'
p992
I1
sS'survive'
p993
I4
sS'masc'
p994
I1
sS'highest'
p995
I2
sS'true'
p996
I12
sS'junior'
p997
I49
sS'faster'
p998
I6
sS'waste'
p999
I2
sS'offical'
p1000
I1
sS'wish'
p1001
I5
sS'official'
p1002
I7
sS'oldrowofficial'
p1003
I1
sS'tellin'
p1004
I1
sS'ul'
p1005
I2
sS'ncstate'
p1006
I1
sS'native'
p1007
I3
sS'dirty'
p1008
I2
sS'mature'
p1009
I2
sS'precalc'
p1010
I1
sS'emotional'
p1011
I5
sS'fried'
p1012
I2
sS'similar'
p1013
I2
sS'medical'
p1014
I3
sS'rust'
p1015
I1
sS'proud'
p1016
I14
sS'liberal'
p1017
I4
sS'johnny'
p1018
I2
sS'certain'
p1019
I3
sS'pic'
p1020
I6
sS'doesn'
p1021
I1
sS'general'
p1022
I4
sS'single'
p1023
I14
sS'diverse'
p1024
I1
sS'nytnational'
p1025
I1
sS'emalilaine'
p1026
I1
sS'finalfinal'
p1027
I1
sS'check'
p1028
I1
sS'shit'
p1029
I2
sS'physical'
p1030
I1
sS'incorrect'
p1031
I1
sS'selfish'
p1032
I3
sS'accoplish'
p1033
I1
sS'contest'
p1034
I2
sS'aeronautical'
p1035
I1
sS'nah'
p1036
I1
sS'realest'
p1037
I1
sS'icant'
p1038
I1
sS'graduate'
p1039
I12
sS'surreal'
p1040
I2
sS'interested'
p1041
I6
sS'sick'
p1042
I3
sS'forcing'
p1043
I2
sS'acceptable'
p1044
I3
sS'arithmetic'
p1045
I1
sS'nice'
p1046
I24
sS'poor'
p1047
I13
sS'star'
p1048
I1
sS'vocabulary'
p1049
I1
sS'gross'
p1050
I1
sS'weirdest'
p1051
I1
sS'diet'
p1052
I1
sS'belive'
p1053
I1
sS'wah'
p1054
I1
sS'important'
p1055
I14
sS'tigerfest'
p1056
I1
sS'fresh'
p1057
I9
sS'formal'
p1058
I2
sS'tfamous'
p1059
I1
sS'entertaining'
p1060
I2
sS'legitimate'
p1061
I1
sS'goin'
p1062
I1
sS'younger'
p1063
I3
sS'happier'
p1064
I2
sS'longer'
p1065
I4
sS'prevalent'
p1066
I1
sS'unnatural'
p1067
I1
sS'visual'
p1068
I1
sS'daily'
p1069
I4
sS'staygold'
p1070
I1
sS'casual'
p1071
I2
sS'loyal'
p1072
I3
sS'gal'
p1073
I1
sS'newnansfinest'
p1074
I1
sS'god'
p1075
I2
sS'serious'
p1076
I13
sS'underrated'
p1077
I1
sS'receive'
p1078
I2
sS'desprite'
p1079
I1
s.