(dp0
S'suicidal'
p1
I1
sS'foul'
p2
I2
sS'sleep'
p3
I5
sS'asian'
p4
I2
sS'controversial'
p5
I1
sS'oldest'
p6
I1
sS'hate'
p7
I37
sS'drinkin'
p8
I1
sS'vandal'
p9
I1
sS'eligible'
p10
I2
sS'tweet'
p11
I1
sS'cushy'
p12
I2
sS'bike'
p13
I1
sS'sorry'
p14
I26
sS'pride'
p15
I1
sS'worth'
p16
I27
sS'mdanielsonmusic'
p17
I1
sS'regional'
p18
I3
sS'yellow'
p19
I4
sS'viral'
p20
I1
sS'scholar'
p21
I4
sS'plattsburgh'
p22
I1
sS'stereotypical'
p23
I2
sS'kdorvilier'
p24
I1
sS'straight'
p25
I13
sS'enjoy'
p26
I2
sS'veritable'
p27
I1
sS'cunyfirst'
p28
I1
sS'tired'
p29
I22
sS'borgeousmusic'
p30
I1
sS'request'
p31
I1
sS'second'
p32
I94
sS'fabulous'
p33
I1
sS'wagoner'
p34
I1
sS'rigorous'
p35
I4
sS'air'
p36
I1
sS'expressive'
p37
I1
sS'blue'
p38
I19
sS'liberty'
p39
I4
sS'bipolar'
p40
I1
sS'new'
p41
I253
sS'net'
p42
I1
sS'told'
p43
I2
sS'zach'
p44
I1
sS'jessie'
p45
I1
sS'shoosh'
p46
I8
sS'even'
p47
I1
sS'residual'
p48
I1
sS'anticlimactic'
p49
I1
sS'met'
p50
I9
sS'soanxious'
p51
I1
sS'active'
p52
I1
sS'dry'
p53
I2
sS'daughter'
p54
I4
sS'sweeet'
p55
I1
sS'zahier'
p56
I1
sS'stressed'
p57
I1
sS'military'
p58
I12
sS'naturey'
p59
I1
sS'golden'
p60
I1
sS'fantastic'
p61
I8
sS'unic'
p62
I1
sS'moral'
p63
I1
sS'socioeconomic'
p64
I1
sS'total'
p65
I2
sS'scarier'
p66
I1
sS'sarah'
p67
I2
sS'army'
p68
I1
sS'hospital'
p69
I2
sS'negative'
p70
I4
sS'music'
p71
I38
sS'whittier'
p72
I2
sS'petal'
p73
I1
sS'survive'
p74
I6
sS'tryin'
p75
I2
sS'mystical'
p76
I1
sS'successful'
p77
I58
sS'naive'
p78
I1
sS'subtweet'
p79
I1
sS'aware'
p80
I3
sS'immature'
p81
I3
sS'bartender'
p82
I1
sS'cheapest'
p83
I1
sS'captainzac'
p84
I1
sS'cuddle'
p85
I1
sS'sweeter'
p86
I1
sS'mr'
p87
I2
sS'looooong'
p88
I2
sS'give'
p89
I18
sS'involve'
p90
I1
sS'want'
p91
I32
sS'david'
p92
I1
sS'absolute'
p93
I2
sS'very'
p94
I3
sS'hot'
p95
I32
sS'ig'
p96
I1
sS'answer'
p97
I1
sS'fabulousdarline'
p98
I1
sS'beach'
p99
I4
sS'classify'
p100
I1
sS'jborcky'
p101
I1
sS'queensizedtempurpedic'
p102
I1
sS'mess'
p103
I2
sS'earlier'
p104
I11
sS'wrong'
p105
I48
sS'lay'
p106
I1
sS'lesbian'
p107
I2
sS'complacent'
p108
I1
sS'danny'
p109
I4
sS'third'
p110
I16
sS'appreciate'
p111
I2
sS'greek'
p112
I2
sS'green'
p113
I8
sS'ultimate'
p114
I9
sS'enter'
p115
I1
sS'aloud'
p116
I1
sS'fan'
p117
I2
sS'make'
p118
I1
sS'blind'
p119
I1
sS'affect'
p120
I1
sS'victoriajean'
p121
I1
sS'newgoal'
p122
I1
sS'tnasty'
p123
I1
sS'murrah'
p124
I1
sS'fit'
p125
I3
sS'personal'
p126
I13
sS'crew'
p127
I1
sS'better'
p128
I145
sS'complex'
p129
I1
sS'easier'
p130
I23
sS'safe'
p131
I8
sS'break'
p132
I2
sS'roommate'
p133
I6
sS'sentimental'
p134
I3
sS'shameful'
p135
I1
sS'listerine'
p136
I1
sS'grammar'
p137
I1
sS'sleepless'
p138
I1
sS'reasonable'
p139
I1
sS'alexscott'
p140
I1
sS'went'
p141
I4
sS'mean'
p142
I23
sS'brendalicious'
p143
I1
sS'financial'
p144
I17
sS'saddad'
p145
I1
sS'gunna'
p146
I1
sS'epidural'
p147
I1
sS'taught'
p148
I1
sS'navy'
p149
I5
sS'recognizable'
p150
I1
sS'truant'
p151
I1
sS'gon'
p152
I203
sS'oprah'
p153
I1
sS'god'
p154
I2
sS'hooked'
p155
I1
sS'mccarthy'
p156
I1
sS'laid'
p157
I1
sS'nite'
p158
I1
sS'smh'
p159
I4
sS'cutest'
p160
I1
sS'associate'
p161
I1
sS'eternal'
p162
I2
sS'free'
p163
I127
sS'standard'
p164
I1
sS'icky'
p165
I1
sS'struggle'
p166
I4
sS'scopen'
p167
I1
sS'certified'
p168
I1
sS'ate'
p169
I3
sS'haleykish'
p170
I1
sS'inexpensive'
p171
I1
sS'ish'
p172
I4
sS'speedy'
p173
I1
sS'isn'
p174
I6
sS'portal'
p175
I1
sS'shittin'
p176
I1
sS'fuckin'
p177
I1
sS'reaaaal'
p178
I2
sS'fantasy'
p179
I1
sS'bionic'
p180
I1
sS'wasn'
p181
I2
sS'basketball'
p182
I9
sS'top'
p183
I39
sS'jwilliamsmusic'
p184
I1
sS'euphoric'
p185
I1
sS'rockin'
p186
I1
sS'inconvenient'
p187
I1
sS'john'
p188
I1
sS'bitter'
p189
I6
sS'urban'
p190
I1
sS'illiterate'
p191
I1
sS'weirdest'
p192
I3
sS'herhooper'
p193
I1
sS'thainfamous'
p194
I1
sS'western'
p195
I6
sS'wasted'
p196
I1
sS'ew'
p197
I1
sS'hibachi'
p198
I1
sS'likely'
p199
I11
sS'shower'
p200
I3
sS'spoiled'
p201
I1
sS'seminary'
p202
I1
sS'rad'
p203
I2
sS'thestruggleisreal'
p204
I2
sS'boston'
p205
I1
sS'mind'
p206
I2
sS'mine'
p207
I19
sS'ginger'
p208
I1
sS'raw'
p209
I2
sS'corny'
p210
I1
sS'gear'
p211
I2
sS'imold'
p212
I1
sS'forced'
p213
I1
sS'convenient'
p214
I3
sS'responsible'
p215
I2
sS'cleary'
p216
I1
sS'laughed'
p217
I1
sS'transnational'
p218
I1
sS'alchy'
p219
I1
sS'beachweek'
p220
I1
sS'twitorious'
p221
I1
sS'though'
p222
I1
sS'phast'
p223
I1
sS'maddy'
p224
I1
sS'anatomy'
p225
I1
sS'regular'
p226
I17
sS'plenty'
p227
I3
sS'don'
p228
I40
sS'medical'
p229
I9
sS'metal'
p230
I2
sS'tech'
p231
I5
sS'entertaining'
p232
I2
sS'weakest'
p233
I1
sS'incomplete'
p234
I1
sS'hunger'
p235
I1
sS'bitch'
p236
I1
sS'retire'
p237
I1
sS'sexist'
p238
I1
sS'anniversary'
p239
I2
sS'yeattsholden'
p240
I1
sS'participate'
p241
I1
sS'earth'
p242
I11
sS'cherishh'
p243
I1
sS'busy'
p244
I14
sS'shellfish'
p245
I1
sS'edtech'
p246
I1
sS'dontwanttobeajunior'
p247
I1
sS'bush'
p248
I2
sS'touched'
p249
I1
sS'rich'
p250
I22
sS'subhuman'
p251
I1
sS'chipotle'
p252
I2
sS'itspraiseworthy'
p253
I3
sS'niggus'
p254
I1
sS'foreveraspartan'
p255
I1
sS'steventurous'
p256
I1
sS'stop'
p257
I9
sS'dc'
p258
I1
sS'coast'
p259
I1
sS'amazon'
p260
I1
sS'nasty'
p261
I2
sS'bernsnnoble'
p262
I1
sS'autistic'
p263
I1
sS'idiotic'
p264
I2
sS'bad'
p265
I164
sS'bae'
p266
I1
sS'fugggggggg'
p267
I1
sS'lloydfreakary'
p268
I1
sS'steal'
p269
I1
sS'ethical'
p270
I1
sS'mandatory'
p271
I2
sS'fair'
p272
I6
sS'frijole'
p273
I1
sS'goodnight'
p274
I1
sS'corrupt'
p275
I2
sS'christian'
p276
I10
sS'nocturnal'
p277
I1
sS'prototypical'
p278
I1
sS'pete'
p279
I2
sS'inappropriate'
p280
I3
sS'shittier'
p281
I1
sS'r'
p282
I1
sS'muh'
p283
I1
sS'indecisive'
p284
I3
sS'lazy'
p285
I12
sS'relatable'
p286
I1
sS'omg'
p287
I2
sS'nationwide'
p288
I1
sS'microwaveable'
p289
I2
sS'handful'
p290
I1
sS'weak'
p291
I5
sS'wear'
p292
I24
sS'convertible'
p293
I1
sS'roller'
p294
I1
sS'protect'
p295
I1
sS'accident'
p296
I1
sS'ill'
p297
I5
sS'hillsdale'
p298
I1
sS'destinationdegree'
p299
I1
sS'coe'
p300
I1
sS'lookin'
p301
I1
sS'brah'
p302
I1
sS'asked'
p303
I1
sS'darian'
p304
I1
sS'tough'
p305
I9
sS'irresponsible'
p306
I5
sS'unprotected'
p307
I1
sS'initiative'
p308
I1
sS'tony'
p309
I2
sS'speak'
p310
I1
sS'scottmgower'
p311
I1
sS'clinnical'
p312
I1
sS'tiny'
p313
I1
sS'confident'
p314
I5
sS'much'
p315
I91
sS'basic'
p316
I10
sS'lovely'
p317
I3
sS'beccosmic'
p318
I1
sS'threw'
p319
I1
sS'website'
p320
I1
sS'glasscastle'
p321
I1
sS'spic'
p322
I1
sS'fest'
p323
I3
sS'worked'
p324
I2
sS'papersdue'
p325
I1
sS'gracious'
p326
I1
sS'applied'
p327
I2
sS'east'
p328
I9
sS'moneyyyyy'
p329
I1
sS'kentucky'
p330
I5
sS'n'
p331
I2
sS'strangest'
p332
I1
sS'ugly'
p333
I1
sS'near'
p334
I1
sS'suppose'
p335
I3
sS'vernal'
p336
I1
sS'provocative'
p337
I1
sS'prettty'
p338
I1
sS'forrealthough'
p339
I1
sS'cant'
p340
I16
sS'im'
p341
I12
sS'il'
p342
I1
sS'comparative'
p343
I1
sS'moorhead'
p344
I1
sS'seattle'
p345
I1
sS'id'
p346
I8
sS'byesociallife'
p347
I1
sS'grown'
p348
I3
sS'memorial'
p349
I1
sS'belle'
p350
I1
sS'katiecouric'
p351
I1
sS'cumulative'
p352
I3
sS'healthier'
p353
I2
sS'hahah'
p354
I3
sS'unfortunate'
p355
I2
sS'bryceenglish'
p356
I1
sS'several'
p357
I8
sS'independent'
p358
I4
sS'runtolive'
p359
I1
sS'atadbiteclectic'
p360
I1
sS'screw'
p361
I2
sS'alittle'
p362
I1
sS'pick'
p363
I3
sS'hang'
p364
I9
sS'springfest'
p365
I1
sS'garlic'
p366
I3
sS'jealous'
p367
I30
sS'hellquotemeright'
p368
I1
sS'kid'
p369
I29
sS'butter'
p370
I1
sS'kept'
p371
I1
sS'thy'
p372
I1
sS'dontbejaelous'
p373
I2
sS'humble'
p374
I1
sS'ocean'
p375
I3
sS'academic'
p376
I9
sS'thisispathetic'
p377
I1
sS'greatest'
p378
I19
sS'mother'
p379
I1
sS'corporate'
p380
I1
sS'musical'
p381
I7
sS'seasonal'
p382
I1
sS'booyah'
p383
I1
sS'kale'
p384
I1
sS'athletic'
p385
I10
sS'ratchet'
p386
I1
sS'sleepy'
p387
I2
sS'unfair'
p388
I1
sS'psych'
p389
I1
sS'human'
p390
I3
sS'previous'
p391
I1
sS'hah'
p392
I1
sS'turnuportransfer'
p393
I1
sS'royal'
p394
I1
sS'spread'
p395
I1
sS'easy'
p396
I56
sS'spooky'
p397
I1
sS'save'
p398
I1
sS'hat'
p399
I1
sS'tolerable'
p400
I1
sS'insensitive'
p401
I2
sS'possible'
p402
I34
sS'awhile'
p403
I1
sS'cultural'
p404
I1
sS'birth'
p405
I2
sS'destroy'
p406
I1
sS'forevermissourian'
p407
I1
sS'unique'
p408
I4
sS'burnt'
p409
I2
sS'advanced'
p410
I2
sS'jordancornish'
p411
I1
sS'cooler'
p412
I1
sS'semester'
p413
I1
sS'specific'
p414
I2
sS'informative'
p415
I1
sS'airheat'
p416
I1
sS'invaluable'
p417
I1
sS'portuguese'
p418
I1
sS'right'
p419
I14
sS'dean'
p420
I6
sS'ole'
p421
I4
sS'dead'
p422
I25
sS'unnecessary'
p423
I6
sS'captive'
p424
I1
sS'intern'
p425
I1
sS'scrabble'
p426
I1
sS'statistic'
p427
I1
sS'dear'
p428
I2
sS'tutorial'
p429
I1
sS'cooper'
p430
I1
sS'llorian'
p431
I1
sS'purple'
p432
I1
sS'normal'
p433
I25
sS'tweakin'
p434
I1
sS'killingit'
p435
I1
sS'creative'
p436
I3
sS'dreambig'
p437
I1
sS'adorable'
p438
I4
sS'knew'
p439
I1
sS'bold'
p440
I1
sS'prettymuch'
p441
I1
sS'caffeine'
p442
I1
sS'fullest'
p443
I3
sS'defensive'
p444
I2
sS'memorable'
p445
I2
sS'super'
p446
I20
sS'ptsd'
p447
I1
sS'cherish'
p448
I3
sS'thebubblebubble'
p449
I1
sS'civic'
p450
I2
sS'somethan'
p451
I1
sS'intellectual'
p452
I1
sS'ppl'
p453
I4
sS'thankful'
p454
I30
sS'coastal'
p455
I2
sS'formidable'
p456
I1
sS'hallucinogenic'
p457
I1
sS'stall'
p458
I1
sS'stumble'
p459
I1
sS'wan'
p460
I66
sS'wal'
p461
I1
sS'wah'
p462
I1
sS'initial'
p463
I1
sS'jealousy'
p464
I1
sS'call'
p465
I3
sS'wat'
p466
I2
sS'happy'
p467
I102
sS'lowest'
p468
I5
sS'head'
p469
I1
sS'sickest'
p470
I1
sS'back'
p471
I1
sS'heinous'
p472
I1
sS'notech'
p473
I1
sS'hear'
p474
I7
sS'elderly'
p475
I1
sS'jennifer'
p476
I1
sS'true'
p477
I52
sS'scressful'
p478
I3
sS'katieyoung'
p479
I1
sS'absent'
p480
I1
sS'randomest'
p481
I1
sS'xcassielynnx'
p482
I1
sS'economic'
p483
I1
sS'veterinarian'
p484
I1
sS'emotional'
p485
I11
sS'daddy'
p486
I2
sS'delete'
p487
I1
sS'later'
p488
I32
sS'liberal'
p489
I8
sS'classic'
p490
I3
sS'upset'
p491
I5
sS'drive'
p492
I17
sS'exist'
p493
I1
sS'mediocre'
p494
I2
sS'check'
p495
I1
sS'shit'
p496
I4
sS'physical'
p497
I4
sS'faithful'
p498
I4
sS'na'
p499
I1
sS'interested'
p500
I11
sS'republic'
p501
I1
sS'football'
p502
I2
sS'update'
p503
I1
sS'diet'
p504
I1
sS'belive'
p505
I1
sS'tfamous'
p506
I1
sS'died'
p507
I1
sS'younger'
p508
I6
sS'ljulian'
p509
I2
sS'faster'
p510
I6
sS'flag'
p511
I2
sS'daily'
p512
I10
sS'loyal'
p513
I6
sS'serious'
p514
I30
sS'urinary'
p515
I1
sS'coach'
p516
I3
sS'blackandwhite'
p517
I1
sS'global'
p518
I1
sS'ouch'
p519
I1
sS'roy'
p520
I1
sS'therandomant'
p521
I1
sS'katiehyre'
p522
I1
sS'grateful'
p523
I11
sS'chair'
p524
I2
sS'chapin'
p525
I1
sS'devoted'
p526
I2
sS'suicide'
p527
I1
sS'yummy'
p528
I1
sS'happpy'
p529
I1
sS'umich'
p530
I2
sS'constancehilary'
p531
I1
sS'relle'
p532
I1
sS'carakassul'
p533
I1
sS'protective'
p534
I1
sS'sappy'
p535
I2
sS'anonymous'
p536
I6
sS'airfare'
p537
I1
sS'philanthropic'
p538
I1
sS'trouble'
p539
I7
sS'blast'
p540
I5
sS'exact'
p541
I5
sS'cool'
p542
I52
sS'impressive'
p543
I2
sS'brother'
p544
I2
sS'turnt'
p545
I4
sS'grilled'
p546
I1
sS'leave'
p547
I2
sS'tarrant'
p548
I2
sS'quick'
p549
I10
sS'guy'
p550
I1
sS'ohmygodric'
p551
I3
sS'yall'
p552
I7
sS'upper'
p553
I1
sS'slower'
p554
I1
sS'regret'
p555
I7
sS'sigh'
p556
I2
sS'obsolete'
p557
I1
sS'sign'
p558
I2
sS'upped'
p559
I1
sS'rough'
p560
I3
sS'substitute'
p561
I1
sS'educate'
p562
I2
sS'stressful'
p563
I63
sS'current'
p564
I10
sS'kaminsky'
p565
I1
sS'international'
p566
I3
sS'passaic'
p567
I1
sS'abrupt'
p568
I1
sS'funeral'
p569
I2
sS'dnotive'
p570
I2
sS'mesabaseball'
p571
I1
sS'french'
p572
I2
sS'fluke'
p573
I1
sS'baseball'
p574
I2
sS'goldfish'
p575
I2
sS'along'
p576
I1
sS'googledrive'
p577
I1
sS'boy'
p578
I1
sS'thefray'
p579
I1
sS'canadian'
p580
I2
sS'healthy'
p581
I8
sS'woahhh'
p582
I1
sS'wherever'
p583
I1
sS'accomplished'
p584
I1
sS'cinnamon'
p585
I1
sS'patriotic'
p586
I1
sS'weird'
p587
I71
sS'cathrynobvious'
p588
I1
sS'love'
p589
I16
sS'extra'
p590
I25
sS'problematic'
p591
I1
sS'vivid'
p592
I1
sS'working'
p593
I5
sS'positive'
p594
I11
sS'angry'
p595
I3
sS'joyous'
p596
I1
sS'dude'
p597
I2
sS'live'
p598
I33
sS'andy'
p599
I1
sS'ahhh'
p600
I1
sS'black'
p601
I24
sS'tjisfamous'
p602
I4
sS'afford'
p603
I1
sS'acceptable'
p604
I10
sS'nbcsn'
p605
I1
sS'chocolate'
p606
I1
sS'visual'
p607
I1
sS'ignorant'
p608
I2
sS'savior'
p609
I1
sS'olive'
p610
I1
sS'fugueish'
p611
I1
sS'easiest'
p612
I11
sS'graphic'
p613
I3
sS'humungous'
p614
I1
sS'soul'
p615
I1
sS'cat'
p616
I2
sS'hardest'
p617
I20
sS'cal'
p618
I10
sS'arrive'
p619
I1
sS'slightest'
p620
I2
sS'nearest'
p621
I1
sS'crazy'
p622
I73
sS'seniorpower'
p623
I2
sS'awesome'
p624
I9
sS'confused'
p625
I3
sS'topic'
p626
I6
sS'critic'
p627
I1
sS'stole'
p628
I2
sS'clair'
p629
I1
sS'productive'
p630
I9
sS'sailboat'
p631
I1
sS'grosser'
p632
I1
sS'write'
p633
I5
sS'cardinal'
p634
I2
sS'fourth'
p635
I3
sS'elephant'
p636
I1
sS'nyc'
p637
I1
sS'unforgettable'
p638
I2
sS'unbelievable'
p639
I3
sS'laundry'
p640
I3
sS'mat'
p641
I1
sS'fairleigh'
p642
I1
sS'dive'
p643
I2
sS'southern'
p644
I1
sS'crashed'
p645
I1
sS'mac'
p646
I1
sS'mad'
p647
I15
sS'such'
p648
I77
sS'filthy'
p649
I1
sS'eighth'
p650
I2
sS'stress'
p651
I4
sS'natural'
p652
I2
sS'remember'
p653
I13
sS'conscious'
p654
I2
sS'whenever'
p655
I1
sS'benny'
p656
I1
sS'rollin'
p657
I1
sS'st'
p658
I7
sS'sh'
p659
I2
sS'african'
p660
I1
sS'tall'
p661
I5
sS'sg'
p662
I1
sS'typical'
p663
I20
sS'tweary'
p664
I1
sS'cute'
p665
I40
sS'alinsky'
p666
I1
sS'womderful'
p667
I1
sS'haute'
p668
I1
sS'unacceptable'
p669
I2
sS'lyric'
p670
I1
sS'statistical'
p671
I2
sS'cold'
p672
I3
sS'tore'
p673
I1
sS'avid'
p674
I4
sS'willow'
p675
I1
sS'interesting'
p676
I17
sS'georgiastate'
p677
I1
sS'sexiest'
p678
I1
sS'louisville'
p679
I1
sS'faaarr'
p680
I1
sS'mail'
p681
I2
sS'main'
p682
I8
sS'non'
p683
I2
sS'smarter'
p684
I3
sS'sarcastic'
p685
I2
sS'jsnyder'
p686
I1
sS'hall'
p687
I1
sS'sophomore'
p688
I18
sS'january'
p689
I5
sS'didn'
p690
I2
sS'realistic'
p691
I4
sS'dignified'
p692
I1
sS'shy'
p693
I1
sS'semifinal'
p694
I1
sS'undergrad'
p695
I1
sS'kruxnkapital'
p696
I1
sS'yeah'
p697
I7
sS'jodyhighroller'
p698
I1
sS'donneeeeeee'
p699
I1
sS'happen'
p700
I5
sS'relive'
p701
I3
sS'accomplish'
p702
I2
sS'rastafarian'
p703
I1
sS'sunburnt'
p704
I1
sS'anorexic'
p705
I1
sS'tryn'
p706
I1
sS'dutch'
p707
I1
sS'smfh'
p708
I2
sS'satanic'
p709
I1
sS'mcdouble'
p710
I1
sS'complicated'
p711
I1
sS'crazier'
p712
I1
sS'carl'
p713
I1
sS'inevitable'
p714
I1
sS'researchpaper'
p715
I1
sS'care'
p716
I6
sS'underwear'
p717
I4
sS'couldn'
p718
I2
sS'watty'
p719
I1
sS'yup'
p720
I1
sS'british'
p721
I1
sS'honest'
p722
I6
sS'massive'
p723
I3
sS'lasalle'
p724
I1
sS'first'
p725
I856
sS'exotic'
p726
I2
sS'cheese'
p727
I11
sS'hannahwhang'
p728
I1
sS'theeproblematic'
p729
I1
sS'symbolic'
p730
I1
sS'xd'
p731
I1
sS'fast'
p732
I40
sS'spanish'
p733
I8
sS'carry'
p734
I1
sS'impossible'
p735
I6
sS'open'
p736
I35
sS'engineer'
p737
I1
sS'little'
p738
I60
sS'ian'
p739
I2
sS'silent'
p740
I2
sS'bite'
p741
I1
sS'slept'
p742
I1
sS'plastic'
p743
I2
sS'reppin'
p744
I1
sS'gyllenhaal'
p745
I1
sS'white'
p746
I26
sS'puddle'
p747
I1
sS'mermaid'
p748
I1
sS'pittsburgh'
p749
I1
sS'overprivileged'
p750
I1
sS'huh'
p751
I1
sS'broadcast'
p752
I1
sS'hillary'
p753
I1
sS'ridiculous'
p754
I25
sS'eyed'
p755
I1
sS'missinghome'
p756
I1
sS'ahmadmcmillian'
p757
I1
sS'widd'
p758
I1
sS'wide'
p759
I2
sS'effective'
p760
I1
sS'future'
p761
I67
sS'serenaisaac'
p762
I1
sS'asleep'
p763
I3
sS'proactive'
p764
I1
sS'pre'
p765
I1
sS'ang'
p766
I1
sS'san'
p767
I6
sS'sad'
p768
I80
sS'prestigious'
p769
I2
sS'horsepower'
p770
I1
sS'allen'
p771
I1
sS'breakfast'
p772
I9
sS'sat'
p773
I4
sS'snowbunny'
p774
I1
sS'advil'
p775
I1
sS'ideal'
p776
I1
sS'potential'
p777
I7
sS'funniest'
p778
I1
sS'wonder'
p779
I4
sS'sure'
p780
I101
sS'multiple'
p781
I1
sS'opposite'
p782
I6
sS'indelible'
p783
I1
sS'frit'
p784
I1
sS'slowest'
p785
I1
sS'freshman'
p786
I1
sS'pager'
p787
I1
sS'forever'
p788
I3
sS'average'
p789
I14
sS'proud'
p790
I39
sS'steady'
p791
I1
sS'hungry'
p792
I12
sS'thisissoscary'
p793
I1
sS'hayleypersonal'
p794
I1
sS'professional'
p795
I11
sS'senior'
p796
I287
sS'shot'
p797
I1
sS'bright'
p798
I11
sS'jordanian'
p799
I1
sS'takin'
p800
I2
sS'aint'
p801
I1
sS'slow'
p802
I12
sS'stair'
p803
I1
sS'doneee'
p804
I1
sS'enough'
p805
I15
sS'dull'
p806
I1
sS'foward'
p807
I1
sS'only'
p808
I135
sS'actin'
p809
I1
sS'hockey'
p810
I3
sS'teary'
p811
I1
sS'espngolic'
p812
I1
sS'respectable'
p813
I2
sS'congressional'
p814
I1
sS'aderall'
p815
I1
sS'assistant'
p816
I2
sS'lighter'
p817
I1
sS'ged'
p818
I4
sS'goble'
p819
I1
sS'prime'
p820
I4
sS'artist'
p821
I1
sS'govgary'
p822
I1
sS'busiest'
p823
I2
sS'nahmean'
p824
I1
sS'mattie'
p825
I1
sS'stupid'
p826
I71
sS'mustcelebrate'
p827
I1
sS'doingg'
p828
I1
sS'relative'
p829
I1
sS'college'
p830
I27
sS'encouraged'
p831
I1
sS'federal'
p832
I4
sS'knoxville'
p833
I1
sS'definite'
p834
I2
sS'outside'
p835
I1
sS'shortsmurfsmith'
p836
I2
sS'nicest'
p837
I1
sS'lifeingeneral'
p838
I1
sS'sodamnervous'
p839
I1
sS'affordable'
p840
I3
sS'august'
p841
I12
sS'prettiest'
p842
I2
sS'summmer'
p843
I1
sS'whitworth'
p844
I2
sS'uf'
p845
I1
sS'many'
p846
I187
sS'stupidest'
p847
I2
sS'quiet'
p848
I4
sS'mane'
p849
I2
sS'jdjasper'
p850
I1
sS'inexplicable'
p851
I1
sS'youarewrong'
p852
I1
sS'pole'
p853
I2
sS'extinct'
p854
I1
sS'nicole'
p855
I2
sS'math'
p856
I1
sS'unusual'
p857
I1
sS'teammate'
p858
I1
sS'capable'
p859
I3
sS'west'
p860
I6
sS'tropical'
p861
I2
sS'peaceful'
p862
I2
sS'daylong'
p863
I1
sS'uindy'
p864
I1
sS'mary'
p865
I5
sS'felician'
p866
I1
sS'deeeeeemic'
p867
I1
sS'dramatic'
p868
I4
sS'careful'
p869
I3
sS'irrelevant'
p870
I6
sS'former'
p871
I11
sS'countless'
p872
I1
sS'wheresmysantahat'
p873
I1
sS'arnold'
p874
I1
sS'ongoing'
p875
I2
sS'eid'
p876
I1
sS'sophmore'
p877
I1
sS'coolest'
p878
I5
sS'ive'
p879
I15
sS'troy'
p880
I1
sS'alcoholic'
p881
I10
sS'shirinicole'
p882
I1
sS'pinky'
p883
I1
sS'middle'
p884
I9
sS'unwritten'
p885
I1
sS'ironic'
p886
I7
sS'somebody'
p887
I1
sS'obnoxious'
p888
I3
sS'ivy'
p889
I1
sS'worry'
p890
I2
sS'different'
p891
I69
sS'thinkin'
p892
I1
sS'medic'
p893
I2
sS'same'
p894
I162
sS'dojng'
p895
I1
sS'pal'
p896
I1
sS'finish'
p897
I28
sS'closest'
p898
I2
sS'singapore'
p899
I1
sS'makesmehappy'
p900
I1
sS'driven'
p901
I1
sS'intrepid'
p902
I1
sS'constitutional'
p903
I2
sS'magical'
p904
I2
sS'nothin'
p905
I1
sS'severe'
p906
I2
sS'pitbull'
p907
I2
sS'hubby'
p908
I1
sS'summer'
p909
I4
sS'ouohyeah'
p910
I1
sS'sunerrywhere'
p911
I1
sS'valuable'
p912
I2
sS'reputable'
p913
I1
sS'touch'
p914
I3
sS'weekly'
p915
I1
sS'blow'
p916
I1
sS'doctoral'
p917
I1
sS'xtian'
p918
I1
sS'wethepeople'
p919
I1
sS'evolve'
p920
I1
sS'swagasdauterive'
p921
I1
sS'ahhhh'
p922
I1
sS'real'
p923
I234
sS'nytnational'
p924
I1
sS'spectacular'
p925
I1
sS'read'
p926
I5
sS'dark'
p927
I2
sS'traffic'
p928
I2
sS'pop'
p929
I1
sS'amp'
p930
I3
sS'disappointed'
p931
I1
sS'nexttonormal'
p932
I1
sS'rear'
p933
I1
sS'monicastieh'
p934
I1
sS'onyourside'
p935
I1
sS'kennedy'
p936
I1
sS'pregnant'
p937
I8
sS'ballstothewall'
p938
I1
sS't'
p939
I724
sS'hallelujah'
p940
I1
sS'dirtier'
p941
I1
sS'passionate'
p942
I4
sS'stationary'
p943
I1
sS'croatoan'
p944
I2
sS'locust'
p945
I1
sS'respect'
p946
I2
sS'playin'
p947
I1
sS'matching'
p948
I1
sS'kazeykalloch'
p949
I1
sS'gross'
p950
I2
sS'slick'
p951
I1
sS'legal'
p952
I3
sS'conservative'
p953
I3
sS'nutty'
p954
I1
sS'critical'
p955
I3
sS'boat'
p956
I2
sS'claustrophobic'
p957
I1
sS'moderate'
p958
I1
sS'randlermusic'
p959
I1
sS'equivalent'
p960
I3
sS'loudest'
p961
I1
sS'winningest'
p962
I1
sS'hectic'
p963
I1
sS'rashad'
p964
I1
sS'exciting'
p965
I3
sS'central'
p966
I11
sS'oh'
p967
I8
sS'jeep'
p968
I1
sS'favorite'
p969
I70
sS'slender'
p970
I1
sS'liquior'
p971
I1
sS'act'
p972
I1
sS'sadistic'
p973
I1
sS'sumwhat'
p974
I1
sS'vball'
p975
I1
sS'magsdwowd'
p976
I1
sS'toomuchmuchtoomuch'
p977
I1
sS'youd'
p978
I1
sS'spinal'
p979
I1
sS'bedtime'
p980
I1
sS'homeless'
p981
I12
sS'heated'
p982
I1
sS'elementary'
p983
I14
sS'prepare'
p984
I4
sS'aren'
p985
I1
sS'stark'
p986
I1
sS'racist'
p987
I1
sS'low'
p988
I18
sS'bubble'
p989
I4
sS'redbull'
p990
I3
sS'allergic'
p991
I1
sS'thumdrive'
p992
I1
sS'complete'
p993
I30
sS'unreliable'
p994
I2
sS'soulsoluminous'
p995
I1
sS'pull'
p996
I1
sS'rush'
p997
I1
sS'joint'
p998
I2
sS'offical'
p999
I2
sS'tellin'
p1000
I1
sS'ncstate'
p1001
I1
sS'jamaican'
p1002
I2
sS'dirty'
p1003
I4
sS'agree'
p1004
I1
sS'rust'
p1005
I1
sS'uic'
p1006
I1
sS'johnny'
p1007
I3
sS'af'
p1008
I1
sS'taste'
p1009
I1
sS'certain'
p1010
I12
sS'al'
p1011
I1
sS'deep'
p1012
I2
sS'general'
p1013
I10
sS'incorrect'
p1014
I1
sS'selfish'
p1015
I4
sS'hybrid'
p1016
I1
sS'graduate'
p1017
I27
sS'tight'
p1018
I2
sS'valid'
p1019
I1
sS'forcing'
p1020
I4
sS'poor'
p1021
I44
sS'polar'
p1022
I1
sS'ineligible'
p1023
I1
sS'vocabulary'
p1024
I1
sS'separate'
p1025
I1
sS'important'
p1026
I38
sS'bosstime'
p1027
I1
sS'masc'
p1028
I1
sS'invest'
p1029
I1
sS'apathy'
p1030
I1
sS'preppy'
p1031
I1
sS'bleedtheblue'
p1032
I1
sS'newnansfinest'
p1033
I1
sS'unnatural'
p1034
I1
sS'husky'
p1035
I2
sS'oral'
p1036
I1
sS'original'
p1037
I2
sS'desprite'
p1038
I1
sS'suny'
p1039
I1
sS'forget'
p1040
I1
sS'chinese'
p1041
I3
sS'crucial'
p1042
I1
sS'moneyisthemotive'
p1043
I1
sS'thoughtful'
p1044
I2
sS'messy'
p1045
I2
sS'follow'
p1046
I2
sS'jerome'
p1047
I1
sS'tedxmidwest'
p1048
I1
sS'dreadful'
p1049
I2
sS'attentive'
p1050
I2
sS'thursday'
p1051
I1
sS'hillsborough'
p1052
I4
sS'th'
p1053
I5
sS'smile'
p1054
I1
sS'te'
p1055
I1
sS'hideous'
p1056
I1
sS'worse'
p1057
I19
sS'straightforward'
p1058
I1
sS'song'
p1059
I13
sS'far'
p1060
I10
sS'lupevete'
p1061
I1
sS'carefree'
p1062
I1
sS'fat'
p1063
I17
sS'worst'
p1064
I49
sS'fall'
p1065
I1
sS'awful'
p1066
I11
sS'heaven'
p1067
I7
sS'cable'
p1068
I2
sS'elligible'
p1069
I1
sS'large'
p1070
I5
sS'mile'
p1071
I1
sS'doreable'
p1072
I1
sS'small'
p1073
I24
sS'anal'
p1074
I2
sS'grasshopper'
p1075
I1
sS'preposterous'
p1076
I1
sS'past'
p1077
I44
sS'casual'
p1078
I4
sS'nbd'
p1079
I1
sS'dial'
p1080
I1
sS'hormonal'
p1081
I1
sS'pinterest'
p1082
I2
sS'skeptic'
p1083
I1
sS'greenville'
p1084
I2
sS'crush'
p1085
I1
sS'slippery'
p1086
I1
sS'public'
p1087
I25
sS'full'
p1088
I107
sS'iran'
p1089
I1
sS'promising'
p1090
I1
sS'smartest'
p1091
I2
sS'profwelter'
p1092
I1
sS'eventful'
p1093
I1
sS'strong'
p1094
I23
sS'bible'
p1095
I17
sS'vegetarian'
p1096
I1
sS'creepy'
p1097
I4
sS'periodic'
p1098
I1
sS'social'
p1099
I27
sS'cookie'
p1100
I1
sS'hime'
p1101
I1
sS'vic'
p1102
I2
sS'vid'
p1103
I3
sS'jackiekashian'
p1104
I1
sS'wesleyan'
p1105
I1
sS'solitude'
p1106
I1
sS'chunky'
p1107
I1
sS'laughable'
p1108
I1
sS'curlyyfrieess'
p1109
I1
sS'twe'
p1110
I1
sS'gorgeous'
p1111
I8
sS'mysterious'
p1112
I1
sS'tacky'
p1113
I1
sS'unthinkable'
p1114
I1
sS'more'
p1115
I427
sS'teen'
p1116
I1
sS'flat'
p1117
I1
sS'kindagarden'
p1118
I1
sS'asheville'
p1119
I1
sS'broke'
p1120
I1
sS'known'
p1121
I1
sS'offthebat'
p1122
I1
sS'ifunny'
p1123
I1
sS'glad'
p1124
I57
sS'sucky'
p1125
I1
sS'whitomatic'
p1126
I1
sS'recall'
p1127
I1
sS'sudden'
p1128
I2
sS'morgan'
p1129
I1
sS'learn'
p1130
I1
sS'pokemon'
p1131
I2
sS'male'
p1132
I3
sS'spontaneous'
p1133
I3
sS'def'
p1134
I6
sS'meangirlsmoment'
p1135
I1
sS'beautiful'
p1136
I31
sS'soft'
p1137
I1
sS'compare'
p1138
I1
sS'embarrassing'
p1139
I1
sS'lingual'
p1140
I1
sS'minimum'
p1141
I9
sS'dress'
p1142
I1
sS'beerinthebackpack'
p1143
I1
sS'huge'
p1144
I32
sS'respective'
p1145
I1
sS'csh'
p1146
I1
sS'awkward'
p1147
I3
sS'needy'
p1148
I2
sS'everyday'
p1149
I1
sS'unlucky'
p1150
I1
sS'tooeasy'
p1151
I1
sS'stir'
p1152
I1
sS'goat'
p1153
I1
sS'shouldnt'
p1154
I1
sS'ft'
p1155
I2
sS'rude'
p1156
I3
sS'cordmn'
p1157
I1
sS'ballsy'
p1158
I1
sS'panoramic'
p1159
I2
sS'sinclair'
p1160
I1
sS'softball'
p1161
I12
sS'short'
p1162
I11
sS'barbe'
p1163
I1
sS'resemble'
p1164
I1
sS'loud'
p1165
I3
sS'rowdy'
p1166
I1
sS'overnight'
p1167
I1
sS'volleyball'
p1168
I2
sS'fundamental'
p1169
I1
sS'slime'
p1170
I1
sS'infant'
p1171
I1
sS'september'
p1172
I1
sS'outraged'
p1173
I1
sS'jamezworthy'
p1174
I1
sS'dough'
p1175
I1
sS'brim'
p1176
I1
sS'hell'
p1177
I1
sS'madhurisathish'
p1178
I3
sS'unhealthy'
p1179
I5
sS'bangle'
p1180
I1
sS'late'
p1181
I52
sS'radical'
p1182
I1
sS'good'
p1183
I428
sS'goblue'
p1184
I1
sS'disrespectful'
p1185
I3
sS'countrysweetgal'
p1186
I2
sS'thegreatertw'
p1187
I1
sS'uhh'
p1188
I1
sS'cheersdad'
p1189
I1
sS'yr'
p1190
I1
sS'adventurous'
p1191
I1
sS'bigger'
p1192
I8
sS'delorean'
p1193
I1
sS'bryan'
p1194
I2
sS'sonervous'
p1195
I1
sS'purdue'
p1196
I2
sS'goofy'
p1197
I1
sS'heavy'
p1198
I8
sS'mental'
p1199
I10
sS'weight'
p1200
I2
sS'thelocalasian'
p1201
I1
sS'fish'
p1202
I5
sS'hard'
p1203
I92
sS'extended'
p1204
I1
sS'fewer'
p1205
I3
sS'emalilaine'
p1206
I1
sS'anxious'
p1207
I7
sS'flower'
p1208
I1
sS'stooooopppppiiiidddd'
p1209
I1
sS'childish'
p1210
I8
sS'acting'
p1211
I3
sS'growthefuckupkid'
p1212
I1
sS'zpull'
p1213
I1
sS'ass'
p1214
I1
sS'pathetic'
p1215
I6
sS'yale'
p1216
I1
sS'pleasant'
p1217
I1
sS'irishhappy'
p1218
I1
sS'anthonyfinkral'
p1219
I1
sS'brightest'
p1220
I1
sS'clique'
p1221
I2
sS'teach'
p1222
I1
sS'earliest'
p1223
I1
sS'revolutionary'
p1224
I1
sS'disadvantaged'
p1225
I1
sS'launch'
p1226
I1
sS'terrible'
p1227
I14
sS'american'
p1228
I12
sS'elective'
p1229
I2
sS'w'
p1230
I1
sS'theterrible'
p1231
I1
sS'existential'
p1232
I2
sS'caryscary'
p1233
I1
sS'major'
p1234
I137
sS'dont'
p1235
I9
sS'gettingcreative'
p1236
I1
sS'relate'
p1237
I1
sS'sympathy'
p1238
I1
sS'miss'
p1239
I29
sS'guest'
p1240
I1
sS'sandusky'
p1241
I1
sS'comfy'
p1242
I1
sS'least'
p1243
I89
sS'paint'
p1244
I1
sS'wonderful'
p1245
I15
sS'jen'
p1246
I2
sS'store'
p1247
I2
sS'easyyyyyyy'
p1248
I1
sS'billrancic'
p1249
I1
sS'relieved'
p1250
I3
sS'immediate'
p1251
I1
sS'jordan'
p1252
I2
sS'believe'
p1253
I1
sS'kind'
p1254
I4
sS'grew'
p1255
I1
sS'mahal'
p1256
I1
sS'sketchier'
p1257
I1
sS'double'
p1258
I13
sS'youth'
p1259
I1
sS'greg'
p1260
I1
sS'rensselaer'
p1261
I1
sS'dang'
p1262
I4
sS'risky'
p1263
I1
sS'charlotte'
p1264
I1
sS'suspicious'
p1265
I1
sS'affirmative'
p1266
I4
sS'substantial'
p1267
I1
sS'aged'
p1268
I3
sS'disenchanted'
p1269
I1
sS'accumulative'
p1270
I1
sS'couch'
p1271
I9
sS'internal'
p1272
I2
sS'useless'
p1273
I3
sS'brittanyandsuch'
p1274
I1
sS'cofc'
p1275
I1
sS'insufferable'
p1276
I1
sS'play'
p1277
I2
sS'electric'
p1278
I1
sS'kan'
p1279
I1
sS'kal'
p1280
I1
sS'most'
p1281
I127
sS'significant'
p1282
I4
sS'kat'
p1283
I1
sS'merryendoffreshmanyear'
p1284
I1
sS'clear'
p1285
I4
sS'traditional'
p1286
I2
sS'clean'
p1287
I6
sS'usual'
p1288
I2
sS'ugh'
p1289
I3
sS'stunned'
p1290
I1
sS'midwestern'
p1291
I1
sS'hyped'
p1292
I1
sS'find'
p1293
I11
sS'omegle'
p1294
I1
sS'reminiscent'
p1295
I1
sS'giant'
p1296
I5
sS'sayin'
p1297
I2
sS'northern'
p1298
I3
sS'nervous'
p1299
I28
sS'fullerton'
p1300
I1
sS'ohmarg'
p1301
I1
sS'hit'
p1302
I1
sS'koolin'
p1303
I1
sS'mfl'
p1304
I1
sS'sunny'
p1305
I2
sS'cheaper'
p1306
I3
sS'famous'
p1307
I15
sS'longest'
p1308
I1
sS'judged'
p1309
I1
sS'transitional'
p1310
I1
sS'tscan'
p1311
I1
sS'cry'
p1312
I6
sS'bird'
p1313
I1
sS'withy'
p1314
I1
sS'common'
p1315
I7
sS'insane'
p1316
I5
sS'cynical'
p1317
I1
sS'plausible'
p1318
I1
sS'dumb'
p1319
I1
sS'close'
p1320
I37
sS'project'
p1321
I1
sS'glue'
p1322
I2
sS'library'
p1323
I4
sS'electoral'
p1324
I5
sS'won'
p1325
I1
sS'various'
p1326
I3
sS'donate'
p1327
I1
sS'numerous'
p1328
I1
sS'available'
p1329
I4
sS'invisible'
p1330
I2
sS'youngest'
p1331
I2
sS'c'
p1332
I2
sS'whereismymacbookcharger'
p1333
I1
sS'hesitant'
p1334
I1
sS'annual'
p1335
I4
sS'foreign'
p1336
I6
sS'whole'
p1337
I109
sS'waitressing'
p1338
I1
sS'gdddd'
p1339
I1
sS'flier'
p1340
I1
sS'drunk'
p1341
I11
sS'simple'
p1342
I9
sS'sweet'
p1343
I12
sS'evaluate'
p1344
I1
sS'whatever'
p1345
I1
sS'teamsleep'
p1346
I1
sS'expensive'
p1347
I36
sS'monthly'
p1348
I1
sS'whaterbuger'
p1349
I1
sS'create'
p1350
I1
sS'political'
p1351
I7
sS'due'
p1352
I34
sS'damn'
p1353
I1
sS'empty'
p1354
I3
sS'flight'
p1355
I1
sS'anthony'
p1356
I1
sS'gal'
p1357
I2
sS'awake'
p1358
I1
sS'representative'
p1359
I2
sS'nashgrier'
p1360
I1
sS'solid'
p1361
I4
sS'reliable'
p1362
I1
sS'holocaust'
p1363
I1
sS'feelingaccomplished'
p1364
I2
sS'fun'
p1365
I13
sS'dominic'
p1366
I1
sS'guilty'
p1367
I4
sS'kroger'
p1368
I1
sS'rim'
p1369
I1
sS'ready'
p1370
I182
sS'rid'
p1371
I6
sS'theblackpilgrim'
p1372
I1
sS'funny'
p1373
I52
sS'anymore'
p1374
I5
sS'belong'
p1375
I2
sS'lastminute'
p1376
I1
sS'lenient'
p1377
I2
sS'imeishaziglar'
p1378
I1
sS'sunacomusic'
p1379
I1
sS'dontcare'
p1380
I1
sS'higher'
p1381
I15
sS'used'
p1382
I1
sS'temporary'
p1383
I1
sS'comprehensive'
p1384
I1
sS'therealamberm'
p1385
I1
sS'rabid'
p1386
I1
sS'peachy'
p1387
I1
sS'infamous'
p1388
I1
sS'recent'
p1389
I16
sS'early'
p1390
I30
sS'lower'
p1391
I4
sS'older'
p1392
I22
sS'persuasive'
p1393
I2
sS'spent'
p1394
I5
sS'cheer'
p1395
I2
sS'y'
p1396
I11
sS'negativefucksforyouconncoll'
p1397
I1
sS'everythin'
p1398
I1
sS'mon'
p1399
I2
sS'alliecable'
p1400
I1
sS'competitive'
p1401
I3
sS'phony'
p1402
I1
sS'useful'
p1403
I2
sS'superficial'
p1404
I1
sS'diary'
p1405
I1
sS'lady'
p1406
I1
sS'eager'
p1407
I1
sS'studious'
p1408
I2
sS'boomitsesther'
p1409
I1
sS'excited'
p1410
I1
sS'big'
p1411
I131
sS'sittin'
p1412
I1
sS'unlimited'
p1413
I1
sS'bic'
p1414
I1
sS'lovin'
p1415
I1
sS'shitty'
p1416
I1
sS'curfew'
p1417
I1
sS'helpful'
p1418
I2
sS'rotate'
p1419
I1
sS'd'
p1420
I21
sS'signal'
p1421
I1
sS'unstable'
p1422
I1
sS'popular'
p1423
I10
sS'essential'
p1424
I2
sS'google'
p1425
I8
sS'tinderboxmusic'
p1426
I1
sS'pierre'
p1427
I1
sS'ah'
p1428
I1
sS'felonious'
p1429
I1
sS'candy'
p1430
I2
sS'curious'
p1431
I9
sS'sheesh'
p1432
I1
sS'bball'
p1433
I1
sS'per'
p1434
I1
sS'pen'
p1435
I2
sS'pee'
p1436
I1
sS'laughing'
p1437
I1
sS'gonesofast'
p1438
I1
sS'bc'
p1439
I4
sS'amazig'
p1440
I1
sS'lose'
p1441
I1
sS'wittfest'
p1442
I1
sS'intense'
p1443
I2
sS'cautious'
p1444
I1
sS'deserved'
p1445
I1
sS'netflix'
p1446
I3
sS'jstoddard'
p1447
I1
sS'delish'
p1448
I1
sS'bish'
p1449
I1
sS'illegal'
p1450
I3
sS'hahahah'
p1451
I2
sS'idc'
p1452
I1
sS'erinhyden'
p1453
I1
sS'appropriate'
p1454
I3
sS'steven'
p1455
I1
sS'dontwanttograduate'
p1456
I1
sS'hellhole'
p1457
I1
sS'sneaky'
p1458
I1
sS'sniper'
p1459
I1
sS'feoadrian'
p1460
I1
sS'long'
p1461
I61
sS'mybaby'
p1462
I1
sS'prettier'
p1463
I3
sS'summertime'
p1464
I1
sS'bruh'
p1465
I3
sS'etch'
p1466
I1
sS'twitter'
p1467
I2
sS'nonchelant'
p1468
I1
sS'invite'
p1469
I1
sS'hawaiian'
p1470
I1
sS'jewish'
p1471
I1
sS'larry'
p1472
I1
sS'atlantic'
p1473
I1
sS'uofsc'
p1474
I1
sS'wnt'
p1475
I1
sS'sdh'
p1476
I1
sS'junior'
p1477
I132
sS'icdc'
p1478
I3
sS'oldrowofficial'
p1479
I2
sS'ur'
p1480
I4
sS'ul'
p1481
I2
sS'mature'
p1482
I7
sS'precalc'
p1483
I1
sS'fried'
p1484
I2
sS'similar'
p1485
I7
sS'hash'
p1486
I1
sS'chad'
p1487
I1
sS'lazytweet'
p1488
I1
sS'trumbull'
p1489
I1
sS'doesn'
p1490
I3
sS'lifeatpurdue'
p1491
I1
sS'single'
p1492
I47
sS'diverse'
p1493
I1
sS'organizational'
p1494
I1
sS'finalfinal'
p1495
I1
sS'accoplish'
p1496
I1
sS'lemon'
p1497
I1
sS'aeronautical'
p1498
I1
sS'nah'
p1499
I3
sS'realest'
p1500
I1
sS'icant'
p1501
I2
sS'turrentine'
p1502
I1
sS'arithmetic'
p1503
I1
sS'nice'
p1504
I66
sS'developmental'
p1505
I2
sS'ithoughtiwascute'
p1506
I1
sS'tigerfest'
p1507
I1
sS'daniellee'
p1508
I1
sS'formal'
p1509
I11
sS'happier'
p1510
I8
sS'fresh'
p1511
I28
sS'underrated'
p1512
I1
sS'receive'
p1513
I4
sS'amish'
p1514
I1
sS'partial'
p1515
I2
sS'beyyoonnddd'
p1516
I1
sS'enjoyable'
p1517
I3
sS'aparente'
p1518
I1
sS'young'
p1519
I48
sS'broome'
p1520
I1
sS'culinary'
p1521
I4
sS'sorrynotsorry'
p1522
I1
sS'stable'
p1523
I2
sS'dislike'
p1524
I1
sS'friendly'
p1525
I3
sS'sent'
p1526
I2
sS'mariahmichelle'
p1527
I1
sS'cellular'
p1528
I1
sS'layingdown'
p1529
I1
sS'snide'
p1530
I1
sS'entire'
p1531
I31
sS'magic'
p1532
I1
sS'respectful'
p1533
I1
sS'gettin'
p1534
I1
sS'ryan'
p1535
I5
sS'try'
p1536
I3
sS'brutal'
p1537
I2
sS'futureougrad'
p1538
I1
sS'austinhodder'
p1539
I1
sS'lazier'
p1540
I1
sS'smaller'
p1541
I3
sS'mural'
p1542
I1
sS'uncomfortable'
p1543
I3
sS'whatismylifern'
p1544
I1
sS'warnermusic'
p1545
I2
sS'acid'
p1546
I1
sS'odd'
p1547
I4
sS'intimate'
p1548
I1
sS'imasenior'
p1549
I1
sS'savebyschneider'
p1550
I1
sS'experiment'
p1551
I1
sS'ahhhhh'
p1552
I1
sS'oshkosh'
p1553
I1
sS'degree'
p1554
I1
sS'commercial'
p1555
I4
sS'embiid'
p1556
I1
sS'northeast'
p1557
I1
sS'let'
p1558
I2
sS'sexy'
p1559
I2
sS'safer'
p1560
I1
sS'sine'
p1561
I1
sS'great'
p1562
I184
sS'technical'
p1563
I4
sS'larger'
p1564
I1
sS'grander'
p1565
I1
sS'despicable'
p1566
I1
sS'downstate'
p1567
I1
sS'clark'
p1568
I1
sS'private'
p1569
I12
sS'emon'
p1570
I1
sS'stupider'
p1571
I3
sS'dumbest'
p1572
I2
sS'usf'
p1573
I1
sS'usc'
p1574
I1
sS'patron'
p1575
I1
sS'newsworthy'
p1576
I1
sS'doodle'
p1577
I2
sS'next'
p1578
I280
sS'procrastinate'
p1579
I1
sS'few'
p1580
I112
sS'scariest'
p1581
I2
sS'toreycrosswhite'
p1582
I1
sS'rick'
p1583
I1
sS'prized'
p1584
I1
sS'biblical'
p1585
I1
sS'musician'
p1586
I1
sS'sore'
p1587
I3
sS'rubbish'
p1588
I1
sS'baby'
p1589
I1
sS'actual'
p1590
I22
sS'lumbee'
p1591
I1
sS'athlete'
p1592
I4
sS'unreal'
p1593
I8
sS'obvious'
p1594
I7
sS'meet'
p1595
I4
sS'closing'
p1596
I2
sS'proof'
p1597
I1
sS'bittersweet'
p1598
I7
sS'thirsty'
p1599
I3
sS'high'
p1600
I709
sS'intramural'
p1601
I1
sS'dummer'
p1602
I1
sS'native'
p1603
I4
sS'sir'
p1604
I1
sS'educational'
p1605
I3
sS'united'
p1606
I1
sS'montanairizarry'
p1607
I1
sS'friendlier'
p1608
I1
sS'fortunate'
p1609
I4
sS'brian'
p1610
I5
sS'animal'
p1611
I3
sS'comedy'
p1612
I1
sS'intelligent'
p1613
I4
sS'doubleoh'
p1614
I1
sS'hesitate'
p1615
I1
sS'kickstarter'
p1616
I1
sS'watch'
p1617
I2
sS'frat'
p1618
I1
sS'tier'
p1619
I1
sS'ggtransylvanian'
p1620
I1
sS'daycare'
p1621
I1
sS'light'
p1622
I5
sS'classy'
p1623
I3
sS'fastest'
p1624
I4
sS'mute'
p1625
I1
sS'institutional'
p1626
I1
sS'tamuc'
p1627
I1
sS'inreesewetrust'
p1628
I1
sS'happiest'
p1629
I3
sS'perfect'
p1630
I13
sS'superior'
p1631
I1
sS'twistin'
p1632
I24
sS'nostalgic'
p1633
I5
sS'lt'
p1634
I1
sS'willing'
p1635
I9
sS'choose'
p1636
I1
sS'orange'
p1637
I1
sS'criminal'
p1638
I2
sS'electriccowboycollegenightparty'
p1639
I1
sS'dad'
p1640
I5
sS'descriptive'
p1641
I1
sS'flew'
p1642
I1
sS'dat'
p1643
I2
sS'legendary'
p1644
I1
sS'front'
p1645
I2
sS'maddiepouch'
p1646
I1
sS'vonibrier'
p1647
I1
sS'damian'
p1648
I1
sS'tish'
p1649
I1
sS'panic'
p1650
I2
sS'nfl'
p1651
I1
sS'doesnt'
p1652
I1
sS'truth'
p1653
I1
sS'mcrofficial'
p1654
I1
sS'related'
p1655
I3
sS'sexual'
p1656
I14
sS'special'
p1657
I14
sS'borderline'
p1658
I1
sS'hilarious'
p1659
I8
sS'red'
p1660
I1
sS'sleach'
p1661
I1
sS'trashy'
p1662
I2
sS'dictionary'
p1663
I1
sS'contrarian'
p1664
I1
sS'greedy'
p1665
I1
sS'analytical'
p1666
I2
sS'latest'
p1667
I4
sS'zstuckey'
p1668
I1
sS'scary'
p1669
I28
sS'organic'
p1670
I4
sS'keep'
p1671
I1
sS'adrian'
p1672
I2
sS'retail'
p1673
I1
sS'south'
p1674
I1
sS'kendall'
p1675
I1
sS'infantryman'
p1676
I1
sS'finest'
p1677
I4
sS'blown'
p1678
I1
sS'unaware'
p1679
I1
sS'pgh'
p1680
I1
sS'lol'
p1681
I1
sS'shellwoodard'
p1682
I1
sS'nypost'
p1683
I1
sS'ancient'
p1684
I1
sS'hilary'
p1685
I1
sS'ticklish'
p1686
I1
sS'missy'
p1687
I1
sS'final'
p1688
I215
sS'painful'
p1689
I2
sS'craziest'
p1690
I2
sS'shallow'
p1691
I1
sS'megan'
p1692
I2
sS'environmental'
p1693
I3
sS'gean'
p1694
I1
sS'elite'
p1695
I2
sS'haven'
p1696
I1
sS'loved'
p1697
I1
sS'glamorous'
p1698
I1
sS'hysterical'
p1699
I3
sS'bother'
p1700
I1
sS'infectious'
p1701
I1
sS'bed'
p1702
I11
sS'trashiest'
p1703
I1
sS'reedrutter'
p1704
I1
sS'spelled'
p1705
I1
sS'comfortable'
p1706
I2
sS'tonight'
p1707
I4
sS'fail'
p1708
I2
sS'have'
p1709
I1
sS'miserable'
p1710
I5
sS'soclose'
p1711
I1
sS'catholic'
p1712
I5
sS'afraid'
p1713
I4
sS'mic'
p1714
I2
sS'able'
p1715
I78
sS'mid'
p1716
I8
sS'pivotal'
p1717
I1
sS'best'
p1718
I401
sS'bourogh'
p1719
I1
sS'toughest'
p1720
I1
sS'combat'
p1721
I1
sS'sweeeeeet'
p1722
I1
sS'courtesy'
p1723
I1
sS'lectured'
p1724
I1
sS'highschool'
p1725
I1
sS'intrinsic'
p1726
I1
sS'farrahsalazar'
p1727
I1
sS'hypocrite'
p1728
I2
sS'horrid'
p1729
I1
sS'saddest'
p1730
I4
sS'undeniable'
p1731
I1
sS'rollar'
p1732
I1
sS'stronger'
p1733
I3
sS'alliconrad'
p1734
I1
sS'absurd'
p1735
I2
sS'mechanical'
p1736
I1
sS'xavier'
p1737
I2
sS'skinny'
p1738
I4
sS'sd'
p1739
I1
sS'exclusive'
p1740
I1
sS'northcentral'
p1741
I1
sS'tagged'
p1742
I1
sS'eaglecrest'
p1743
I1
sS'fear'
p1744
I1
sS'longer'
p1745
I7
sS'debate'
p1746
I1
sS'durant'
p1747
I1
sS'davidgarzamusic'
p1748
I1
sS'hopeful'
p1749
I2
sS'prolong'
p1750
I1
sS'unable'
p1751
I1
sS'local'
p1752
I17
sS'meant'
p1753
I2
sS'handle'
p1754
I4
sS'sweetie'
p1755
I1
sS'delirious'
p1756
I2
sS'beat'
p1757
I2
sS'familiar'
p1758
I1
sS'michigan'
p1759
I3
sS'overall'
p1760
I1
sS'lucky'
p1761
I19
sS'bear'
p1762
I3
sS'tbh'
p1763
I2
sS'anayze'
p1764
I1
sS'legitimate'
p1765
I1
sS'sassy'
p1766
I2
sS'smash'
p1767
I1
sS'fran'
p1768
I1
sS'bmccarthy'
p1769
I1
sS'chunkin'
p1770
I1
sS'snitchin'
p1771
I1
sS'h'
p1772
I1
sS'married'
p1773
I1
sS'dangerous'
p1774
I3
sS'babsonh'
p1775
I1
sS'raygrayy'
p1776
I1
sS'grad'
p1777
I10
sS'farthest'
p1778
I1
sS'national'
p1779
I33
sS'immigrant'
p1780
I1
sS'desperate'
p1781
I2
sS'packed'
p1782
I1
sS'closer'
p1783
I18
sS'nuclear'
p1784
I2
sS'quickest'
p1785
I2
sS'horrible'
p1786
I15
sS'youll'
p1787
I2
sS'email'
p1788
I1
sS'greatful'
p1789
I1
sS'ethic'
p1790
I2
sS'dumber'
p1791
I2
sS'shittiest'
p1792
I1
sS'key'
p1793
I19
sS'garnetandgold'
p1794
I1
sS'precious'
p1795
I1
sS'legit'
p1796
I3
sS'mindy'
p1797
I1
sS'equal'
p1798
I1
sS'kosher'
p1799
I1
sS'april'
p1800
I1
sS'pyknic'
p1801
I1
sS'atleast'
p1802
I2
sS'grail'
p1803
I2
sS'thang'
p1804
I1
sS'swallow'
p1805
I1
sS'glorious'
p1806
I1
sS'doneeeeeeeeee'
p1807
I1
sS'thanksmrsjulie'
p1808
I1
sS'relevant'
p1809
I2
sS'laugh'
p1810
I1
sS'disturbing'
p1811
I1
sS'table'
p1812
I2
sS'maraiyah'
p1813
I1
sS'tremendous'
p1814
I1
sS'literal'
p1815
I1
sS'blatant'
p1816
I1
sS'roomate'
p1817
I1
sS'yah'
p1818
I2
sS'edified'
p1819
I1
sS'hottest'
p1820
I3
sS'waste'
p1821
I3
sS'penny'
p1822
I1
sS'controlled'
p1823
I1
sS'crappy'
p1824
I3
sS'finished'
p1825
I2
sS'bull'
p1826
I1
sS'last'
p1827
I1021
sS'fellow'
p1828
I2
sS'dingwall'
p1829
I1
sS'harder'
p1830
I31
sS'wild'
p1831
I10
sS'medicinal'
p1832
I1
sS've'
p1833
I1
sS'helped'
p1834
I1
sS'optimistic'
p1835
I1
sS'dual'
p1836
I2
sS'trihubby'
p1837
I1
sS'ave'
p1838
I3
sS'greater'
p1839
I3
sS'denial'
p1840
I4
sS'generic'
p1841
I1
sS'eric'
p1842
I2
sS'strange'
p1843
I1
sS'northwest'
p1844
I1
sS'largest'
p1845
I4
sS'party'
p1846
I3
sS'difficult'
p1847
I18
sS'ball'
p1848
I4
sS'unconventional'
p1849
I1
sS'clesoldier'
p1850
I1
sS'fucker'
p1851
I1
sS'beast'
p1852
I2
sS'magician'
p1853
I1
sS'contest'
p1854
I3
sS'kaylabruch'
p1855
I1
sS'english'
p1856
I24
sS'butterball'
p1857
I1
sS'fetal'
p1858
I2
sS'taller'
p1859
I1
sS'rachele'
p1860
I1
sS'less'
p1861
I88
sS'accurate'
p1862
I6
sS'domestic'
p1863
I2
sS'paul'
p1864
I4
sS'lauren'
p1865
I1
sS'titty'
p1866
I1
sS'residential'
p1867
I1
sS'point'
p1868
I1
sS'sky'
p1869
I1
sS'vyvanse'
p1870
I1
sS'arrest'
p1871
I1
sS'attractive'
p1872
I7
sS'wet'
p1873
I1
sS'identical'
p1874
I1
sS'sonic'
p1875
I5
sS'historic'
p1876
I2
sS'facial'
p1877
I1
sS'skinnier'
p1878
I1
sS'knox'
p1879
I1
sS'harford'
p1880
I1
sS'trash'
p1881
I1
sS'necessary'
p1882
I11
sS'like'
p1883
I3
sS'lost'
p1884
I1
sS'summatime'
p1885
I1
sS'clown'
p1886
I2
sS'stimulant'
p1887
I1
sS'justingenious'
p1888
I1
sS'scenic'
p1889
I1
sS'lamest'
p1890
I1
sS'page'
p1891
I1
sS'accessible'
p1892
I1
sS'classical'
p1893
I1
sS'scared'
p1894
I13
sS'freshy'
p1895
I1
sS'holier'
p1896
I1
sS'alive'
p1897
I10
sS'majestic'
p1898
I1
sS'crkowalsky'
p1899
I1
sS'proper'
p1900
I3
sS'supportive'
p1901
I2
sS'carlsbad'
p1902
I1
sS'liberalbutnotthatliberal'
p1903
I1
sS'vfl'
p1904
I1
sS'appreciative'
p1905
I1
sS'comical'
p1906
I1
sS'fanny'
p1907
I1
sS'micahscopic'
p1908
I1
sS'strugglin'
p1909
I1
sS'worthy'
p1910
I1
sS'amy'
p1911
I1
sS'imaginary'
p1912
I1
sS'gained'
p1913
I1
sS'inconsiderate'
p1914
I1
sS'sister'
p1915
I1
sS'rare'
p1916
I2
sS'justin'
p1917
I1
sS'glade'
p1918
I1
sS'sweat'
p1919
I2
sS'documentary'
p1920
I3
sS'pale'
p1921
I1
sS'own'
p1922
I91
sS'catherine'
p1923
I1
sS'articulate'
p1924
I1
sS'chronic'
p1925
I1
sS'square'
p1926
I2
sS'camden'
p1927
I1
sS'brush'
p1928
I1
sS'female'
p1929
I5
sS'pointless'
p1930
I2
sS'mere'
p1931
I1
sS'cheetahpower'
p1932
I1
sS'val'
p1933
I2
sS'transfer'
p1934
I1
sS'caviar'
p1935
I1
sS'biggest'
p1936
I41
sS'bagged'
p1937
I1
sS'buy'
p1938
I1
sS'north'
p1939
I13
sS'hr'
p1940
I1
sS'zachnormanmusic'
p1941
I1
sS'moravian'
p1942
I2
sS'forreal'
p1943
I1
sS'srry'
p1944
I1
sS'highest'
p1945
I3
sS'eat'
p1946
I4
sS'campus'
p1947
I1
sS'wish'
p1948
I24
sS'official'
p1949
I21
sS'mycrazygfmusic'
p1950
I1
sS'cruel'
p1951
I1
sS'pumped'
p1952
I1
sS'adderall'
p1953
I2
sS'unaffordable'
p1954
I2
sS'pic'
p1955
I14
sS'lastfinal'
p1956
I1
sS'coloradical'
p1957
I1
sS'mejor'
p1958
I1
sS'kpmg'
p1959
I1
sS'girl'
p1960
I2
sS'incredible'
p1961
I2
sS'virtual'
p1962
I1
sS'surreal'
p1963
I6
sS'old'
p1964
I170
sS'other'
p1965
I148
sS'sick'
p1966
I19
sS'talkin'
p1967
I4
sS'reckless'
p1968
I1
sS'star'
p1969
I1
sS'ecstatic'
p1970
I2
sS'inescapable'
p1971
I1
sS'laurgamble'
p1972
I1
sS'stay'
p1973
I1
sS'costliest'
p1974
I1
sS'repeal'
p1975
I1
sS'goin'
p1976
I4
sS'prevalent'
p1977
I1
sS'persistent'
p1978
I1
sS'eyre'
p1979
I1
sS'uneducated'
p1980
I1
sS'rural'
p1981
I1
sS'staygold'
p1982
I1
s.