ccopy_reg
_reconstructor
p0
(cpandas.core.frame
DataFrame
p1
c__builtin__
object
p2
Ntp3
Rp4
g0
(cpandas.core.internals
BlockManager
p5
g2
Ntp6
Rp7
((lp8
cnumpy.core.multiarray
_reconstruct
p9
(cpandas.core.index
Index
p10
(I0
tp11
S'b'
p12
tp13
Rp14
((I1
(I3
tp15
cnumpy
dtype
p16
(S'O8'
p17
I0
I1
tp18
Rp19
(I3
S'|'
p20
NNNI-1
I-1
I63
tp21
bI00
(lp22
S'keyword'
p23
aS'text'
p24
aS'sentiment'
p25
atp26
(Ntp27
tp28
bag9
(cpandas.core.index
Int64Index
p29
(I0
tp30
g12
tp31
Rp32
((I1
(I1051
tp33
g16
(S'i8'
p34
I0
I1
tp35
Rp36
(I3
S'<'
p37
NNNI-1
I-1
I0
tp38
bI00
S'\x00\x00\x00\x00\x00\x00\x00\x00\x01\x00\x00\x00\x00\x00\x00\x00\x02\x00\x00\x00\x00\x00\x00\x00\x03\x00\x00\x00\x00\x00\x00\x00\x04\x00\x00\x00\x00\x00\x00\x00\x05\x00\x00\x00\x00\x00\x00\x00\x06\x00\x00\x00\x00\x00\x00\x00\x07\x00\x00\x00\x00\x00\x00\x00\x08\x00\x00\x00\x00\x00\x00\x00\t\x00\x00\x00\x00\x00\x00\x00\n\x00\x00\x00\x00\x00\x00\x00\x0b\x00\x00\x00\x00\x00\x00\x00\x0c\x00\x00\x00\x00\x00\x00\x00\r\x00\x00\x00\x00\x00\x00\x00\x0e\x00\x00\x00\x00\x00\x00\x00\x0f\x00\x00\x00\x00\x00\x00\x00\x10\x00\x00\x00\x00\x00\x00\x00\x11\x00\x00\x00\x00\x00\x00\x00\x12\x00\x00\x00\x00\x00\x00\x00\x13\x00\x00\x00\x00\x00\x00\x00\x14\x00\x00\x00\x00\x00\x00\x00\x15\x00\x00\x00\x00\x00\x00\x00\x16\x00\x00\x00\x00\x00\x00\x00\x17\x00\x00\x00\x00\x00\x00\x00\x18\x00\x00\x00\x00\x00\x00\x00\x19\x00\x00\x00\x00\x00\x00\x00\x1a\x00\x00\x00\x00\x00\x00\x00\x1b\x00\x00\x00\x00\x00\x00\x00\x1c\x00\x00\x00\x00\x00\x00\x00\x1d\x00\x00\x00\x00\x00\x00\x00\x1e\x00\x00\x00\x00\x00\x00\x00\x1f\x00\x00\x00\x00\x00\x00\x00 \x00\x00\x00\x00\x00\x00\x00!\x00\x00\x00\x00\x00\x00\x00"\x00\x00\x00\x00\x00\x00\x00#\x00\x00\x00\x00\x00\x00\x00$\x00\x00\x00\x00\x00\x00\x00%\x00\x00\x00\x00\x00\x00\x00&\x00\x00\x00\x00\x00\x00\x00\'\x00\x00\x00\x00\x00\x00\x00(\x00\x00\x00\x00\x00\x00\x00)\x00\x00\x00\x00\x00\x00\x00*\x00\x00\x00\x00\x00\x00\x00+\x00\x00\x00\x00\x00\x00\x00,\x00\x00\x00\x00\x00\x00\x00-\x00\x00\x00\x00\x00\x00\x00.\x00\x00\x00\x00\x00\x00\x00/\x00\x00\x00\x00\x00\x00\x000\x00\x00\x00\x00\x00\x00\x001\x00\x00\x00\x00\x00\x00\x002\x00\x00\x00\x00\x00\x00\x003\x00\x00\x00\x00\x00\x00\x004\x00\x00\x00\x00\x00\x00\x005\x00\x00\x00\x00\x00\x00\x006\x00\x00\x00\x00\x00\x00\x007\x00\x00\x00\x00\x00\x00\x008\x00\x00\x00\x00\x00\x00\x009\x00\x00\x00\x00\x00\x00\x00:\x00\x00\x00\x00\x00\x00\x00;\x00\x00\x00\x00\x00\x00\x00<\x00\x00\x00\x00\x00\x00\x00=\x00\x00\x00\x00\x00\x00\x00>\x00\x00\x00\x00\x00\x00\x00?\x00\x00\x00\x00\x00\x00\x00@\x00\x00\x00\x00\x00\x00\x00A\x00\x00\x00\x00\x00\x00\x00B\x00\x00\x00\x00\x00\x00\x00C\x00\x00\x00\x00\x00\x00\x00D\x00\x00\x00\x00\x00\x00\x00E\x00\x00\x00\x00\x00\x00\x00F\x00\x00\x00\x00\x00\x00\x00G\x00\x00\x00\x00\x00\x00\x00H\x00\x00\x00\x00\x00\x00\x00I\x00\x00\x00\x00\x00\x00\x00J\x00\x00\x00\x00\x00\x00\x00K\x00\x00\x00\x00\x00\x00\x00L\x00\x00\x00\x00\x00\x00\x00M\x00\x00\x00\x00\x00\x00\x00N\x00\x00\x00\x00\x00\x00\x00O\x00\x00\x00\x00\x00\x00\x00P\x00\x00\x00\x00\x00\x00\x00Q\x00\x00\x00\x00\x00\x00\x00R\x00\x00\x00\x00\x00\x00\x00S\x00\x00\x00\x00\x00\x00\x00T\x00\x00\x00\x00\x00\x00\x00U\x00\x00\x00\x00\x00\x00\x00V\x00\x00\x00\x00\x00\x00\x00W\x00\x00\x00\x00\x00\x00\x00X\x00\x00\x00\x00\x00\x00\x00Y\x00\x00\x00\x00\x00\x00\x00Z\x00\x00\x00\x00\x00\x00\x00[\x00\x00\x00\x00\x00\x00\x00\\\x00\x00\x00\x00\x00\x00\x00]\x00\x00\x00\x00\x00\x00\x00^\x00\x00\x00\x00\x00\x00\x00_\x00\x00\x00\x00\x00\x00\x00`\x00\x00\x00\x00\x00\x00\x00a\x00\x00\x00\x00\x00\x00\x00b\x00\x00\x00\x00\x00\x00\x00c\x00\x00\x00\x00\x00\x00\x00d\x00\x00\x00\x00\x00\x00\x00e\x00\x00\x00\x00\x00\x00\x00f\x00\x00\x00\x00\x00\x00\x00g\x00\x00\x00\x00\x00\x00\x00h\x00\x00\x00\x00\x00\x00\x00i\x00\x00\x00\x00\x00\x00\x00j\x00\x00\x00\x00\x00\x00\x00k\x00\x00\x00\x00\x00\x00\x00l\x00\x00\x00\x00\x00\x00\x00m\x00\x00\x00\x00\x00\x00\x00n\x00\x00\x00\x00\x00\x00\x00o\x00\x00\x00\x00\x00\x00\x00p\x00\x00\x00\x00\x00\x00\x00q\x00\x00\x00\x00\x00\x00\x00r\x00\x00\x00\x00\x00\x00\x00s\x00\x00\x00\x00\x00\x00\x00t\x00\x00\x00\x00\x00\x00\x00u\x00\x00\x00\x00\x00\x00\x00v\x00\x00\x00\x00\x00\x00\x00w\x00\x00\x00\x00\x00\x00\x00x\x00\x00\x00\x00\x00\x00\x00y\x00\x00\x00\x00\x00\x00\x00z\x00\x00\x00\x00\x00\x00\x00{\x00\x00\x00\x00\x00\x00\x00|\x00\x00\x00\x00\x00\x00\x00}\x00\x00\x00\x00\x00\x00\x00~\x00\x00\x00\x00\x00\x00\x00\x7f\x00\x00\x00\x00\x00\x00\x00\x80\x00\x00\x00\x00\x00\x00\x00\x81\x00\x00\x00\x00\x00\x00\x00\x82\x00\x00\x00\x00\x00\x00\x00\x83\x00\x00\x00\x00\x00\x00\x00\x84\x00\x00\x00\x00\x00\x00\x00\x85\x00\x00\x00\x00\x00\x00\x00\x86\x00\x00\x00\x00\x00\x00\x00\x87\x00\x00\x00\x00\x00\x00\x00\x88\x00\x00\x00\x00\x00\x00\x00\x89\x00\x00\x00\x00\x00\x00\x00\x8a\x00\x00\x00\x00\x00\x00\x00\x8b\x00\x00\x00\x00\x00\x00\x00\x8c\x00\x00\x00\x00\x00\x00\x00\x8d\x00\x00\x00\x00\x00\x00\x00\x8e\x00\x00\x00\x00\x00\x00\x00\x8f\x00\x00\x00\x00\x00\x00\x00\x90\x00\x00\x00\x00\x00\x00\x00\x91\x00\x00\x00\x00\x00\x00\x00\x92\x00\x00\x00\x00\x00\x00\x00\x93\x00\x00\x00\x00\x00\x00\x00\x94\x00\x00\x00\x00\x00\x00\x00\x95\x00\x00\x00\x00\x00\x00\x00\x96\x00\x00\x00\x00\x00\x00\x00\x97\x00\x00\x00\x00\x00\x00\x00\x98\x00\x00\x00\x00\x00\x00\x00\x99\x00\x00\x00\x00\x00\x00\x00\x9a\x00\x00\x00\x00\x00\x00\x00\x9b\x00\x00\x00\x00\x00\x00\x00\x9c\x00\x00\x00\x00\x00\x00\x00\x9d\x00\x00\x00\x00\x00\x00\x00\x9e\x00\x00\x00\x00\x00\x00\x00\x9f\x00\x00\x00\x00\x00\x00\x00\xa0\x00\x00\x00\x00\x00\x00\x00\xa1\x00\x00\x00\x00\x00\x00\x00\xa2\x00\x00\x00\x00\x00\x00\x00\xa3\x00\x00\x00\x00\x00\x00\x00\xa4\x00\x00\x00\x00\x00\x00\x00\xa5\x00\x00\x00\x00\x00\x00\x00\xa6\x00\x00\x00\x00\x00\x00\x00\xa7\x00\x00\x00\x00\x00\x00\x00\xa8\x00\x00\x00\x00\x00\x00\x00\xa9\x00\x00\x00\x00\x00\x00\x00\xaa\x00\x00\x00\x00\x00\x00\x00\xab\x00\x00\x00\x00\x00\x00\x00\xac\x00\x00\x00\x00\x00\x00\x00\xad\x00\x00\x00\x00\x00\x00\x00\xae\x00\x00\x00\x00\x00\x00\x00\xaf\x00\x00\x00\x00\x00\x00\x00\xb0\x00\x00\x00\x00\x00\x00\x00\xb1\x00\x00\x00\x00\x00\x00\x00\xb2\x00\x00\x00\x00\x00\x00\x00\xb3\x00\x00\x00\x00\x00\x00\x00\xb4\x00\x00\x00\x00\x00\x00\x00\xb5\x00\x00\x00\x00\x00\x00\x00\xb6\x00\x00\x00\x00\x00\x00\x00\xb7\x00\x00\x00\x00\x00\x00\x00\xb8\x00\x00\x00\x00\x00\x00\x00\xb9\x00\x00\x00\x00\x00\x00\x00\xba\x00\x00\x00\x00\x00\x00\x00\xbb\x00\x00\x00\x00\x00\x00\x00\xbc\x00\x00\x00\x00\x00\x00\x00\xbd\x00\x00\x00\x00\x00\x00\x00\xbe\x00\x00\x00\x00\x00\x00\x00\xbf\x00\x00\x00\x00\x00\x00\x00\xc0\x00\x00\x00\x00\x00\x00\x00\xc1\x00\x00\x00\x00\x00\x00\x00\xc2\x00\x00\x00\x00\x00\x00\x00\xc3\x00\x00\x00\x00\x00\x00\x00\xc4\x00\x00\x00\x00\x00\x00\x00\xc5\x00\x00\x00\x00\x00\x00\x00\xc6\x00\x00\x00\x00\x00\x00\x00\xc7\x00\x00\x00\x00\x00\x00\x00\xc8\x00\x00\x00\x00\x00\x00\x00\xc9\x00\x00\x00\x00\x00\x00\x00\xca\x00\x00\x00\x00\x00\x00\x00\xcb\x00\x00\x00\x00\x00\x00\x00\xcc\x00\x00\x00\x00\x00\x00\x00\xcd\x00\x00\x00\x00\x00\x00\x00\xce\x00\x00\x00\x00\x00\x00\x00\xcf\x00\x00\x00\x00\x00\x00\x00\xd0\x00\x00\x00\x00\x00\x00\x00\xd1\x00\x00\x00\x00\x00\x00\x00\xd2\x00\x00\x00\x00\x00\x00\x00\xd3\x00\x00\x00\x00\x00\x00\x00\xd4\x00\x00\x00\x00\x00\x00\x00\xd5\x00\x00\x00\x00\x00\x00\x00\xd6\x00\x00\x00\x00\x00\x00\x00\xd7\x00\x00\x00\x00\x00\x00\x00\xd8\x00\x00\x00\x00\x00\x00\x00\xd9\x00\x00\x00\x00\x00\x00\x00\xda\x00\x00\x00\x00\x00\x00\x00\xdb\x00\x00\x00\x00\x00\x00\x00\xdc\x00\x00\x00\x00\x00\x00\x00\xdd\x00\x00\x00\x00\x00\x00\x00\xde\x00\x00\x00\x00\x00\x00\x00\xdf\x00\x00\x00\x00\x00\x00\x00\xe0\x00\x00\x00\x00\x00\x00\x00\xe1\x00\x00\x00\x00\x00\x00\x00\xe2\x00\x00\x00\x00\x00\x00\x00\xe3\x00\x00\x00\x00\x00\x00\x00\xe4\x00\x00\x00\x00\x00\x00\x00\xe5\x00\x00\x00\x00\x00\x00\x00\xe6\x00\x00\x00\x00\x00\x00\x00\xe7\x00\x00\x00\x00\x00\x00\x00\xe8\x00\x00\x00\x00\x00\x00\x00\xe9\x00\x00\x00\x00\x00\x00\x00\xea\x00\x00\x00\x00\x00\x00\x00\xeb\x00\x00\x00\x00\x00\x00\x00\xec\x00\x00\x00\x00\x00\x00\x00\xed\x00\x00\x00\x00\x00\x00\x00\xee\x00\x00\x00\x00\x00\x00\x00\xef\x00\x00\x00\x00\x00\x00\x00\xf0\x00\x00\x00\x00\x00\x00\x00\xf1\x00\x00\x00\x00\x00\x00\x00\xf2\x00\x00\x00\x00\x00\x00\x00\xf3\x00\x00\x00\x00\x00\x00\x00\xf4\x00\x00\x00\x00\x00\x00\x00\xf5\x00\x00\x00\x00\x00\x00\x00\xf6\x00\x00\x00\x00\x00\x00\x00\xf7\x00\x00\x00\x00\x00\x00\x00\xf8\x00\x00\x00\x00\x00\x00\x00\xf9\x00\x00\x00\x00\x00\x00\x00\xfa\x00\x00\x00\x00\x00\x00\x00\xfb\x00\x00\x00\x00\x00\x00\x00\xfc\x00\x00\x00\x00\x00\x00\x00\xfd\x00\x00\x00\x00\x00\x00\x00\xfe\x00\x00\x00\x00\x00\x00\x00\xff\x00\x00\x00\x00\x00\x00\x00\x00\x01\x00\x00\x00\x00\x00\x00\x01\x01\x00\x00\x00\x00\x00\x00\x02\x01\x00\x00\x00\x00\x00\x00\x03\x01\x00\x00\x00\x00\x00\x00\x04\x01\x00\x00\x00\x00\x00\x00\x05\x01\x00\x00\x00\x00\x00\x00\x06\x01\x00\x00\x00\x00\x00\x00\x07\x01\x00\x00\x00\x00\x00\x00\x08\x01\x00\x00\x00\x00\x00\x00\t\x01\x00\x00\x00\x00\x00\x00\n\x01\x00\x00\x00\x00\x00\x00\x0b\x01\x00\x00\x00\x00\x00\x00\x0c\x01\x00\x00\x00\x00\x00\x00\r\x01\x00\x00\x00\x00\x00\x00\x0e\x01\x00\x00\x00\x00\x00\x00\x0f\x01\x00\x00\x00\x00\x00\x00\x10\x01\x00\x00\x00\x00\x00\x00\x11\x01\x00\x00\x00\x00\x00\x00\x12\x01\x00\x00\x00\x00\x00\x00\x13\x01\x00\x00\x00\x00\x00\x00\x14\x01\x00\x00\x00\x00\x00\x00\x15\x01\x00\x00\x00\x00\x00\x00\x16\x01\x00\x00\x00\x00\x00\x00\x17\x01\x00\x00\x00\x00\x00\x00\x18\x01\x00\x00\x00\x00\x00\x00\x19\x01\x00\x00\x00\x00\x00\x00\x1a\x01\x00\x00\x00\x00\x00\x00\x1b\x01\x00\x00\x00\x00\x00\x00\x1c\x01\x00\x00\x00\x00\x00\x00\x1d\x01\x00\x00\x00\x00\x00\x00\x1e\x01\x00\x00\x00\x00\x00\x00\x1f\x01\x00\x00\x00\x00\x00\x00 \x01\x00\x00\x00\x00\x00\x00!\x01\x00\x00\x00\x00\x00\x00"\x01\x00\x00\x00\x00\x00\x00#\x01\x00\x00\x00\x00\x00\x00$\x01\x00\x00\x00\x00\x00\x00%\x01\x00\x00\x00\x00\x00\x00&\x01\x00\x00\x00\x00\x00\x00\'\x01\x00\x00\x00\x00\x00\x00(\x01\x00\x00\x00\x00\x00\x00)\x01\x00\x00\x00\x00\x00\x00*\x01\x00\x00\x00\x00\x00\x00+\x01\x00\x00\x00\x00\x00\x00,\x01\x00\x00\x00\x00\x00\x00-\x01\x00\x00\x00\x00\x00\x00.\x01\x00\x00\x00\x00\x00\x00/\x01\x00\x00\x00\x00\x00\x000\x01\x00\x00\x00\x00\x00\x001\x01\x00\x00\x00\x00\x00\x002\x01\x00\x00\x00\x00\x00\x003\x01\x00\x00\x00\x00\x00\x004\x01\x00\x00\x00\x00\x00\x005\x01\x00\x00\x00\x00\x00\x006\x01\x00\x00\x00\x00\x00\x007\x01\x00\x00\x00\x00\x00\x008\x01\x00\x00\x00\x00\x00\x009\x01\x00\x00\x00\x00\x00\x00:\x01\x00\x00\x00\x00\x00\x00;\x01\x00\x00\x00\x00\x00\x00<\x01\x00\x00\x00\x00\x00\x00=\x01\x00\x00\x00\x00\x00\x00>\x01\x00\x00\x00\x00\x00\x00?\x01\x00\x00\x00\x00\x00\x00@\x01\x00\x00\x00\x00\x00\x00A\x01\x00\x00\x00\x00\x00\x00B\x01\x00\x00\x00\x00\x00\x00C\x01\x00\x00\x00\x00\x00\x00D\x01\x00\x00\x00\x00\x00\x00E\x01\x00\x00\x00\x00\x00\x00F\x01\x00\x00\x00\x00\x00\x00G\x01\x00\x00\x00\x00\x00\x00H\x01\x00\x00\x00\x00\x00\x00I\x01\x00\x00\x00\x00\x00\x00J\x01\x00\x00\x00\x00\x00\x00K\x01\x00\x00\x00\x00\x00\x00L\x01\x00\x00\x00\x00\x00\x00M\x01\x00\x00\x00\x00\x00\x00N\x01\x00\x00\x00\x00\x00\x00O\x01\x00\x00\x00\x00\x00\x00P\x01\x00\x00\x00\x00\x00\x00Q\x01\x00\x00\x00\x00\x00\x00R\x01\x00\x00\x00\x00\x00\x00S\x01\x00\x00\x00\x00\x00\x00T\x01\x00\x00\x00\x00\x00\x00U\x01\x00\x00\x00\x00\x00\x00V\x01\x00\x00\x00\x00\x00\x00W\x01\x00\x00\x00\x00\x00\x00X\x01\x00\x00\x00\x00\x00\x00Y\x01\x00\x00\x00\x00\x00\x00Z\x01\x00\x00\x00\x00\x00\x00[\x01\x00\x00\x00\x00\x00\x00\\\x01\x00\x00\x00\x00\x00\x00]\x01\x00\x00\x00\x00\x00\x00^\x01\x00\x00\x00\x00\x00\x00_\x01\x00\x00\x00\x00\x00\x00`\x01\x00\x00\x00\x00\x00\x00a\x01\x00\x00\x00\x00\x00\x00b\x01\x00\x00\x00\x00\x00\x00c\x01\x00\x00\x00\x00\x00\x00d\x01\x00\x00\x00\x00\x00\x00e\x01\x00\x00\x00\x00\x00\x00f\x01\x00\x00\x00\x00\x00\x00g\x01\x00\x00\x00\x00\x00\x00h\x01\x00\x00\x00\x00\x00\x00i\x01\x00\x00\x00\x00\x00\x00j\x01\x00\x00\x00\x00\x00\x00k\x01\x00\x00\x00\x00\x00\x00l\x01\x00\x00\x00\x00\x00\x00m\x01\x00\x00\x00\x00\x00\x00n\x01\x00\x00\x00\x00\x00\x00o\x01\x00\x00\x00\x00\x00\x00p\x01\x00\x00\x00\x00\x00\x00q\x01\x00\x00\x00\x00\x00\x00r\x01\x00\x00\x00\x00\x00\x00s\x01\x00\x00\x00\x00\x00\x00t\x01\x00\x00\x00\x00\x00\x00u\x01\x00\x00\x00\x00\x00\x00v\x01\x00\x00\x00\x00\x00\x00w\x01\x00\x00\x00\x00\x00\x00x\x01\x00\x00\x00\x00\x00\x00y\x01\x00\x00\x00\x00\x00\x00z\x01\x00\x00\x00\x00\x00\x00{\x01\x00\x00\x00\x00\x00\x00|\x01\x00\x00\x00\x00\x00\x00}\x01\x00\x00\x00\x00\x00\x00~\x01\x00\x00\x00\x00\x00\x00\x7f\x01\x00\x00\x00\x00\x00\x00\x80\x01\x00\x00\x00\x00\x00\x00\x81\x01\x00\x00\x00\x00\x00\x00\x82\x01\x00\x00\x00\x00\x00\x00\x83\x01\x00\x00\x00\x00\x00\x00\x84\x01\x00\x00\x00\x00\x00\x00\x85\x01\x00\x00\x00\x00\x00\x00\x86\x01\x00\x00\x00\x00\x00\x00\x87\x01\x00\x00\x00\x00\x00\x00\x88\x01\x00\x00\x00\x00\x00\x00\x89\x01\x00\x00\x00\x00\x00\x00\x8a\x01\x00\x00\x00\x00\x00\x00\x8b\x01\x00\x00\x00\x00\x00\x00\x8c\x01\x00\x00\x00\x00\x00\x00\x8d\x01\x00\x00\x00\x00\x00\x00\x8e\x01\x00\x00\x00\x00\x00\x00\x8f\x01\x00\x00\x00\x00\x00\x00\x90\x01\x00\x00\x00\x00\x00\x00\x91\x01\x00\x00\x00\x00\x00\x00\x92\x01\x00\x00\x00\x00\x00\x00\x93\x01\x00\x00\x00\x00\x00\x00\x94\x01\x00\x00\x00\x00\x00\x00\x95\x01\x00\x00\x00\x00\x00\x00\x96\x01\x00\x00\x00\x00\x00\x00\x97\x01\x00\x00\x00\x00\x00\x00\x98\x01\x00\x00\x00\x00\x00\x00\x99\x01\x00\x00\x00\x00\x00\x00\x9a\x01\x00\x00\x00\x00\x00\x00\x9b\x01\x00\x00\x00\x00\x00\x00\x9c\x01\x00\x00\x00\x00\x00\x00\x9d\x01\x00\x00\x00\x00\x00\x00\x9e\x01\x00\x00\x00\x00\x00\x00\x9f\x01\x00\x00\x00\x00\x00\x00\xa0\x01\x00\x00\x00\x00\x00\x00\xa1\x01\x00\x00\x00\x00\x00\x00\xa2\x01\x00\x00\x00\x00\x00\x00\xa3\x01\x00\x00\x00\x00\x00\x00\xa4\x01\x00\x00\x00\x00\x00\x00\xa5\x01\x00\x00\x00\x00\x00\x00\xa6\x01\x00\x00\x00\x00\x00\x00\xa7\x01\x00\x00\x00\x00\x00\x00\xa8\x01\x00\x00\x00\x00\x00\x00\xa9\x01\x00\x00\x00\x00\x00\x00\xaa\x01\x00\x00\x00\x00\x00\x00\xab\x01\x00\x00\x00\x00\x00\x00\xac\x01\x00\x00\x00\x00\x00\x00\xad\x01\x00\x00\x00\x00\x00\x00\xae\x01\x00\x00\x00\x00\x00\x00\xaf\x01\x00\x00\x00\x00\x00\x00\xb0\x01\x00\x00\x00\x00\x00\x00\xb1\x01\x00\x00\x00\x00\x00\x00\xb2\x01\x00\x00\x00\x00\x00\x00\xb3\x01\x00\x00\x00\x00\x00\x00\xb4\x01\x00\x00\x00\x00\x00\x00\xb5\x01\x00\x00\x00\x00\x00\x00\xb6\x01\x00\x00\x00\x00\x00\x00\xb7\x01\x00\x00\x00\x00\x00\x00\xb8\x01\x00\x00\x00\x00\x00\x00\xb9\x01\x00\x00\x00\x00\x00\x00\xba\x01\x00\x00\x00\x00\x00\x00\xbb\x01\x00\x00\x00\x00\x00\x00\xbc\x01\x00\x00\x00\x00\x00\x00\xbd\x01\x00\x00\x00\x00\x00\x00\xbe\x01\x00\x00\x00\x00\x00\x00\xbf\x01\x00\x00\x00\x00\x00\x00\xc0\x01\x00\x00\x00\x00\x00\x00\xc1\x01\x00\x00\x00\x00\x00\x00\xc2\x01\x00\x00\x00\x00\x00\x00\xc3\x01\x00\x00\x00\x00\x00\x00\xc4\x01\x00\x00\x00\x00\x00\x00\xc5\x01\x00\x00\x00\x00\x00\x00\xc6\x01\x00\x00\x00\x00\x00\x00\xc7\x01\x00\x00\x00\x00\x00\x00\xc8\x01\x00\x00\x00\x00\x00\x00\xc9\x01\x00\x00\x00\x00\x00\x00\xca\x01\x00\x00\x00\x00\x00\x00\xcb\x01\x00\x00\x00\x00\x00\x00\xcc\x01\x00\x00\x00\x00\x00\x00\xcd\x01\x00\x00\x00\x00\x00\x00\xce\x01\x00\x00\x00\x00\x00\x00\xcf\x01\x00\x00\x00\x00\x00\x00\xd0\x01\x00\x00\x00\x00\x00\x00\xd1\x01\x00\x00\x00\x00\x00\x00\xd2\x01\x00\x00\x00\x00\x00\x00\xd3\x01\x00\x00\x00\x00\x00\x00\xd4\x01\x00\x00\x00\x00\x00\x00\xd5\x01\x00\x00\x00\x00\x00\x00\xd6\x01\x00\x00\x00\x00\x00\x00\xd7\x01\x00\x00\x00\x00\x00\x00\xd8\x01\x00\x00\x00\x00\x00\x00\xd9\x01\x00\x00\x00\x00\x00\x00\xda\x01\x00\x00\x00\x00\x00\x00\xdb\x01\x00\x00\x00\x00\x00\x00\xdc\x01\x00\x00\x00\x00\x00\x00\xdd\x01\x00\x00\x00\x00\x00\x00\xde\x01\x00\x00\x00\x00\x00\x00\xdf\x01\x00\x00\x00\x00\x00\x00\xe0\x01\x00\x00\x00\x00\x00\x00\xe1\x01\x00\x00\x00\x00\x00\x00\xe2\x01\x00\x00\x00\x00\x00\x00\xe3\x01\x00\x00\x00\x00\x00\x00\xe4\x01\x00\x00\x00\x00\x00\x00\xe5\x01\x00\x00\x00\x00\x00\x00\xe6\x01\x00\x00\x00\x00\x00\x00\xe7\x01\x00\x00\x00\x00\x00\x00\xe8\x01\x00\x00\x00\x00\x00\x00\xe9\x01\x00\x00\x00\x00\x00\x00\xea\x01\x00\x00\x00\x00\x00\x00\xeb\x01\x00\x00\x00\x00\x00\x00\xec\x01\x00\x00\x00\x00\x00\x00\xed\x01\x00\x00\x00\x00\x00\x00\xee\x01\x00\x00\x00\x00\x00\x00\xef\x01\x00\x00\x00\x00\x00\x00\xf0\x01\x00\x00\x00\x00\x00\x00\xf1\x01\x00\x00\x00\x00\x00\x00\xf2\x01\x00\x00\x00\x00\x00\x00\xf3\x01\x00\x00\x00\x00\x00\x00\xf4\x01\x00\x00\x00\x00\x00\x00\xf5\x01\x00\x00\x00\x00\x00\x00\xf6\x01\x00\x00\x00\x00\x00\x00\xf7\x01\x00\x00\x00\x00\x00\x00\xf8\x01\x00\x00\x00\x00\x00\x00\xf9\x01\x00\x00\x00\x00\x00\x00\xfa\x01\x00\x00\x00\x00\x00\x00\xfb\x01\x00\x00\x00\x00\x00\x00\xfc\x01\x00\x00\x00\x00\x00\x00\xfd\x01\x00\x00\x00\x00\x00\x00\xfe\x01\x00\x00\x00\x00\x00\x00\xff\x01\x00\x00\x00\x00\x00\x00\x00\x02\x00\x00\x00\x00\x00\x00\x01\x02\x00\x00\x00\x00\x00\x00\x02\x02\x00\x00\x00\x00\x00\x00\x03\x02\x00\x00\x00\x00\x00\x00\x04\x02\x00\x00\x00\x00\x00\x00\x05\x02\x00\x00\x00\x00\x00\x00\x06\x02\x00\x00\x00\x00\x00\x00\x07\x02\x00\x00\x00\x00\x00\x00\x08\x02\x00\x00\x00\x00\x00\x00\t\x02\x00\x00\x00\x00\x00\x00\n\x02\x00\x00\x00\x00\x00\x00\x0b\x02\x00\x00\x00\x00\x00\x00\x0c\x02\x00\x00\x00\x00\x00\x00\r\x02\x00\x00\x00\x00\x00\x00\x0e\x02\x00\x00\x00\x00\x00\x00\x0f\x02\x00\x00\x00\x00\x00\x00\x10\x02\x00\x00\x00\x00\x00\x00\x11\x02\x00\x00\x00\x00\x00\x00\x12\x02\x00\x00\x00\x00\x00\x00\x13\x02\x00\x00\x00\x00\x00\x00\x14\x02\x00\x00\x00\x00\x00\x00\x15\x02\x00\x00\x00\x00\x00\x00\x16\x02\x00\x00\x00\x00\x00\x00\x17\x02\x00\x00\x00\x00\x00\x00\x18\x02\x00\x00\x00\x00\x00\x00\x19\x02\x00\x00\x00\x00\x00\x00\x1a\x02\x00\x00\x00\x00\x00\x00\x1b\x02\x00\x00\x00\x00\x00\x00\x1c\x02\x00\x00\x00\x00\x00\x00\x1d\x02\x00\x00\x00\x00\x00\x00\x1e\x02\x00\x00\x00\x00\x00\x00\x1f\x02\x00\x00\x00\x00\x00\x00 \x02\x00\x00\x00\x00\x00\x00!\x02\x00\x00\x00\x00\x00\x00"\x02\x00\x00\x00\x00\x00\x00#\x02\x00\x00\x00\x00\x00\x00$\x02\x00\x00\x00\x00\x00\x00%\x02\x00\x00\x00\x00\x00\x00&\x02\x00\x00\x00\x00\x00\x00\'\x02\x00\x00\x00\x00\x00\x00(\x02\x00\x00\x00\x00\x00\x00)\x02\x00\x00\x00\x00\x00\x00*\x02\x00\x00\x00\x00\x00\x00+\x02\x00\x00\x00\x00\x00\x00,\x02\x00\x00\x00\x00\x00\x00-\x02\x00\x00\x00\x00\x00\x00.\x02\x00\x00\x00\x00\x00\x00/\x02\x00\x00\x00\x00\x00\x000\x02\x00\x00\x00\x00\x00\x001\x02\x00\x00\x00\x00\x00\x002\x02\x00\x00\x00\x00\x00\x003\x02\x00\x00\x00\x00\x00\x004\x02\x00\x00\x00\x00\x00\x005\x02\x00\x00\x00\x00\x00\x006\x02\x00\x00\x00\x00\x00\x007\x02\x00\x00\x00\x00\x00\x008\x02\x00\x00\x00\x00\x00\x009\x02\x00\x00\x00\x00\x00\x00:\x02\x00\x00\x00\x00\x00\x00;\x02\x00\x00\x00\x00\x00\x00<\x02\x00\x00\x00\x00\x00\x00=\x02\x00\x00\x00\x00\x00\x00>\x02\x00\x00\x00\x00\x00\x00?\x02\x00\x00\x00\x00\x00\x00@\x02\x00\x00\x00\x00\x00\x00A\x02\x00\x00\x00\x00\x00\x00B\x02\x00\x00\x00\x00\x00\x00C\x02\x00\x00\x00\x00\x00\x00D\x02\x00\x00\x00\x00\x00\x00E\x02\x00\x00\x00\x00\x00\x00F\x02\x00\x00\x00\x00\x00\x00G\x02\x00\x00\x00\x00\x00\x00H\x02\x00\x00\x00\x00\x00\x00I\x02\x00\x00\x00\x00\x00\x00J\x02\x00\x00\x00\x00\x00\x00K\x02\x00\x00\x00\x00\x00\x00L\x02\x00\x00\x00\x00\x00\x00M\x02\x00\x00\x00\x00\x00\x00N\x02\x00\x00\x00\x00\x00\x00O\x02\x00\x00\x00\x00\x00\x00P\x02\x00\x00\x00\x00\x00\x00Q\x02\x00\x00\x00\x00\x00\x00R\x02\x00\x00\x00\x00\x00\x00S\x02\x00\x00\x00\x00\x00\x00T\x02\x00\x00\x00\x00\x00\x00U\x02\x00\x00\x00\x00\x00\x00V\x02\x00\x00\x00\x00\x00\x00W\x02\x00\x00\x00\x00\x00\x00X\x02\x00\x00\x00\x00\x00\x00Y\x02\x00\x00\x00\x00\x00\x00Z\x02\x00\x00\x00\x00\x00\x00[\x02\x00\x00\x00\x00\x00\x00\\\x02\x00\x00\x00\x00\x00\x00]\x02\x00\x00\x00\x00\x00\x00^\x02\x00\x00\x00\x00\x00\x00_\x02\x00\x00\x00\x00\x00\x00`\x02\x00\x00\x00\x00\x00\x00a\x02\x00\x00\x00\x00\x00\x00b\x02\x00\x00\x00\x00\x00\x00c\x02\x00\x00\x00\x00\x00\x00d\x02\x00\x00\x00\x00\x00\x00e\x02\x00\x00\x00\x00\x00\x00f\x02\x00\x00\x00\x00\x00\x00g\x02\x00\x00\x00\x00\x00\x00h\x02\x00\x00\x00\x00\x00\x00i\x02\x00\x00\x00\x00\x00\x00j\x02\x00\x00\x00\x00\x00\x00k\x02\x00\x00\x00\x00\x00\x00l\x02\x00\x00\x00\x00\x00\x00m\x02\x00\x00\x00\x00\x00\x00n\x02\x00\x00\x00\x00\x00\x00o\x02\x00\x00\x00\x00\x00\x00p\x02\x00\x00\x00\x00\x00\x00q\x02\x00\x00\x00\x00\x00\x00r\x02\x00\x00\x00\x00\x00\x00s\x02\x00\x00\x00\x00\x00\x00t\x02\x00\x00\x00\x00\x00\x00u\x02\x00\x00\x00\x00\x00\x00v\x02\x00\x00\x00\x00\x00\x00w\x02\x00\x00\x00\x00\x00\x00x\x02\x00\x00\x00\x00\x00\x00y\x02\x00\x00\x00\x00\x00\x00z\x02\x00\x00\x00\x00\x00\x00{\x02\x00\x00\x00\x00\x00\x00|\x02\x00\x00\x00\x00\x00\x00}\x02\x00\x00\x00\x00\x00\x00~\x02\x00\x00\x00\x00\x00\x00\x7f\x02\x00\x00\x00\x00\x00\x00\x80\x02\x00\x00\x00\x00\x00\x00\x81\x02\x00\x00\x00\x00\x00\x00\x82\x02\x00\x00\x00\x00\x00\x00\x83\x02\x00\x00\x00\x00\x00\x00\x84\x02\x00\x00\x00\x00\x00\x00\x85\x02\x00\x00\x00\x00\x00\x00\x86\x02\x00\x00\x00\x00\x00\x00\x87\x02\x00\x00\x00\x00\x00\x00\x88\x02\x00\x00\x00\x00\x00\x00\x89\x02\x00\x00\x00\x00\x00\x00\x8a\x02\x00\x00\x00\x00\x00\x00\x8b\x02\x00\x00\x00\x00\x00\x00\x8c\x02\x00\x00\x00\x00\x00\x00\x8d\x02\x00\x00\x00\x00\x00\x00\x8e\x02\x00\x00\x00\x00\x00\x00\x8f\x02\x00\x00\x00\x00\x00\x00\x90\x02\x00\x00\x00\x00\x00\x00\x91\x02\x00\x00\x00\x00\x00\x00\x92\x02\x00\x00\x00\x00\x00\x00\x93\x02\x00\x00\x00\x00\x00\x00\x94\x02\x00\x00\x00\x00\x00\x00\x95\x02\x00\x00\x00\x00\x00\x00\x96\x02\x00\x00\x00\x00\x00\x00\x97\x02\x00\x00\x00\x00\x00\x00\x98\x02\x00\x00\x00\x00\x00\x00\x99\x02\x00\x00\x00\x00\x00\x00\x9a\x02\x00\x00\x00\x00\x00\x00\x9b\x02\x00\x00\x00\x00\x00\x00\x9c\x02\x00\x00\x00\x00\x00\x00\x9d\x02\x00\x00\x00\x00\x00\x00\x9e\x02\x00\x00\x00\x00\x00\x00\x9f\x02\x00\x00\x00\x00\x00\x00\xa0\x02\x00\x00\x00\x00\x00\x00\xa1\x02\x00\x00\x00\x00\x00\x00\xa2\x02\x00\x00\x00\x00\x00\x00\xa3\x02\x00\x00\x00\x00\x00\x00\xa4\x02\x00\x00\x00\x00\x00\x00\xa5\x02\x00\x00\x00\x00\x00\x00\xa6\x02\x00\x00\x00\x00\x00\x00\xa7\x02\x00\x00\x00\x00\x00\x00\xa8\x02\x00\x00\x00\x00\x00\x00\xa9\x02\x00\x00\x00\x00\x00\x00\xaa\x02\x00\x00\x00\x00\x00\x00\xab\x02\x00\x00\x00\x00\x00\x00\xac\x02\x00\x00\x00\x00\x00\x00\xad\x02\x00\x00\x00\x00\x00\x00\xae\x02\x00\x00\x00\x00\x00\x00\xaf\x02\x00\x00\x00\x00\x00\x00\xb0\x02\x00\x00\x00\x00\x00\x00\xb1\x02\x00\x00\x00\x00\x00\x00\xb2\x02\x00\x00\x00\x00\x00\x00\xb3\x02\x00\x00\x00\x00\x00\x00\xb4\x02\x00\x00\x00\x00\x00\x00\xb5\x02\x00\x00\x00\x00\x00\x00\xb6\x02\x00\x00\x00\x00\x00\x00\xb7\x02\x00\x00\x00\x00\x00\x00\xb8\x02\x00\x00\x00\x00\x00\x00\xb9\x02\x00\x00\x00\x00\x00\x00\xba\x02\x00\x00\x00\x00\x00\x00\xbb\x02\x00\x00\x00\x00\x00\x00\xbc\x02\x00\x00\x00\x00\x00\x00\xbd\x02\x00\x00\x00\x00\x00\x00\xbe\x02\x00\x00\x00\x00\x00\x00\xbf\x02\x00\x00\x00\x00\x00\x00\xc0\x02\x00\x00\x00\x00\x00\x00\xc1\x02\x00\x00\x00\x00\x00\x00\xc2\x02\x00\x00\x00\x00\x00\x00\xc3\x02\x00\x00\x00\x00\x00\x00\xc4\x02\x00\x00\x00\x00\x00\x00\xc5\x02\x00\x00\x00\x00\x00\x00\xc6\x02\x00\x00\x00\x00\x00\x00\xc7\x02\x00\x00\x00\x00\x00\x00\xc8\x02\x00\x00\x00\x00\x00\x00\xc9\x02\x00\x00\x00\x00\x00\x00\xca\x02\x00\x00\x00\x00\x00\x00\xcb\x02\x00\x00\x00\x00\x00\x00\xcc\x02\x00\x00\x00\x00\x00\x00\xcd\x02\x00\x00\x00\x00\x00\x00\xce\x02\x00\x00\x00\x00\x00\x00\xcf\x02\x00\x00\x00\x00\x00\x00\xd0\x02\x00\x00\x00\x00\x00\x00\xd1\x02\x00\x00\x00\x00\x00\x00\xd2\x02\x00\x00\x00\x00\x00\x00\xd3\x02\x00\x00\x00\x00\x00\x00\xd4\x02\x00\x00\x00\x00\x00\x00\xd5\x02\x00\x00\x00\x00\x00\x00\xd6\x02\x00\x00\x00\x00\x00\x00\xd7\x02\x00\x00\x00\x00\x00\x00\xd8\x02\x00\x00\x00\x00\x00\x00\xd9\x02\x00\x00\x00\x00\x00\x00\xda\x02\x00\x00\x00\x00\x00\x00\xdb\x02\x00\x00\x00\x00\x00\x00\xdc\x02\x00\x00\x00\x00\x00\x00\xdd\x02\x00\x00\x00\x00\x00\x00\xde\x02\x00\x00\x00\x00\x00\x00\xdf\x02\x00\x00\x00\x00\x00\x00\xe0\x02\x00\x00\x00\x00\x00\x00\xe1\x02\x00\x00\x00\x00\x00\x00\xe2\x02\x00\x00\x00\x00\x00\x00\xe3\x02\x00\x00\x00\x00\x00\x00\xe4\x02\x00\x00\x00\x00\x00\x00\xe5\x02\x00\x00\x00\x00\x00\x00\xe6\x02\x00\x00\x00\x00\x00\x00\xe7\x02\x00\x00\x00\x00\x00\x00\xe8\x02\x00\x00\x00\x00\x00\x00\xe9\x02\x00\x00\x00\x00\x00\x00\xea\x02\x00\x00\x00\x00\x00\x00\xeb\x02\x00\x00\x00\x00\x00\x00\xec\x02\x00\x00\x00\x00\x00\x00\xed\x02\x00\x00\x00\x00\x00\x00\xee\x02\x00\x00\x00\x00\x00\x00\xef\x02\x00\x00\x00\x00\x00\x00\xf0\x02\x00\x00\x00\x00\x00\x00\xf1\x02\x00\x00\x00\x00\x00\x00\xf2\x02\x00\x00\x00\x00\x00\x00\xf3\x02\x00\x00\x00\x00\x00\x00\xf4\x02\x00\x00\x00\x00\x00\x00\xf5\x02\x00\x00\x00\x00\x00\x00\xf6\x02\x00\x00\x00\x00\x00\x00\xf7\x02\x00\x00\x00\x00\x00\x00\xf8\x02\x00\x00\x00\x00\x00\x00\xf9\x02\x00\x00\x00\x00\x00\x00\xfa\x02\x00\x00\x00\x00\x00\x00\xfb\x02\x00\x00\x00\x00\x00\x00\xfc\x02\x00\x00\x00\x00\x00\x00\xfd\x02\x00\x00\x00\x00\x00\x00\xfe\x02\x00\x00\x00\x00\x00\x00\xff\x02\x00\x00\x00\x00\x00\x00\x00\x03\x00\x00\x00\x00\x00\x00\x01\x03\x00\x00\x00\x00\x00\x00\x02\x03\x00\x00\x00\x00\x00\x00\x03\x03\x00\x00\x00\x00\x00\x00\x04\x03\x00\x00\x00\x00\x00\x00\x05\x03\x00\x00\x00\x00\x00\x00\x06\x03\x00\x00\x00\x00\x00\x00\x07\x03\x00\x00\x00\x00\x00\x00\x08\x03\x00\x00\x00\x00\x00\x00\t\x03\x00\x00\x00\x00\x00\x00\n\x03\x00\x00\x00\x00\x00\x00\x0b\x03\x00\x00\x00\x00\x00\x00\x0c\x03\x00\x00\x00\x00\x00\x00\r\x03\x00\x00\x00\x00\x00\x00\x0e\x03\x00\x00\x00\x00\x00\x00\x0f\x03\x00\x00\x00\x00\x00\x00\x10\x03\x00\x00\x00\x00\x00\x00\x11\x03\x00\x00\x00\x00\x00\x00\x12\x03\x00\x00\x00\x00\x00\x00\x13\x03\x00\x00\x00\x00\x00\x00\x14\x03\x00\x00\x00\x00\x00\x00\x15\x03\x00\x00\x00\x00\x00\x00\x16\x03\x00\x00\x00\x00\x00\x00\x17\x03\x00\x00\x00\x00\x00\x00\x18\x03\x00\x00\x00\x00\x00\x00\x19\x03\x00\x00\x00\x00\x00\x00\x1a\x03\x00\x00\x00\x00\x00\x00\x1b\x03\x00\x00\x00\x00\x00\x00\x1c\x03\x00\x00\x00\x00\x00\x00\x1d\x03\x00\x00\x00\x00\x00\x00\x1e\x03\x00\x00\x00\x00\x00\x00\x1f\x03\x00\x00\x00\x00\x00\x00 \x03\x00\x00\x00\x00\x00\x00!\x03\x00\x00\x00\x00\x00\x00"\x03\x00\x00\x00\x00\x00\x00#\x03\x00\x00\x00\x00\x00\x00$\x03\x00\x00\x00\x00\x00\x00%\x03\x00\x00\x00\x00\x00\x00&\x03\x00\x00\x00\x00\x00\x00\'\x03\x00\x00\x00\x00\x00\x00(\x03\x00\x00\x00\x00\x00\x00)\x03\x00\x00\x00\x00\x00\x00*\x03\x00\x00\x00\x00\x00\x00+\x03\x00\x00\x00\x00\x00\x00,\x03\x00\x00\x00\x00\x00\x00-\x03\x00\x00\x00\x00\x00\x00.\x03\x00\x00\x00\x00\x00\x00/\x03\x00\x00\x00\x00\x00\x000\x03\x00\x00\x00\x00\x00\x001\x03\x00\x00\x00\x00\x00\x002\x03\x00\x00\x00\x00\x00\x003\x03\x00\x00\x00\x00\x00\x004\x03\x00\x00\x00\x00\x00\x005\x03\x00\x00\x00\x00\x00\x006\x03\x00\x00\x00\x00\x00\x007\x03\x00\x00\x00\x00\x00\x008\x03\x00\x00\x00\x00\x00\x009\x03\x00\x00\x00\x00\x00\x00:\x03\x00\x00\x00\x00\x00\x00;\x03\x00\x00\x00\x00\x00\x00<\x03\x00\x00\x00\x00\x00\x00=\x03\x00\x00\x00\x00\x00\x00>\x03\x00\x00\x00\x00\x00\x00?\x03\x00\x00\x00\x00\x00\x00@\x03\x00\x00\x00\x00\x00\x00A\x03\x00\x00\x00\x00\x00\x00B\x03\x00\x00\x00\x00\x00\x00C\x03\x00\x00\x00\x00\x00\x00D\x03\x00\x00\x00\x00\x00\x00E\x03\x00\x00\x00\x00\x00\x00F\x03\x00\x00\x00\x00\x00\x00G\x03\x00\x00\x00\x00\x00\x00H\x03\x00\x00\x00\x00\x00\x00I\x03\x00\x00\x00\x00\x00\x00J\x03\x00\x00\x00\x00\x00\x00K\x03\x00\x00\x00\x00\x00\x00L\x03\x00\x00\x00\x00\x00\x00M\x03\x00\x00\x00\x00\x00\x00N\x03\x00\x00\x00\x00\x00\x00O\x03\x00\x00\x00\x00\x00\x00P\x03\x00\x00\x00\x00\x00\x00Q\x03\x00\x00\x00\x00\x00\x00R\x03\x00\x00\x00\x00\x00\x00S\x03\x00\x00\x00\x00\x00\x00T\x03\x00\x00\x00\x00\x00\x00U\x03\x00\x00\x00\x00\x00\x00V\x03\x00\x00\x00\x00\x00\x00W\x03\x00\x00\x00\x00\x00\x00X\x03\x00\x00\x00\x00\x00\x00Y\x03\x00\x00\x00\x00\x00\x00Z\x03\x00\x00\x00\x00\x00\x00[\x03\x00\x00\x00\x00\x00\x00\\\x03\x00\x00\x00\x00\x00\x00]\x03\x00\x00\x00\x00\x00\x00^\x03\x00\x00\x00\x00\x00\x00_\x03\x00\x00\x00\x00\x00\x00`\x03\x00\x00\x00\x00\x00\x00a\x03\x00\x00\x00\x00\x00\x00b\x03\x00\x00\x00\x00\x00\x00c\x03\x00\x00\x00\x00\x00\x00d\x03\x00\x00\x00\x00\x00\x00e\x03\x00\x00\x00\x00\x00\x00f\x03\x00\x00\x00\x00\x00\x00g\x03\x00\x00\x00\x00\x00\x00h\x03\x00\x00\x00\x00\x00\x00i\x03\x00\x00\x00\x00\x00\x00j\x03\x00\x00\x00\x00\x00\x00k\x03\x00\x00\x00\x00\x00\x00l\x03\x00\x00\x00\x00\x00\x00m\x03\x00\x00\x00\x00\x00\x00n\x03\x00\x00\x00\x00\x00\x00o\x03\x00\x00\x00\x00\x00\x00p\x03\x00\x00\x00\x00\x00\x00q\x03\x00\x00\x00\x00\x00\x00r\x03\x00\x00\x00\x00\x00\x00s\x03\x00\x00\x00\x00\x00\x00t\x03\x00\x00\x00\x00\x00\x00u\x03\x00\x00\x00\x00\x00\x00v\x03\x00\x00\x00\x00\x00\x00w\x03\x00\x00\x00\x00\x00\x00x\x03\x00\x00\x00\x00\x00\x00y\x03\x00\x00\x00\x00\x00\x00z\x03\x00\x00\x00\x00\x00\x00{\x03\x00\x00\x00\x00\x00\x00|\x03\x00\x00\x00\x00\x00\x00}\x03\x00\x00\x00\x00\x00\x00~\x03\x00\x00\x00\x00\x00\x00\x7f\x03\x00\x00\x00\x00\x00\x00\x80\x03\x00\x00\x00\x00\x00\x00\x81\x03\x00\x00\x00\x00\x00\x00\x82\x03\x00\x00\x00\x00\x00\x00\x83\x03\x00\x00\x00\x00\x00\x00\x84\x03\x00\x00\x00\x00\x00\x00\x85\x03\x00\x00\x00\x00\x00\x00\x86\x03\x00\x00\x00\x00\x00\x00\x87\x03\x00\x00\x00\x00\x00\x00\x88\x03\x00\x00\x00\x00\x00\x00\x89\x03\x00\x00\x00\x00\x00\x00\x8a\x03\x00\x00\x00\x00\x00\x00\x8b\x03\x00\x00\x00\x00\x00\x00\x8c\x03\x00\x00\x00\x00\x00\x00\x8d\x03\x00\x00\x00\x00\x00\x00\x8e\x03\x00\x00\x00\x00\x00\x00\x8f\x03\x00\x00\x00\x00\x00\x00\x90\x03\x00\x00\x00\x00\x00\x00\x91\x03\x00\x00\x00\x00\x00\x00\x92\x03\x00\x00\x00\x00\x00\x00\x93\x03\x00\x00\x00\x00\x00\x00\x94\x03\x00\x00\x00\x00\x00\x00\x95\x03\x00\x00\x00\x00\x00\x00\x96\x03\x00\x00\x00\x00\x00\x00\x97\x03\x00\x00\x00\x00\x00\x00\x98\x03\x00\x00\x00\x00\x00\x00\x99\x03\x00\x00\x00\x00\x00\x00\x9a\x03\x00\x00\x00\x00\x00\x00\x9b\x03\x00\x00\x00\x00\x00\x00\x9c\x03\x00\x00\x00\x00\x00\x00\x9d\x03\x00\x00\x00\x00\x00\x00\x9e\x03\x00\x00\x00\x00\x00\x00\x9f\x03\x00\x00\x00\x00\x00\x00\xa0\x03\x00\x00\x00\x00\x00\x00\xa1\x03\x00\x00\x00\x00\x00\x00\xa2\x03\x00\x00\x00\x00\x00\x00\xa3\x03\x00\x00\x00\x00\x00\x00\xa4\x03\x00\x00\x00\x00\x00\x00\xa5\x03\x00\x00\x00\x00\x00\x00\xa6\x03\x00\x00\x00\x00\x00\x00\xa7\x03\x00\x00\x00\x00\x00\x00\xa8\x03\x00\x00\x00\x00\x00\x00\xa9\x03\x00\x00\x00\x00\x00\x00\xaa\x03\x00\x00\x00\x00\x00\x00\xab\x03\x00\x00\x00\x00\x00\x00\xac\x03\x00\x00\x00\x00\x00\x00\xad\x03\x00\x00\x00\x00\x00\x00\xae\x03\x00\x00\x00\x00\x00\x00\xaf\x03\x00\x00\x00\x00\x00\x00\xb0\x03\x00\x00\x00\x00\x00\x00\xb1\x03\x00\x00\x00\x00\x00\x00\xb2\x03\x00\x00\x00\x00\x00\x00\xb3\x03\x00\x00\x00\x00\x00\x00\xb4\x03\x00\x00\x00\x00\x00\x00\xb5\x03\x00\x00\x00\x00\x00\x00\xb6\x03\x00\x00\x00\x00\x00\x00\xb7\x03\x00\x00\x00\x00\x00\x00\xb8\x03\x00\x00\x00\x00\x00\x00\xb9\x03\x00\x00\x00\x00\x00\x00\xba\x03\x00\x00\x00\x00\x00\x00\xbb\x03\x00\x00\x00\x00\x00\x00\xbc\x03\x00\x00\x00\x00\x00\x00\xbd\x03\x00\x00\x00\x00\x00\x00\xbe\x03\x00\x00\x00\x00\x00\x00\xbf\x03\x00\x00\x00\x00\x00\x00\xc0\x03\x00\x00\x00\x00\x00\x00\xc1\x03\x00\x00\x00\x00\x00\x00\xc2\x03\x00\x00\x00\x00\x00\x00\xc3\x03\x00\x00\x00\x00\x00\x00\xc4\x03\x00\x00\x00\x00\x00\x00\xc5\x03\x00\x00\x00\x00\x00\x00\xc6\x03\x00\x00\x00\x00\x00\x00\xc7\x03\x00\x00\x00\x00\x00\x00\xc8\x03\x00\x00\x00\x00\x00\x00\xc9\x03\x00\x00\x00\x00\x00\x00\xca\x03\x00\x00\x00\x00\x00\x00\xcb\x03\x00\x00\x00\x00\x00\x00\xcc\x03\x00\x00\x00\x00\x00\x00\xcd\x03\x00\x00\x00\x00\x00\x00\xce\x03\x00\x00\x00\x00\x00\x00\xcf\x03\x00\x00\x00\x00\x00\x00\xd0\x03\x00\x00\x00\x00\x00\x00\xd1\x03\x00\x00\x00\x00\x00\x00\xd2\x03\x00\x00\x00\x00\x00\x00\xd3\x03\x00\x00\x00\x00\x00\x00\xd4\x03\x00\x00\x00\x00\x00\x00\xd5\x03\x00\x00\x00\x00\x00\x00\xd6\x03\x00\x00\x00\x00\x00\x00\xd7\x03\x00\x00\x00\x00\x00\x00\xd8\x03\x00\x00\x00\x00\x00\x00\xd9\x03\x00\x00\x00\x00\x00\x00\xda\x03\x00\x00\x00\x00\x00\x00\xdb\x03\x00\x00\x00\x00\x00\x00\xdc\x03\x00\x00\x00\x00\x00\x00\xdd\x03\x00\x00\x00\x00\x00\x00\xde\x03\x00\x00\x00\x00\x00\x00\xdf\x03\x00\x00\x00\x00\x00\x00\xe0\x03\x00\x00\x00\x00\x00\x00\xe1\x03\x00\x00\x00\x00\x00\x00\xe2\x03\x00\x00\x00\x00\x00\x00\xe3\x03\x00\x00\x00\x00\x00\x00\xe4\x03\x00\x00\x00\x00\x00\x00\xe5\x03\x00\x00\x00\x00\x00\x00\xe6\x03\x00\x00\x00\x00\x00\x00\xe7\x03\x00\x00\x00\x00\x00\x00\xe8\x03\x00\x00\x00\x00\x00\x00\xe9\x03\x00\x00\x00\x00\x00\x00\xea\x03\x00\x00\x00\x00\x00\x00\xeb\x03\x00\x00\x00\x00\x00\x00\xec\x03\x00\x00\x00\x00\x00\x00\xed\x03\x00\x00\x00\x00\x00\x00\xee\x03\x00\x00\x00\x00\x00\x00\xef\x03\x00\x00\x00\x00\x00\x00\xf0\x03\x00\x00\x00\x00\x00\x00\xf1\x03\x00\x00\x00\x00\x00\x00\xf2\x03\x00\x00\x00\x00\x00\x00\xf3\x03\x00\x00\x00\x00\x00\x00\xf4\x03\x00\x00\x00\x00\x00\x00\xf5\x03\x00\x00\x00\x00\x00\x00\xf6\x03\x00\x00\x00\x00\x00\x00\xf7\x03\x00\x00\x00\x00\x00\x00\xf8\x03\x00\x00\x00\x00\x00\x00\xf9\x03\x00\x00\x00\x00\x00\x00\xfa\x03\x00\x00\x00\x00\x00\x00\xfb\x03\x00\x00\x00\x00\x00\x00\xfc\x03\x00\x00\x00\x00\x00\x00\xfd\x03\x00\x00\x00\x00\x00\x00\xfe\x03\x00\x00\x00\x00\x00\x00\xff\x03\x00\x00\x00\x00\x00\x00\x00\x04\x00\x00\x00\x00\x00\x00\x01\x04\x00\x00\x00\x00\x00\x00\x02\x04\x00\x00\x00\x00\x00\x00\x03\x04\x00\x00\x00\x00\x00\x00\x04\x04\x00\x00\x00\x00\x00\x00\x05\x04\x00\x00\x00\x00\x00\x00\x06\x04\x00\x00\x00\x00\x00\x00\x07\x04\x00\x00\x00\x00\x00\x00\x08\x04\x00\x00\x00\x00\x00\x00\t\x04\x00\x00\x00\x00\x00\x00\n\x04\x00\x00\x00\x00\x00\x00\x0b\x04\x00\x00\x00\x00\x00\x00\x0c\x04\x00\x00\x00\x00\x00\x00\r\x04\x00\x00\x00\x00\x00\x00\x0e\x04\x00\x00\x00\x00\x00\x00\x0f\x04\x00\x00\x00\x00\x00\x00\x10\x04\x00\x00\x00\x00\x00\x00\x11\x04\x00\x00\x00\x00\x00\x00\x12\x04\x00\x00\x00\x00\x00\x00\x13\x04\x00\x00\x00\x00\x00\x00\x14\x04\x00\x00\x00\x00\x00\x00\x15\x04\x00\x00\x00\x00\x00\x00\x16\x04\x00\x00\x00\x00\x00\x00\x17\x04\x00\x00\x00\x00\x00\x00\x18\x04\x00\x00\x00\x00\x00\x00\x19\x04\x00\x00\x00\x00\x00\x00\x1a\x04\x00\x00\x00\x00\x00\x00'
p39
tp40
(Ntp41
tp42
ba(lp43
g9
(cnumpy
ndarray
p44
(I0
tp45
g12
tp46
Rp47
(I1
(I3
I1051
tp48
g19
I00
(lp49
S'benefit'
p50
ag50
ag50
ag50
ag50
ag50
ag50
ag50
ag50
ag50
ag50
ag50
ag50
ag50
ag50
aS'cost'
p51
ag51
ag51
ag51
ag51
ag51
ag51
ag51
ag51
ag51
ag51
ag51
ag51
ag51
ag51
ag51
ag51
ag51
ag51
ag51
ag51
ag51
ag51
ag51
ag51
ag51
ag51
ag51
ag51
ag51
aS'quality'
p52
ag52
ag52
ag52
ag52
ag52
ag52
ag52
ag52
aS'time'
p53
ag53
ag53
ag53
ag53
ag53
ag53
ag53
ag53
ag53
ag53
ag53
ag53
ag53
ag53
ag53
ag53
ag53
ag53
ag53
ag53
ag53
ag53
ag53
ag53
ag53
ag53
ag53
ag53
ag53
ag53
ag53
ag53
ag53
ag53
ag53
ag53
ag53
ag53
ag53
ag53
ag53
ag53
ag53
ag53
ag53
ag53
ag53
ag53
ag53
ag53
ag53
ag53
ag53
ag53
ag53
ag53
ag53
ag53
ag53
ag53
ag53
ag53
ag53
ag53
ag53
ag53
ag53
ag53
ag53
ag53
ag53
ag53
ag53
ag53
ag53
ag53
ag53
ag53
ag53
ag53
ag53
ag53
ag53
ag53
ag53
ag53
ag53
ag53
ag53
ag53
ag53
ag53
ag53
ag53
ag53
ag53
ag53
ag53
ag53
ag53
ag53
ag53
ag53
ag53
ag53
ag53
ag53
ag53
ag53
ag53
ag53
ag53
ag53
ag53
ag53
ag53
ag53
ag53
ag53
ag53
ag53
ag53
ag53
ag53
ag53
ag53
ag53
ag53
ag53
ag53
ag53
ag53
ag53
ag53
ag53
ag53
ag53
ag53
ag53
ag53
ag53
ag53
ag53
ag53
ag53
ag53
ag53
ag53
ag53
ag53
ag53
ag53
ag53
ag53
ag53
ag53
ag53
ag53
ag53
ag53
ag53
ag53
ag53
ag53
ag53
ag53
ag53
ag53
ag53
ag53
ag53
ag53
ag53
ag53
ag53
ag53
ag53
ag53
ag53
ag53
ag53
ag53
ag53
ag53
ag53
ag53
ag53
ag53
ag53
ag53
ag53
ag53
ag53
ag53
ag53
ag53
ag53
ag53
ag53
ag53
ag53
ag53
ag53
ag53
ag53
ag53
ag53
ag53
ag53
ag53
ag53
ag53
ag53
ag53
ag53
ag53
ag53
ag53
ag53
ag53
ag53
ag53
ag53
ag53
ag53
ag53
ag53
ag53
ag53
ag53
ag53
ag53
ag53
ag53
ag53
ag53
ag53
ag53
ag53
ag53
ag53
ag53
ag53
ag53
ag53
ag53
ag53
ag53
ag53
ag53
ag53
ag53
ag53
ag53
ag53
ag53
ag53
ag53
ag53
ag53
ag53
ag53
ag53
ag53
ag53
ag53
ag53
ag53
ag53
ag53
ag53
ag53
ag53
ag53
ag53
ag53
ag53
ag53
ag53
ag53
ag53
ag53
ag53
ag53
ag53
ag53
ag53
ag53
ag53
ag53
ag53
ag53
ag53
ag53
ag53
ag53
ag53
ag53
ag53
ag53
ag53
ag53
ag53
ag53
ag53
ag53
ag53
ag53
ag53
ag53
ag53
ag53
ag53
ag53
ag53
ag53
ag53
ag53
ag53
ag53
ag53
ag53
ag53
ag53
ag53
ag53
ag53
ag53
ag53
ag53
ag53
ag53
ag53
ag53
ag53
ag53
ag53
ag53
ag53
ag53
ag53
ag53
ag53
ag53
ag53
ag53
ag53
ag53
ag53
ag53
ag53
ag53
ag53
ag53
ag53
ag53
ag53
ag53
ag53
ag53
ag53
ag53
ag53
ag53
ag53
ag53
ag53
ag53
ag53
ag53
ag53
ag53
ag53
ag53
ag53
ag53
ag53
ag53
ag53
ag53
ag53
ag53
ag53
ag53
ag53
ag53
ag53
ag53
ag53
ag53
ag53
ag53
ag53
ag53
ag53
ag53
ag53
ag53
ag53
ag53
ag53
ag53
ag53
ag53
ag53
ag53
ag53
ag53
ag53
ag53
ag53
ag53
ag53
ag53
ag53
ag53
ag53
ag53
ag53
ag53
ag53
ag53
ag53
ag53
ag53
ag53
ag53
ag53
ag53
ag53
ag53
ag53
ag53
ag53
ag53
ag53
ag53
ag53
ag53
ag53
ag53
ag53
ag53
ag53
ag53
ag53
ag53
ag53
ag53
ag53
ag53
ag53
ag53
ag53
ag53
ag53
ag53
ag53
ag53
ag53
ag53
ag53
ag53
ag53
ag53
ag53
ag53
ag53
ag53
ag53
ag53
ag53
ag53
ag53
ag53
ag53
ag53
ag53
ag53
ag53
ag53
ag53
ag53
ag53
ag53
ag53
ag53
ag53
ag53
ag53
ag53
ag53
ag53
ag53
ag53
ag53
ag53
ag53
ag53
ag53
ag53
ag53
ag53
ag53
ag53
ag53
ag53
ag53
ag53
ag53
ag53
ag53
ag53
ag53
ag53
ag53
ag53
ag53
ag53
ag53
ag53
ag53
ag53
ag53
ag53
ag53
ag53
ag53
ag53
ag53
ag53
ag53
ag53
ag53
ag53
ag53
ag53
ag53
ag53
ag53
ag53
ag53
ag53
ag53
ag53
ag53
ag53
ag53
ag53
ag53
ag53
ag53
ag53
ag53
ag53
ag53
ag53
ag53
ag53
ag53
ag53
ag53
ag53
ag53
ag53
ag53
ag53
ag53
ag53
ag53
ag53
ag53
ag53
ag53
ag53
ag53
ag53
ag53
ag53
ag53
ag53
ag53
ag53
ag53
ag53
ag53
ag53
ag53
ag53
ag53
ag53
ag53
ag53
ag53
ag53
ag53
ag53
ag53
ag53
ag53
ag53
ag53
ag53
ag53
ag53
ag53
ag53
ag53
ag53
ag53
ag53
ag53
ag53
ag53
ag53
ag53
ag53
ag53
ag53
ag53
ag53
ag53
ag53
ag53
ag53
ag53
ag53
ag53
ag53
ag53
ag53
ag53
ag53
ag53
ag53
ag53
ag53
ag53
ag53
ag53
ag53
ag53
ag53
ag53
ag53
ag53
ag53
ag53
ag53
ag53
ag53
ag53
ag53
ag53
ag53
ag53
ag53
ag53
ag53
ag53
ag53
ag53
ag53
ag53
ag53
ag53
ag53
ag53
ag53
ag53
ag53
ag53
ag53
ag53
ag53
ag53
ag53
ag53
ag53
ag53
ag53
ag53
ag53
ag53
ag53
ag53
ag53
ag53
ag53
ag53
ag53
ag53
ag53
ag53
ag53
ag53
ag53
ag53
ag53
ag53
ag53
ag53
ag53
ag53
ag53
ag53
ag53
ag53
ag53
ag53
ag53
ag53
ag53
ag53
ag53
ag53
ag53
ag53
ag53
ag53
ag53
ag53
ag53
ag53
ag53
ag53
ag53
ag53
ag53
ag53
ag53
ag53
ag53
ag53
ag53
ag53
ag53
ag53
ag53
ag53
ag53
ag53
ag53
ag53
ag53
ag53
ag53
ag53
ag53
ag53
ag53
ag53
ag53
ag53
ag53
ag53
ag53
ag53
ag53
ag53
ag53
ag53
ag53
ag53
ag53
ag53
ag53
ag53
ag53
ag53
ag53
ag53
ag53
ag53
ag53
ag53
ag53
ag53
ag53
ag53
ag53
ag53
ag53
ag53
ag53
ag53
ag53
ag53
ag53
ag53
ag53
ag53
ag53
ag53
ag53
ag53
ag53
ag53
ag53
ag53
ag53
ag53
ag53
ag53
ag53
ag53
ag53
ag53
ag53
ag53
ag53
ag53
ag53
ag53
ag53
ag53
ag53
ag53
ag53
ag53
ag53
ag53
ag53
ag53
ag53
ag53
ag53
ag53
ag53
ag53
ag53
ag53
ag53
ag53
ag53
ag53
ag53
ag53
ag53
ag53
ag53
ag53
ag53
ag53
ag53
ag53
ag53
ag53
ag53
ag53
ag53
ag53
ag53
ag53
ag53
ag53
ag53
ag53
ag53
ag53
ag53
ag53
ag53
ag53
ag53
ag53
ag53
ag53
ag53
ag53
ag53
ag53
ag53
ag53
ag53
ag53
ag53
ag53
ag53
ag53
ag53
ag53
ag53
ag53
ag53
ag53
ag53
ag53
ag53
ag53
ag53
ag53
ag53
ag53
ag53
ag53
ag53
ag53
ag53
ag53
ag53
ag53
ag53
ag53
ag53
ag53
ag53
ag53
ag53
ag53
ag53
ag53
ag53
ag53
ag53
ag53
ag53
ag53
ag53
ag53
ag53
ag53
ag53
ag53
ag53
ag53
ag53
ag53
ag53
ag53
ag53
ag53
ag53
ag53
ag53
ag53
ag53
ag53
ag53
ag53
ag53
ag53
ag53
ag53
ag53
ag53
ag53
ag53
ag53
ag53
ag53
ag53
ag53
ag53
ag53
ag53
ag53
ag53
ag53
ag53
ag53
ag53
ag53
ag53
ag53
ag53
ag53
ag53
ag53
ag53
ag53
ag53
ag53
ag53
ag53
ag53
ag53
ag53
ag53
ag53
ag53
ag53
ag53
ag53
ag53
ag53
ag53
ag53
ag53
ag53
ag53
ag53
ag53
ag53
ag53
ag53
aS'My colleges that I have picked are for my benefit not because I know people who want to apply there. College is where life starts \xf0\x9f\x92\xaf\xf0\x9f\x91\x8c'
p54
aS'Ripon college would really benefit from accountability in the student life department. #moretogether'
p55
aS"I'm all for paying college athletes, if they don't receive scholarships or any meal/entertainment benefits. Pay them and let them spend $$."
p56
aS'@Maggyw519 @ricketzz @StephieGilley wish my 2 grown college grads could benefit-they went to school under bush admin. rates of up to 8%'
p57
aS'@JEDIronny13 steady pay, hella benefits, and free college \xe2\x9c\x8a hell yeah'
p58
aS'I am so awed &amp; impressed by the support of the Rawls Advisory Council. Our college is fortunate to benefit from their love of the college.'
p59
aS'Another benefit of early rising as a college student: laundry room is always free \xf0\x9f\x99\x8c\xf0\x9f\x99\x8c'
p60
aS'@Justinmalandris or a real one.. you get great benefits and college paid for... I got you justin (;'
p61
aS'@Vol_Football He would have benefitted by playing college ball one more year and develop his game a bit more IMO.'
p62
aS'Being an engineer in college probably has no benefits'
p63
aS'Not even low key I just want a friends with benefits type shit until I go off to college'
p64
aS"Can't wait to reap all the benefits of being a college student"
p65
aS"Oh no... More taxes? Pay more taxes, get more benefits. Don't let college become a big business. It's not too late here.."
p66
aS'How could you max out an Old Navy card? After college I was really into cargo pants #friendswithbenefits #MovieQuotes'
p67
aS"Hate college for this simple reason. How. The fuck is this benefiting me in any way . Feel like I'm in fashion again"
p68
aS"It'd be cool if I could go to Argentina for college since ya know it's free there and here it'll cost me my life"
p69
aS"Was kind of curious how much an island cost so when I'm rich And famous I can buy one and they're cheaper than college. What."
p70
aS'The cost of tuition is too god damn high! #college #collegeproblems'
p71
aS'We hear a lot of talk about college costs and whether degrees are worth it. Depends on degree. The MFA degree is the biggest scam going.'
p72
aS'i would like to go college on the east coast tbh, but its going to cost me a lot rn'
p73
aS"How are we supposed to go to college if the government doesn't give us enough money to pay a fraction of what it costs"
p74
aS'Looking at the price for college for just 1 year is stressing me out so bad why does it have to cost so much'
p75
aS'@quinntonhanley @_GAZi__ you can always go after the cost guard, + free college + you would already be 21 + you would pull bitches'
p76
aS'I wanna live in a world where every college costs the same'
p77
aS"Found some sandals I'm obsessed with from @ZARA but then realized they cost as much as one of my college courses. So there's that."
p78
aS'With rising college costs, why do we still need to be in school for 4 years? Are all those classes really effective?'
p79
aS'\xe2\x80\x9c@Forbes: How to avoid the costliest college financial mistakes:'
p80
aS'@damonbenning my goodness is college football really win at all cost?  You know the trial will be worse it will all come out.'
p81
aS"if college students knew how much each class/paper/exam/assignment etc was costing them they'd probably take college a lot more seriously"
p82
aS'Legitimate reason to commit suicide: the cost of college'
p83
aS"Choosing a college would be so much easier if they didn't all cost 50,000 dollars"
p84
aS'It makes me so mad seeing people driving cars that cost more than my entire college education.'
p85
aS"It costs nearly $240,000 to raise a child in the U.S. \xe2\x80\x93\xe2\x80\x93 and that's not even counting college tuition once they leave the house."
p86
aS'Oh I really like this college. How much does it cost? over 35k. A novel of my life'
p87
aS'Go to college for 4 years to get a piece of paper that cost me $42,000!!'
p88
aS'.@glevine3 Covering hotel &amp; travel costs, flying college students to conferences like Saban - they make them feel professional &amp; important.'
p89
aS"Think I'm going to go to cosmetology school, and community college. The only problem is, cost. \xf0\x9f\x98\x94"
p90
aS'Wondering why college cost so much find out on my blog'
p91
aS'Inflation has affected milk and engineering paper. Adding unforeseen costs to college life.'
p92
aS'Watching Bill Nye in a college science class is definitely worth the tuition cost.'
p93
aS'The news said that college costs are rising. Guess they want to make it even more unaffordable. Yay \xf0\x9f\x91\x8d'
p94
aS'@CDthaSad my boots alone cost $400 the struggle is real at least I have my dad to lean on a bit through college for clothes and stuff'
p95
aS"\xe2\x80\x9c@DeMarcus__: \xe2\x80\x9c@Yawniee: I can't wait to go to college\xe2\x80\x9d You can honestly this shit cost too much\xf0\x9f\x98\xa9\xe2\x80\x9d I don't think they heard you Dman \xf0\x9f\x98\xa4"
p96
aS'"A year of child care in many places costs more than a year of college" Jan Schakowsky #workingfamilies @ChiFdn4Women'
p97
aS'seriously considering out of state costs for college. a huge stress reliever would be worth the money.'
p98
aS'Lying in the grass is still the best way to judge the quality of a college: my 6th and final college trip this year!'
p99
aS'\xe2\x80\x9c@jcasap: there r 2.7Latinos in jail 4every1in college.We can\'t survive w/ those stats" #changethegame #education latin@s deserve #equality'
p100
aS'@qualityatbats How many cuts off a tee would you say a player college level and above needs to take daily?'
p101
aS'Inequality in college towns |'
p102
aS"@KYBlackout quality over quantity? That's what graduating college will do to you."
p103
aS'"@arieeolla: Guys. At which point did life have you fucked up?" The day college said gimmie all yo money to get a quality education'
p104
aS"@NikolaP_23 oh no doubt! He's not NBA quality...I'm talkin college tho"
p105
aS"K I'm thinking of selling the clothes I can't take to college, but are still high-quality for pretty cheap, but would anyone be interested?"
p106
aS"3 more days at snow college! Not gonna lie, I'm gonna miss a lot of these people. There are some quality humans here at snow! \xf0\x9f\x98\xa2\xf0\x9f\x98\xad\xf0\x9f\x98\xaa\xf0\x9f\x98\x94 #GoodBye"
p107
aS"@jonrulz_96 I am, along with math. It's going to be like that the majority of your time in college. #lifeofabiomajor"
p108
aS'sometimes I feel like my mom is more excited about college then me'
p109
aS"Bout to go to my last class ever in college. Seems wrong that I'm typing this.....time really flies. Graduating is gonna be real bittersweet"
p110
aS"I had a joyous rhyme about being done with my first year of college, but I messed it up the first time so that'll have to wait I guess.."
p111
aS'The one time I actually want Facebook to work to find friends for college it fails me like ok cool'
p112
aS'Every single time skillet comes on my pandora the first thing I think of is @SaundersBrittyn and our freshman year of college \xf0\x9f\x98\x86\xf0\x9f\x98\x82\xf0\x9f\x8e\xb6'
p113
aS'Why do some people have to always be sad and in a bad mood? Lighten up! Your in college. This is suppose to be the best time of your life..'
p114
aS'Watching animal house fuck ya! A mans guide to a good time and a great party in college. Wish college was like this in real life R.I.P. John'
p115
aS"@ImDestinyNicole you'll be okay just surround yourself with driven ppl,the ones who will graduate on time and have a plan after college!"
p116
aS'A week from today I will have finished my freshman year of college \xf0\x9f\x98\xb3 #whhaattt #wheredidthetimego'
p117
aS'#tbt to that time we made the second-best decision of our college career... The best decision was\xe2\x80\xa6'
p118
aS'college stress is ceased for another month!! whooo time to breathe! \nwait jk we still got prom and graduation \xf0\x9f\x98\x91'
p119
aS"Don't promise puppy time at 12 if the puppies aren't going to show up until 1:30!!! I need puppies now c'mon college"
p120
aS'Wisconsin Union: Experiences for a lifetime! #college @ Memorial Union'
p121
aS'Ever time the word college comes up, I just want to curl up in a ball and cry #soanxious #itsonlymay'
p122
aS'Officially done with my first year of college! \xf0\x9f\x98\x8b\xf0\x9f\x98\x84\xf0\x9f\x8e\x89 #sweetsummertime \xe2\x98\x80\xef\xb8\x8f'
p123
aS"Friends getting married. Friends graduating college. Friends having babies. Sometimes I wonder what I'm doing with my life! #nobabythough"
p124
aS'Almost done here at butler community college ... How time flys'
p125
aS'Sometimes I forget that @PhoebeWegmann goes to the same college as me and I become really confused when I see her walking on campus.'
p126
aS'If I had a dollar for every time someone spelled my name wrong, I could pay for college, semester abroad, a new car, and a mansion in cash.'
p127
aS'If I had a nickel for every time Lisa talked about cheering, I could put my whole graduating class through college &amp; maybe end world hunger.'
p128
aS'Every time I get mail from @MiamiUniversity I get more and more ready for college! #MiamiOH2018'
p129
aS"everytime my moms bedroom door opens I pray she doesn't knock on my door and try to be emotional about graduation and college"
p130
aS"I'm taking the time to discover what I want to do after college."
p131
aS'Sometimes i look at people and think how are you in college u are 12'
p132
aS'My mom is getting really sentimental about me leaving for college... Bishhhh you had me for 17 years already, I gotta fly.'
p133
aS"I don't know what to do with myself! I guess it's time I start going to college bars now that I'm\xe2\x80\xa6"
p134
aS'Officially done with my junior year in college... What. Where has time gone?'
p135
aS"@AlainaKay00 @limitless_95 it's hairrrr it'll grow back. Plus its college time for weird phases and hair colors"
p136
aS'@JohnBarchard plus look at kb. By the time some guys are his age they have 2 years in pros, he has 2 years in college'
p137
aS'Spending more time figuring out the lowest possible grade you need on a final to pass the class than actually studying #college'
p138
aS"It's that time of year... I'm thankful I'm not a college student #bluecollar #nofinalsforme"
p139
aS'@Espngreeny @espngolic one of the most decorated college coaches of all time only recruited black players and his son does the same'
p140
aS'For the first time in my college career, this is the first time school has physically exhausted me.'
p141
aS"there's a time and place for everything and that time and place is college"
p142
aS'Officially a junior in college \xf0\x9f\x98\xb3 #timeflies'
p143
aS'\xe2\x80\x9cIf I had a dollar for every time someone misspelled my name, I could pay for college, a new car, and a mansion in cash.\xe2\x80\x9d @RyneVineyard'
p144
aS'"can we skip this whole \xe2\x80\x9ccollege\xe2\x80\x9d thing and go straight and go to the part where I have a really awesome job n spend all my time traveling?\xe2\x80\x9d'
p145
aS'with only two part time weeks left of college I would like to spend them hanging out with the coolest people I know.'
p146
aS'This is my last Monday schedule of my freshman year of college. \xf0\x9f\x98\x81 #timeflies'
p147
aS'timehop makes me proud to report that I was never pale in college'
p148
aS'@morgaannleighhh you will have zero time for baseball boys in college. \xf0\x9f\x98\x9c'
p149
aS"@JoshStrasnick good to know what you're doing in your off time at college bro. That was fucked"
p150
aS"I'm drinking coffee basically for the first time right now. I'm officially a college student &amp; a grown woman now."
p151
aS'Latest order of doctoral books has shipped. Wish I knew more how @amazon worked when I did #college the first time! #savings #thankyou'
p152
aS"It's crazy to think this time next year I'll be heading home from my first year of college, and I'll have 4 months of summer\xe2\x98\x80\xef\xb8\x8f"
p153
aS"I'm done with this high school life, time to move on into this college life."
p154
aS'Guys, college is a \xf0\x9f\x86\x92 time'
p155
aS'@Alpha_Unit_ I am taking 16 credit hours of classes at college and working 32 hours, no time for VIDJA games until I get home'
p156
aS"If there is one thing college has taught me, it's that you have time for what you make time for."
p157
aS'The day that I finish college is going to feel ten times better then when I finished high school.'
p158
aS'This time next week be in Tally to watch my son graduate college. #ProudDad'
p159
aS'There\'s a show on MTV called "times up" it\'s 30 minutes of a couple thinking if they want to stay together or break up before college...wtf'
p160
aS'I really love looking at my timehops... Makes me miss college a lot though \xf0\x9f\x98\x92'
p161
aS'I graduate in 12 days!!! It\'s going to be so weird saying "remember that time in college???". Surreal.'
p162
aS'Next week is my last full week of classes as a college freshman... Where did the time go?! \xf0\x9f\x98\xb3'
p163
aS"I mean no ones gonna believe you unless you tell everyone a million times. Like yep it's college stop please"
p164
aS'I\'m going to a black college and I know for a fact I\'m gonna hear "nigga" at least 100 times a day.'
p165
aS"Welcome to college where 99% of the time you don't know your crush's name."
p166
aS'Harrison Twins made the bea decision anyone has made in college basketball in a long time.'
p167
aS'7 pm meeting at work. What a waste of time and afternoon. Rather be at the college playing soccer already.'
p168
aS"Going to VCHS next year. A high school/pre college. I'll be taking classes at MJC for four years too...excited and scared at the same time!"
p169
aS'@Hump_Dillo yeah I hear that, almost did the same thing to us and UGA. All this nonsense is gonna ruin college football over time.'
p170
aS'Officially done my first year of college #timeflies \xf0\x9f\x98\x9c'
p171
aS"By the time I actually get to livi I'm gonna have to to straight to college ave"
p172
aS'This is what college has come down to. #naptime #college #finalsweek @ Westminster College MO'
p173
aS'Wow I have a big girl house. Time flies. So excited to start this new chapter of my life at the best college of all time. BEAR DOWN ARIZONA!'
p174
aS"A wise friend told me that in college, there isnt time to play games. It's just you and me. Just how I like it."
p175
aS"It's that time of year where us college students start regretting putting off all that school work until the last minute!"
p176
aS"Can't believe that a week from today I'll be finished with my freshman year of college \xf0\x9f\x98\xb3 #timeflies"
p177
aS'\xe2\x80\x9c@paulinaaa170: If i got a dollar everytime i smelled weed at college... It would pay my tuition\xe2\x80\x9d specially house 12 lmao @paulinaaa170'
p178
aS"When it's time to go to college , i wanna be away lol. TCC or ICDC or all that extra &lt;&lt; lmao fack no"
p179
aS'Sometimes I wonder what college would be like if the dorms were 5 star hotels'
p180
aS'I used to wear makeup 99% of the time.\nThen I got to college.\nNow I dont wear makeup 99% of the time except special occasions and work'
p181
aS'They say high school flies by. They say college flies by. In all honesty. Life flies by. So be happy and make memories to last a life time.'
p182
aS'2 weeks from today I graduate college.. Crazy how quickly time flys by! \xe2\x98\xba\xef\xb8\x8f'
p183
aS"If you are in high school or college or past a certain age period, it's time to start spelling your words fully!"
p184
aS"It amazes me how fast time flies bye in high school and college. Hard to believe I'll be a Junior next year #MovingOn"
p185
aS"@Silly_Val16 @itzzerika right? she could've gone to the college office so erika can use her time wisely for herself... lol"
p186
aS'If I had a dollar for every time someone spelled my name wrong, I could pay for college semester abroad a new car and a mansion in cash" tru'
p187
aS'Around 3 more weeks left my first year in college # Damntimeflies'
p188
aS"Only 2 weekends of college left, tonight I spent doing hw with @alexJwags for 15 hours etc. in 2 weeks I'll wish to have this time back"
p189
aS"\xf0\x9f\x92\x81\xf0\x9f\x91\x8c college isn't so hard. Summer timeeeeeeee \xf0\x9f\x98\x8d"
p190
aS'@DanielXiong26 try college football sometime man lol'
p191
aS'My need for college is at an all time high'
p192
aS'@MEG_nesium promise me that we will hang out sometime b4 college'
p193
aS"I'm done letting people ruin my time at college. Leave the drama at home and let me live life."
p194
aS"If i got paid $1 everytime i made a fool out of myself i wouldn't need to go to college and get a job because i already have a career"
p195
aS'Sometimes I feel like college is tiring then I remember I barely got to sleep at all for 6 months in the army so why am I complaining'
p196
aS"I can't believe that in one week's time, I'll be done with my second year of college."
p197
aS"What's everyone's plans tonight? Come to norco college for a CD release party! #asnc #norcocollege #funtimes #music"
p198
aS"This time next week I'll be a senior in college #timeflies"
p199
aS'Why do so many people think that full time 2-year college faculty "just teach"?'
p200
aS'@averysalisbury 4.0 since you can do it! Plenty of time2play after college! \xe2\x9c\x8c\xef\xb8\x8f\xf0\x9f\x98\x87'
p201
aS'@earlygamebenji everyone needs to get the app called bleacher buddy. It gives game times and tv channels for all sports college a\xc3\xb1d pro.'
p202
aS"Haven't taken the time to appreciate that freshman year if college is over... #neverafreshmanagain"
p203
aS"No big deal. I'm gonna be a sophomore in college. Where did the time go\xf0\x9f\x98\x81"
p204
aS"At Rutgers day. Been out of college for 10 years I don't have time for a bunch of hippies sitting on student lawn singing songs"
p205
aS'And today will conclude my freshman year as a college student. Crazy how fast time goes by.'
p206
aS"This will be the most amount of time I've spent away from BR since I started college 3 years ago."
p207
aS"It's crazy that I'm going to be living the college life in a few months #timereallydoesfly"
p208
aS'The first time our apartment actually looks like college.'
p209
aS'Reiterating what @graysonnkoda once said, the college process is worse the second time around.'
p210
aS"seriously I would've failed college a long time ago without @itsdavidelliott"
p211
aS'@ayejenn ohh true! ok..i love that place but college park was just too far from columbia , but i goto laurel all the time! \xf0\x9f\x98\x9c'
p212
aS'Eating quinoa with a butter knife. Desperate college times call for desperate pathetic measures.'
p213
aS"If college has taught me anything, it's how to live on a $0 budget for extended periods of time"
p214
aS'So after I finish my paper my sophomore year of college is officially over #timeflys'
p215
aS'Happy birthday @DavidPiniewski, the best part of college has been our bonding time!'
p216
aS"Hard to believe it's been almost a year since graduating college. Where did the time go"
p217
aS"They can't afford it. \xe2\x80\x9c@nytimes: Fewer U.S. high school graduates are opting for college"
p218
aS'Going to college station for the first time'
p219
aS"Ouch. If I had a dollar for every time my name was misspelled, I'd have my college tuition completely\xe2\x80\xa6"
p220
aS'Thinking about college is so stressful and exciting at the same time'
p221
aS"One week left until my freshman year of college is done. It's crazy how fast time has gone and how much I've grown."
p222
aS"This time next week I'll be done with my freshman year of college and I don't even know what to say about that... #freshmanforever"
p223
aS'"@Just_JLaw: Is it me or doesn\'t college feel like a music video sometimes ?" Its not just you'
p224
aS"@100percentButts like I care. If you can't cook ramen gtf out of college. Worse if you  try frying chicken at the same time."
p225
aS'I want to work in a coffee shop while playing guitar, reading books, and running in my free time. Who needs a college degree?'
p226
aS'Okay time for all my friends away at college to come home now, im ready for you'
p227
aS'Well freshman year of college is just about done. How time flies.'
p228
aS'One time I used to type papers for ppl, but then I realized I should actually be in college and doing it for myself, so I stopped. The end'
p229
aS'Rough night at work but I made it. Too many college students getting into trouble or causing problems. Smh. Glad its over. Now time 4 bed!'
p230
aS'You know you\'re in college if you\'ve said  "I just want to graduate" at least 5 times.'
p231
aS'Just handed in my last paper and tomorrow I graduate college \xf0\x9f\x8e\x88\xf0\x9f\x8e\x8a\xf0\x9f\x8e\x89but, could somebody tell me where does the time go?'
p232
aS'feels like highschool graduation was yesterday &amp; now im about to graduate college &amp; start my career.. time flies\xf0\x9f\x8e\x93'
p233
aS"Just realized I have two finals separating me from being halfway done with college, and this time next year I'll be a senior. #what"
p234
aS'Every time I see kids end their college baseball career, I have to admit, I get a bit sad yet I know baseball will make them better at life.'
p235
aS"Officially done with my second year of college..crazy how fast the time flies ! Headed back home, and can't wait for this summer ! \xf0\x9f\x91\x8c\xf0\x9f\x8e\x89\xe2\x98\x80\xef\xb8\x8f"
p236
aS"I can't wait for school to end so I can take my sweet time deleting all the emails from college except UGA"
p237
aS"Every time I have a good day, my parents have to scream at me for every little thing I do.. I can't wait to fucking leave for college."
p238
aS'But at the same time, that was so much hell to go through,..... Especially for my freshmen year in college.'
p239
aS"I spent a lot of time in #Vilonia in college. Now it's tending on twitter because of the death toll &amp; devastation #sosad #Arkansasweather"
p240
aS'@SaulTheGREAT_ why the hell would he leave he went perfect his first time ever in the tourney he has no control in the nba over college'
p241
aS'Two weeks left of classes as a freshman in college. Um what happened to time?! \xf0\x9f\x98\xaf\xf0\x9f\x98\xb3'
p242
aS"So this time next week I'll be a college grad \xf0\x9f\x8e\x93\xf0\x9f\x98\xb3"
p243
aS"\xe2\x80\x9c@FunnySayings: I mean what's school without your life falling apart 2 or 3 or 19 times\xe2\x80\x9d college."
p244
aS"@loudenamanda It's awesome that you did it.  | Working full time and going back to college was such a great decision"
p245
aS"@bwwebber Well done BW!! Love college baseball!! All the best!  National pastime in all it's forms rules."
p246
aS"It's now time to burry my face in my books for 7 days and study until my brain goes numb. #college"
p247
aS"T-Minus 24hrs and I'll officially be a junior I'm college... Where has the time gone?!"
p248
aS"We had to give a 2 minute presentation in class. 2 hours later I'm still here wondering HOW college students don't have any concept of time."
p249
aS"the class of 2018 tweets are so cute. Can't believe the same amount of time has passed since that was me as I have left in college \xf0\x9f\x98\xb1"
p250
aS'Finished my first year of college soccer today. Scary how fast time goes \xf0\x9f\x98\xa8'
p251
aS"@Ashbootheone lmao these are things college kids do all the time. Whi hasn't stolen something though?"
p252
aS"@ChipotleTweets I've spent enough money at my local Chipotle in my lifetime  to pay for a semester of college. Don't even regret it."
p253
aS'I got alot to do this summer and I will stay on it. So by the fall I will be ready for this senior year of college. Been a long time coming!'
p254
aS"@sholehrezaee basically just prep for college. 99% of the time, you wont know what's happening. But don't worry bc no one else will either"
p255
aS"It's crazy to think that the next time Meagan leaves for college I'm leaving with her\xf0\x9f\x98\xb3"
p256
aS"Just iced for the first time ever in my last two days of college. I love my friends. I love college. Don't make me leave!"
p257
aS'"Where\'d I go to college?" "Was it one of the ones with commercials during daytime judge shows?" Lmao! #FamilyGuy'
p258
aS'Who knew college would fly by? Party time. Phoenician style \xf0\x9f\x8c\xbb\xf0\x9f\x8c\xb5\xf0\x9f\x8c\xb4'
p259
aS'First Saturday off in a long time. What do I decide to do on my day off.... way  college baseball of course.'
p260
aS'Can we fast forward time to college please @willw850'
p261
aS"Tbh never thought I'd be going to college to play football talk about a dream come true now time to get my body and mind right"
p262
aS"@AKD95_ it is!! Knowing you, you're gonna be a fun time at college \xf0\x9f\x98\x89"
p263
aS'Sometimes I get sad cuz a lot of my friends went to normal college and know stuff about history and stuff and I feel like im dumb'
p264
aS'Freshman year of college was one of the best periods of my life. Where did the time go???\xe2\x8f\xb0\xe2\x8f\xb0\xe2\x8f\xb0\xe2\x8f\xb0\xe2\x8f\xb0\xe2\x8f\xb0\xe2\x8f\xb0\xe2\x8f\xb0'
p265
aS"You're gunna have a hard time in college bc a lot of people wear backpacks and not purses....."
p266
aS'All my dudes strapped in college gear where has the time gone'
p267
aS"A BIG part of being a full time faculty member is integrating yourself into the college climate.  It's political.  Adjuncts stay invisible."
p268
aS"@madddsann what!!!! OMG I'll cry. Ms Dembiec is so hard :( I thought anatomy one might be easier in college bc we don't have a lot of time"
p269
aS'How am I going to be a junior in college... Where has the time gone'
p270
aS"Its almost time for my big sister to graduate college and Im more than excited for her. She'll do big things\xe2\x9d\xa4\xef\xb8\x8f"
p271
aS"I guy I dated in college pretended he hadn't read Harry Potter the entire time we were together. For some reason, it still haunts me."
p272
aS"I'm sure If I had a dollar for every time someone spelled my name wrong, I could pay for college, a new car, and a mansion in cash."
p273
aS'Another college visit ! This time it was Carolina \xf0\x9f\x8f\x88\xf0\x9f\x8f\x88\xf0\x9f\x98\xb1'
p274
aS'I should probably unpack from college sometime'
p275
aS'I teared up four times during my Bob Dylan class final. So this is how I feel about it being the end of my college career for those asking.'
p276
aS"Ugh every time we talk about college stuff my parents just make me cry. Being mad with me isn't gonna help the situation."
p277
aS'Wow, cannot believe tomorrow begins the last week of my Freshman Year of college! #timeflies'
p278
aS'\xe2\x80\x9c@_whitneyfox: In all honesty I wish I never went to college. So much money wasted.\xe2\x80\x9d @DallieLou what do we talk about all the time!'
p279
aS'I often times forget that college is for school work \xf0\x9f\x99\x8a\xf0\x9f\x92\x81'
p280
aS"@CleverFoxNikki when you're in college the time goes by so fast!! Senior year flew by too but wait till you're in college!"
p281
aS'What sucks is you can have a college degree and have the hardest time finding a job and your field of study, but McDonald is always hiring \xf0\x9f\x98\x95'
p282
aS'T-minus 6 days until I am officially done with my first year of college #scarythought #timeflies'
p283
aS"This time next year, I'll be graduating college. Please excuse me while I have a slight panic attack. #growingup"
p284
aS'If I had a dollar for everytime I wished I was @frit0z I could drop out of college'
p285
aS'Classes are canceled for the rest of the day at San Bernardino valley college. Fuck yaaa!!!!! Whooooooo!!!!!!! Party time!!!! What what'
p286
aS'May not have started college yet, because I joined the NG right out of HS, and I know ive had plenty of time since then to go..'
p287
aS"tbh we're not that funny bc we're a bunch of college kids seeing all time low"
p288
aS"@twhiddleston I'm watching Pirate Fairy in my spare time at college and I feel entirely plot twisted!! Holy cow! I'm an adult #pirateparty"
p289
aS'So my last day of sophomore year of college is next week..where has the time gone and can I please just go back to being 6 years old? \xf0\x9f\x98\x94'
p290
aS'Put my retainer in for the first time since being at college.'
p291
aS'@MChandler428 \xf0\x9f\x98\xad\xf0\x9f\x98\xad\xf0\x9f\x98\xad the one on south college but next time'
p292
aS'Last class of my freshman year of college...\xf0\x9f\x98\xa8 time flies'
p293
aS'My first year of college as a freshman is just 4 days away from ending, where has the time gone'
p294
aS'I swear if college was a person I would run it over with a car 500 times and then set it on fire'
p295
aS"Filling out a survey for two free tacos from Jack in the Crack cause I'm a broke ass college student. Hard times my friends."
p296
aS"Can't believe I'm a college senior... I'll drink to that \xf0\x9f\x98\x8e Hello sweet summertime."
p297
aS"No state for me missed it by a spot..  Got college to look forward to. Now time to pick which scholarship I'm accepting. #NCAAHurdles"
p298
aS"First time I'm having ramen noodles since I started college \xf0\x9f\x98\xb3"
p299
aS"I can't believe I've finished my first year of college.. Where has the time gone?"
p300
aS"@dukiesnuts43 lmao that's funny as hell. I'm so excited for when you're done with college in the year and we can kick it all the time again"
p301
aS'two years of college have already come + gone\xf0\x9f\x98\xa2 some of the hardest times of my life but also some of the best. see you in a week, Oakland\xf0\x9f\x92\x9b\xf0\x9f\x92\x99'
p302
aS'I spend more time calculating the lowest possible grade I need on my final than I do studying for the actual test #college #AboveAndBeyond'
p303
aS'Can I skip this whole \xe2\x80\x9ccollege\xe2\x80\x9d thing and go straight to the part where I have a really awesome job and spend all my time traveling? No? Ok.'
p304
aS"Hey it's nice to meet you! I'm a college drop out! Oh you don't respect me and you havn't even given yourself the time and day to meet me?"
p305
aS'After studying falling asleep finaly time for bed  #road2finals #uncw #college #studygroup #friends'
p306
aS'In college and I have to wake up at 6 am instead of going to bed at that time. I am doing something wrong with my life.'
p307
aS"Most of the time I really question whether I'll be able to finish college at all."
p308
aS'Just realized yesterday was my last day of school as a college junior. Wow how the time flies!'
p309
aS'Spending my time at work planning out my entire 10 page essay for English. #finals #college'
p310
aS'if I had a dollar for every time I got flipped off while driving I could probably pay for college\xf0\x9f\x98\x82\xf0\x9f\x98\x82'
p311
aS'lol Zo\xc3\xab today "I feel like if you haven\'t had lesbian experience by the time you\'re in college, then you\'re a little late"'
p312
aS'I love checking my daily @timehop... Today took me back to some great college days. #madison #nostalgia'
p313
aS"next time we talk I'll be a college sophomore"
p314
aS'one time, in college, I found a textbook in a classroom, and turned it in to the lost and found, then reclaimed it later and sold it for $95'
p315
aS'Last time walking into an american classroom in an hour... American college life is over somehow...\xf0\x9f\x98\xb3\xf0\x9f\x98\xb3'
p316
aS'first time in my college career i was at the lib until it closed'
p317
aS'Dear library,\n\nWe have an unhealthy relationship. We spend too much time together. Imma break up with you after college. \n\nSincerely,\nMe'
p318
aS'Just had a long phone call with my long lost bro...he thought college would be a waist of time..glad I changed that. #MakeADifference'
p319
aS"2 more days then I'm a Junior in college! Where TF did time go? \xf0\x9f\x98\xb3"
p320
aS"You know your times almost up in a college town when you can't put up with all the immaturity #DuecesNac #4months"
p321
aS"I want to travel the world when I'm 20 but at the same time I also want to be married and then there's college so much to do ahhh"
p322
aS'@mikegrant911 Is this how you spend your time in college?  #gladImspendingthebigbucksonyou'
p323
aS'In two weeks I will have completed three years of college!! Excuse me...where did the time go!! \xf0\x9f\x98\xb3'
p324
aS'Ahh memories of my first day in college ^~^ this line took up a lot of my time :D'
p325
aS'@Claireee_Ninj In a lot of ways both Cal and Davis are insulated, college communities. You will spend most of your time around campus.'
p326
aS"The friends I've made in college are the real deal. Very few people who would help me out as much as they do at that craziest times too."
p327
aS'Everytime I try and talk to my mother bout college she start crying \xf0\x9f\x98\xa9\xf0\x9f\x98\xbf shit getting real'
p328
aS'@GovGaryJohnson Are you going to visit Ohio Wesleyan University to talk with college students about important issues any time soon? #GovGary'
p329
aS'All these college/college visit snap chats are pissing me off big time'
p330
aS'\xe2\x80\x9c@shampoo: If I had a dollar for every time someone spelled my name wrong, I could pay for college, a new car &amp; a mansion in cash.\xe2\x80\x9d Me\xf0\x9f\x92\xaf'
p331
aS'I\'ve been "grounded" one time. I still had my phone, car, drove to high school/college/work and was never home.'
p332
aS"@MilkyChocolate_ i hyu 4 times and didn't get a reply. and i been on them nearly 3 years lol and still have a college reading level. im good"
p333
aS'\xe2\x80\x9c@universitytimes: Rebranding initiative to regroup following college backlash'
p334
aS'One week of class and a few finals, then freshman year of college is in the books. #timeflies'
p335
aS'Almost done with my first college class. It feels great to be back in school. \xf0\x9f\x98\x81 I have 3 classes this summer, then full time this fall. \xf0\x9f\x93\x9a\xf0\x9f\x91\x8c'
p336
aS'Nobody will be able to handle me in college man. Party time'
p337
aS"@HallerDave worked college athletics for 3 yrs and couldn't find a sports job post grad. Now work for AA and can go see any game any time!"
p338
aS'my last Tuesday/Thursday class of college \xf0\x9f\x98\x81\xf0\x9f\x8e\x93 #timeflies'
p339
aS'About to do my last college presentation ever. #holysmokes #wherehastimegone'
p340
aS'This week is the most awful way I wish to spend my last week in college \xf0\x9f\x98\xa9 sooo much work and exams, so little time!'
p341
aS'Every time I hear Trophies I think of the Mt.Hood community college meet haha @juniorrfloress'
p342
aS'if someone makes fun of my little bun in my college ID picture one more time \xf0\x9f\x99\x86'
p343
aS"4th final done! Can't believe I only have 2 finals left, and tomorrow is my last day of my freshman year of college! #timeflies"
p344
aS'And with the click of a button, my undergraduate college career officially comes to an end. Brb while I cry and dance at the same time \xf0\x9f\x98\xad\xf0\x9f\x92\x83\xf0\x9f\x99\x8c\xf0\x9f\x98\xad'
p345
aS'2 weeks from today I will be laying down in my own bed \xf0\x9f\x92\x95 omg am I really about to be a junior in college! \xf0\x9f\x98\xb3\xf0\x9f\x99\x88\xf0\x9f\x99\x8a where did time go?'
p346
aS'Of course I would get sick 5 times during my first year of college'
p347
aS"Done with college for this semester! Now it's time to focus on Oklahoma Hustle basketball and locust grove high school football!"
p348
aS'Honestly can not believe my freshman year of college is coming to an end.. Best memories of my life #timeflies'
p349
aS"Bedtime at 3:35 on a Saturday night NOT because I'm drunk like normal college kids, but because I've been up all night doing homework #ugh \xf0\x9f\x98\x92"
p350
aS"@SCTopPlays @alexrees1210 \xf0\x9f\x98\x82 Alex that's definitely a college. Last time I checked no high school has a stadium that big"
p351
aS'Went to college group tonight for the second time and I loved it! "If you\'re not fighting for\xe2\x80\xa6'
p352
aS'Just bombed a college test for the first time this year. \xf0\x9f\x98\x92'
p353
aS'I only have 1 more week of school left of my freshman year in college  \xf0\x9f\x98\xb3\xf0\x9f\x98\xb3 where has the time gone?? #bittersweet'
p354
aS"Can't believe its time to leave. All these guys made my first two years of college an unforgettable\xe2\x80\xa6"
p355
aS"Speaking of crazy Avery isn't coming out anytime soon. He plans to attend college in my womb. \xf0\x9f\x98\xab #GETOUT"
p356
aS'\xe2\x80\xa6and your old friend still spends all his time around vulgar, half-naked college students.'
p357
aS'Last night at the Mariners game for college night! Great times with great people #Mariners #BeatTexas\xe2\x80\xa6'
p358
aS'Use one word to describe how lost you feel in college sometimes: Croatoan'
p359
aS'Lesson learned: don\'t wear a college shirt to DCON. I was asked multiple times, "is that where you are going next year?"  \xf0\x9f\x98\x82\xf0\x9f\x98\x82\xf0\x9f\x98\x82'
p360
aS'First and last time you going to see me in college with sweatpants and sandals in public'
p361
aS"@4thQtr_Ninja lol that's crazy he just technically had the beat college qb season ever........... Of all time"
p362
aS"Can't get it live one more time this the blow need to be at a real college"
p363
aS'I am a senior in college now. Seems just like yesterday I was a senior in high school #timeflies'
p364
aS"Every now and then I get sentimental that we're all growing up so phast, but then realize I finna fk shit up in college! #bittersweet"
p365
aS"@ktreed_16 I've read that book several times. I studied English/Lit in college...piece of cake!"
p366
aS'everytime I think about college I get nervous cause I really hope I get a good roommate'
p367
aS"It's times like these where I wish I was in college"
p368
aS"It's almost time to graduate!! See the school or college you have or are going to graduate from?? Make\xe2\x80\xa6"
p369
aS'@nytimes Campus police are absolutely nuts right now-aliki City police-college elligible US students, are opting for online classes instead.'
p370
aS"I can't believe I graduated college a year ago. Where has the time gone? #feelingOld #LakerForALifetime \xf0\x9f\x98\xb3\xf0\x9f\x92\x99\xe2\x9a\x93\xef\xb8\x8f\xf0\x9f\x8e\x93"
p371
aS"@MiddleNameAaron @OhItsCarrigan at times yeah, I feel like I'd be better off going to college or just a regular job haha."
p372
aS'@engadget that a bar tap in post college world. Maybe time take a Saturday off and buy some Bitcoins.'
p373
aS'I really never grasped the whole "time management" aspect of college'
p374
aS'\xe2\x80\x9c@morgmclaughlinn: I would never usually admit this but @k_kiessling makes me happy\xf0\x9f\x98\x8a ...sometimes\xe2\x80\x9d college must be getting to you'
p375
aS'group projects were annoying in high school but they are 1,000 times worse in college \xf0\x9f\x98\x92'
p376
aS'@BeckiButterfly1 hope youre enjoying LV. I have time for lunch dinner the college fair and thats it. Catch ya down the line somewhere kid'
p377
aS"All my friends from college are going home &amp; moving away &amp; my best friend is pregnant &amp; has no time bc of it (though it's a blessing)"
p378
aS'@dgarza7 and @brettrexilius13 putting the time in to prepare for their freshman college football\xe2\x80\xa6'
p379
aS'at this time a week from now, I will be a junior in college. #whoa'
p380
aS'Your burrito/pizza intake is at a all time high in college'
p381
aS'\xe2\x80\x9c@collegefession: "Everytime I get drunk and go out I lose my new favorite hat" - Newberry College\xe2\x80\x9d Of course this is what Newberry posts\xf0\x9f\x98\x92'
p382
aS"Finished my last final!!! Officially a sophomore in college now! Ahaha now it's time to go home back to The Bay \xf0\x9f\x99\x8c\xf0\x9f\x9a\x9d\xf0\x9f\x8c\x87\xf0\x9f\x99\x8f\xf0\x9f\x97\xbb\xe2\x9c\x88\xef\xb8\x8f\xf0\x9f\x8c\x83\xf0\x9f\x8c\x89\xf0\x9f\x8c\x86"
p383
aS'I hate to wish time away but can I please fast forward to like 3 years from now so I can graduate college and begin my lifeeee\xf0\x9f\x98\x8c\xe2\x9d\xa4\xef\xb8\x8f'
p384
aS"@H0peG sometimes I wanna RT you but then I remember I'm trying to get into college so I better not ruin it......."
p385
aS'Last week I was being super sentimental about my freshman year in college'
p386
aS'Sometimes I wished I went to college in VA'
p387
aS'USC, the only college where everyone dresses cute all the time even during finals week #noscrub'
p388
aS'So the second round series happens at the same time as finals and my college graduation. Time to pull off the ultimate balancing act.'
p389
aS'I better have at least 1 bf sometime during my college career. Shit, I wanna do cute college couple things too...\xf0\x9f\x98\xaa #butwhatevs \xe2\x9c\x8b'
p390
aS'Sometimes I think about going back to college, and then I think about what happened last semester. #thefuckery'
p391
aS'Being successful as a full time faculty means giving your time to the college- to your colleagues- to the campus community.'
p392
aS'Just got iced for my first time in my college career . Thanks @NoraMcGowan'
p393
aS'Thankful that college is so much less time consuming than highschool \xf0\x9f\x99\x8f summer T-6 days.'
p394
aS"i never had problems w/ my skin in HS but now that i'm in college i break out all the time &gt;:-/"
p395
aS'Someone forgot to set a timer #laundry #44days #senior dartmouthcollege @ Dartmouth College'
p396
aS'Why do college players like randle, Parker,etc need a college education? Theyre about to make more in a season than most make in a lifetime'
p397
aS"Sometimes college is fun and yes this is probably the most ridiculous paper I've ever written"
p398
aS"As a college student, I can't tell you the last time I've been to bed before 12:00!"
p399
aS'My time as a college student is almost up. #weird'
p400
aS'@PetertheNg @Vince0707 I\xe2\x80\x99ve been a ska fan for a long time. One of my college roommates was good friends with the old @mustardplug drummer'
p401
aS'22 years later...  voice of an american friend from the college days.. and time folded . #nostalgia'
p402
aS'Its about that time when the "paying for college" anxiety attacks kick in.'
p403
aS"Afraid I wont be able to pay my college deadline in time and I'm gonna be stuck in Maine for another year"
p404
aS'\xe2\x80\x9c@S_Millertime13: All I want is to go to college and start over\xe2\x80\x9d'
p405
aS"Every minute counts in college...five minutes? That's enough time for me to stand in a 30 person line and get coffee before work \xf0\x9f\x91\x8c"
p406
aS'You think its time to make a college decision ? \xf0\x9f\x98\x85 #lastminute #SOFUCKINCONFUSED'
p407
aS'My freshman year of college is officially over. Where has the time gone?'
p408
aS"Every time I'm done eating at a restaurant in my head I say thanks to my dad &amp; grandma, they really do look out for a broke college girl \xf0\x9f\x99\x8c"
p409
aS'Final time playing for my college today. It was bittersweet :( Next step... Graduation! #2014grad'
p410
aS"This time next week I'll be done with my first semester of college \xf0\x9f\x98\x81"
p411
aS'\xe2\x80\x9c@run2ualways: OMG just realized Taylor will be home next week Her first year at college is already almost over #timeflies\xe2\x80\x9d @chuckk_TAYLORs'
p412
aS'If i got a dollar everytime i smelled weed at college... It would pay my tuition'
p413
aS"Alright, I'm scheduling my college classes for the 3rd time this year.. Hopefully everything goes right this time!! \xf0\x9f\x99\x8f"
p414
aS'Last exam I will take as a college student \xf0\x9f\x98\xb3 how quickly time goes by is a crazy thing.'
p415
aS'Great time with a few ladies from \xce\x9a\xce\x94 lastnight! Love college!'
p416
aS"I just been at school &amp; straight home busy w| hw &amp; getting ready for college ctfu I don't got time to be fuckn around nomore that's out"
p417
aS"Only a few hours till I'm done with my freshman year of college...where the hell has the time gone"
p418
aS'Wah how is there not enough time in the day \xf0\x9f\x98\xa2 my 1st of college fuggin year flew'
p419
aS'#tbt that time we were all in college &amp; had fun n stuff. #ncat #aggiepride #s33 @ nostalgia'
p420
aS"By the time my classmates in high school graduate college in 2016, I'll have made over 100,000 dollars"
p421
aS'Am I really almost done with my first year of college?! #timeFlies'
p422
aS"@kiddstclair yeah I didn't waste my time on it. Truly not interesting to me.. I like college format better.. Just too many games for me."
p423
aS"2 weeks from now I'll officially be a college graduate #overithere #byefelicia #crazytimeflies"
p424
aS'Blinn college is nothing but a giant headache &amp; every time I decide to take a class here I immediately regret it'
p425
aS'Officially a senior in college\xf0\x9f\x98\xb3 #wheredidthetimego'
p426
aS"It's summer time..here comes the rich college dimes \xf0\x9f\x98\x8f"
p427
aS'My boys from college !!!! h_colt87 @Brian_D_Butler #greatfriends #greattimes #houston #texas #fun @\xe2\x80\xa6'
p428
aS'Last college class of freshman year today where did time go \xf0\x9f\x98\xa3'
p429
aS"@YandR_Addict   don't be in a big hurry, time goes so fast you'll soon be wishing you were back in college lol    #collegegrad"
p430
aS'Throwback to orientation since I just finished my freshman year of college #timeflies \xf0\x9f\x98\xb3\xf0\x9f\x8e\x89 @ Florida\xe2\x80\xa6'
p431
aS'"@_AdinaWarren: It must be hella fun to go to the same college as your significant other." Not all the time it\'s not. Trust me.'
p432
aS"If you're a college professor you should check your email at least 3-4 times a day. #frustrated"
p433
aS"If you are over the age of 23, have a degree, and a full-time job, it might be time to stop pretending like you're still a college frat boy."
p434
aS'I finally wake up on time for school &amp; have to lay back down because my stomach hurts.\n#whatthehell #college'
p435
aS'Ohh mercy college how I love your end of semester surveys that fill up my inbox 20 times a day \xf0\x9f\x98\x91'
p436
aS"Unless you know exactly what you can realistically do with your life, don't waste your time/money at college."
p437
aS'Sometimes I wish I could take a break from college #collegesucks'
p438
aS'I want these college classes to end already May11 cant come faster but then I dont want it to because I do not have enough time for the work'
p439
aS'"@CIassConfess: "Where college decision day is ten times better than the rallies." -Pomona High School'
p440
aS'...and college slang strung together into an intrinsic whole, careless, faintly provocative, delicately sentimental. - Scotty Fitzy, May Day'
p441
aS"It's crazy how fast time is flying by. Can't believe that I'm starting my junior year of college next semester\xf0\x9f\x98\xb3"
p442
aS"So for the kids back home in the dirty lib trying to experience college for the first time here's my advice for you."
p443
aS'"@collegefession: "Sometimes I stick my finger in my ass then smell it. It smells kind of good" - Brookdale community college"\n#great'
p444
aS'If I had a dollar for every time I could predict exactly what someone was gonna say next I would be 0 college loans to pay'
p445
aS'I kinda miss college this time of year.. Skipping class to lay by the pool with friends.'
p446
aS'"@Marisaa_Iolaa: Hopefully I have better luck in college"basically what I\'m banking on since high school guys suck most of the time.'
p447
aS'this time last year I was getting pumped for graduation and senior trip.. now I feel doomed to hell with college\xf0\x9f\x98\xa3'
p448
aS"Sometimes I'm just like should I even go to college. #secondthoughts #confused #help"
p449
aS'leaving college lib for the first time in 17 hours #jiggy'
p450
aS'@TheLaurenPotter I took a diversity class in college a long time ago'
p451
aS'Off to my last class of my college career! #timegoneby'
p452
aS"7 days and I'm done with freshman year of college. Dam, time flies!"
p453
aS"I love when we can get together and have a good time and turn up without any violence. These are the college nights I won't forget"
p454
aS'I wish I worked this hard the whole semester... Regular college should never complain about time... Ever'
p455
aS'E-end\nO-of\nC-college \nT-times \n    Only if you fail'
p456
aS"I don't remember the last time I came to this class \xf0\x9f\x98\x81 #college"
p457
aS'my boss was like "you do college full time, you work like crazy, and you devote yourself to other things on a daily basis &amp; you amaze me" \xf0\x9f\x98\xad'
p458
aS'The biggest project I will do in my college career is due today. A weight is lifted and I am a free man. So time for mini pitchers ?!?'
p459
aS'Why everytime I come home from work, me &amp; this lady gotta argue over college money \xf0\x9f\x98\x92\xf0\x9f\x98\x92\xf0\x9f\x98\x92'
p460
aS'@drphilfuture college is a fun time \xf0\x9f\x98\x8e'
p461
aS"can't believe I only have two weeks of my sophomore year of college left.... #timeflies"
p462
aS"I'll be in college in 4 months...\xf0\x9f\x99\x88\xf0\x9f\x98\xad where did time go!"
p463
aS'@SoBronxSchool I was in Ohio going to college at that time it has changes significantly since 86!'
p464
aS'Whenever I tell people me and @tilaranne are rooming together in college everyone\'s reaction is like "ohhh gosh\xf0\x9f\x98\xb3" \xf0\x9f\x98\x82\xf0\x9f\x98\x82\xf0\x9f\x91\x8f #partytime'
p465
aS"College &amp; college football means it's time to prove everyone who Doubts me wrong"
p466
aS'3 weeks until end of freshmen year of college, where the fuck did time go?'
p467
aS"If I had a dollar for all the times I didn't want to do my homework I could buy my way into college."
p468
aS'Every time I do a track workout in college I can still hear coach Dave telling me to watch my arms'
p469
aS"Dane and drew are watching women's college softball and looking for hot girls on the time, finding them on fb, and messaging them \xf0\x9f\x98\x82"
p470
aS"But hey I'm not complaining #tmlt I'm just grateful to be done with school on time and already enrolled in college \xf0\x9f\x98\x8e\xf0\x9f\x98\x81"
p471
aS'\xe2\x80\x9c@collegefession: "I can\'t remember the last time I wore a condom or pulled out!!" - Union College\xe2\x80\x9d @chelle_bella06'
p472
aS'\xe2\x80\x9c@LaGinaPrice_40: In 2 years I imagine my self in college with a lil shawty to spent time with every now and then \xf0\x9f\x91\x8c\xe2\x80\x9dshut up'
p473
aS'"Sometimes in my tears I drown, but I never let it get me down" \n\noften* thx college'
p474
aS"A week from today I'll be done with my freshmen year of college \xf0\x9f\x98\xb3 #wheredidthetimego"
p475
aS"So I've officially finished my first year of college. Holy shit where's the time gone?"
p476
aS"So I did my college schedule..I have no classes on Thursday! That'll be the time I use to write papers and do projects lmao"
p477
aS"Spending time with my parents is the best. I'm really gonna miss them when I go to college. #daddysbabygirl"
p478
aS"I don't want to seem rude when a real person calls on behalf of a college so I just answer it and don't say a word the entire time"
p479
aS'This time next week I will officially be done with my sophomore year of college \xf0\x9f\x8e\x89 #HalfwayThere'
p480
aS"I like being single, I'm in college. I don't have the time for a relationship \xe2\x9c\x8b &amp; there's nothing wrong with that. \xf0\x9f\x92\x81 let me be"
p481
aS'I remember the time in college when my friend Aaron pulled out his guitar at a party and played "Nothing Compares 2 U".'
p482
aS'Im so nervous about moving away , &amp; starting college in the fall . but Its time to see something new &amp; do BETTER .\xe2\x98\x9d\xf0\x9f\x93\x9a\xf0\x9f\x91\x8c'
p483
aS'We sometimes forget that TCAP is merely a moment in time. The true test of whether we served or kids well will show at college graduation.'
p484
aS'Every other college student is stressed about finals but here at the "best maritime school in the nation" we are still taking midterms'
p485
aS"@arghsam: It's scary to think that by this time next year most of my class and I will know where we're going to college....."
p486
aS"Oh my god...I'm going to be a Junior in college... where does the time go?"
p487
aS'@The_Jac_Attack gosh can we just go back to college?!?! I miss you and those great times!'
p488
aS'by the time some guys are his age, they have 2 years experience in the NFL, he has 2 years in college.'
p489
aS"I've been to union the gay bar more times in my college career than union the osu student union"
p490
aS"First year of college was hella difficult at times .. I'm just glad it's almost over . I need a break . \xf0\x9f\x91\x8c"
p491
aS'Most girls spend more time and effort on their graduation caps than they do all 4 years in college combined #basic #truth'
p492
aS'If I had a dollar for every time someone spelled my name wrong, I could pay for college, a semester abroad, a new car, and a mansion in cash'
p493
aS"I can't remember the last time I bought a pack of pens bc I've been surviving college with the ones I find on the ground"
p494
aS"Talking bout don't u have homework \xf0\x9f\x98\x82\xf0\x9f\x98\x82 that's what a full time college student has but I'm done"
p495
aS"Already having the best time with the bestie!!! Can't wait for this delish college breakfast. @laurendanyelle #ramajamas"
p496
aS'Sometimes you just gotta not go to class and have a mental breakdown and cry instead #college'
p497
aS"We'll I guess it's bedtime... Idk #college"
p498
aS'The only thing I miss about college is giving in to my cravings no matter the time and not feeling guilty about it'
p499
aS'@KyleLaron I know the feelin. I still having college withdrawals at times'
p500
aS'\xe2\x80\x9c@collegefession: "Sometimes I stick my finger in my ass then smell it. It smells kind of good" - Brookdale community college\xe2\x80\x9d @yussfigueroa'
p501
aS"Last time I checked I wasn't allowed to go away for college when I graduated because you both wouldn't let me."
p502
aS"The Rockets are gonna have to get it without me tonight, it's times like this when college sucks"
p503
aS"I honestly don't know how I've gotten this far in college with the amount of time/effort I put in to everything \xf0\x9f\x98\x82"
p504
aS"Sometime I feel like I'm good enough to play for a junior college"
p505
aS"If my nana talks to me about college one more time I'm going to go crazy \xf0\x9f\x98\x85\xf0\x9f\x98\x85\xf0\x9f\x98\x85"
p506
aS'Ummm how long till college football?? #HurryHurry #NCAA #alltimebest'
p507
aS'Done with my freshman year of college #timeflies'
p508
aS'School year goes by so much faster once your older...last week of sophomore college year. Where has time gone?!?!?'
p509
aS'This will be my last week of classes in college. So hard to believe how fast time goes by.'
p510
aS"I can't believe today is my last day of classes as a freshman. It feels like college just started... #timeflies"
p511
aS"Can't believe I'm already half way through college #timeflys"
p512
aS"I'm really glad community college exists and I went to CC but seriously it's sometimes so inconvenient trying to manage two schools at once"
p513
aS'It sucks you have to suffer for some time in certain cases to reach a time of prosperity. Wholeheartedly from a broke college kid.'
p514
aS"@stef_63 last time you'll ever step into a college hahahahahahahahaha"
p515
aS'@hmn_13 one time was for doing a donut in the grass at Centre college. He let me go lol.'
p516
aS"Really can't believe it's bout that time to be a sophomore in college \xf0\x9f\x98\xb3"
p517
aS'1\xe2\x83\xa3 lesson I learned so far as a freshman in college USE YOUR TIME WISELY.. You NEVER have free time'
p518
aS"Congrats to all the seniors on college day... Hopefully be this time next year I'll know where I'm going too #juniorhockeyproblems"
p519
aS"But like what's college without having a nervous breakdown 10 or 15 times \xf0\x9f\x98\x85"
p520
aS"Oh and last time I'll have to walk to an 8am class in my college career (hopefully)"
p521
aS'Driving my Cavalier one last time on my way to its new owner. Cranked up @Alkaline_Trio to bring back some college memories.'
p522
aS'Two finals to go in my college career and apathy is at an all time high.'
p523
aS'Man college sucks sometimes.'
p524
aS'Officially done my first semester of college \xf0\x9f\x98\x9c #timeflies'
p525
aS'Holy shit \xf0\x9f\x98\xb3 I just finished my first year of college?? I thought I just graduated from high school...?! #timeflies #slowdown'
p526
aS'@TheMandonWhite time does fly. About to have my last week of college next week. Enjoy every minute of it man'
p527
aS'Just learned @crkowalsky had her last college class @MarquetteU today. Man, time flies.'
p528
aS"I guess it's time for some college softball."
p529
aS"I gotta think abt college stuff and to be ready for it. I know Im sophomore I don't have time for silly homework. Im mad at it:("
p530
aS'Well, that is the first time I actually clicked on or even noticed a "promoted" tweet. Took me back to my college days. #SubservientChicken'
p531
aS"\xe2\x80\x9c@JvyTrillv: Porn never gives the back story. Yes she's a college freshman trying anal for the first time. But what are her goals ?\xe2\x80\x9d \xf0\x9f\x98\x82\xf0\x9f\x98\x82\xf0\x9f\x98\x82"
p532
aS"There's only a 17% chance of gettin a good full time after graduating college.."
p533
aS'The memories God gave me in high school, I will cherish forever but the memories I made in college will last me a lifetime'
p534
aS"haven't eaten a meal since yesterday morning because i haven't had time...but thats all gonna change cuz college is ovaaaaaa manggg \xf0\x9f\x98\x8d\xf0\x9f\x98\x8d\xf0\x9f\x98\x8d\xf0\x9f\x8d\xb4\xf0\x9f\x8d\x95\xf0\x9f\x8d\x94\xf0\x9f\x8d\x9f\xf0\x9f\x8d\x97"
p535
aS'Spring semester is finally over! Ready for some relaxin this summer and taking some time away from college'
p536
aS'\xe2\x80\x9c@collegefession: "Sometimes I stick my finger in my ass then smell it. It smells kind of good"- Brookdale community college\xe2\x80\x9d@butlernathan57'
p537
aS'Bullcrapping my way through college one paper at a time.'
p538
aS"This time in 14 days I'll be a college grad. \xf0\x9f\x8e\x93\xf0\x9f\x8e\x89\xf0\x9f\x8e\x93\xf0\x9f\x8e\x89\xf0\x9f\x8e\x93\xf0\x9f\x8e\x89\xf0\x9f\x8e\x93\xf0\x9f\x8e\x89\xf0\x9f\x8e\x93"
p539
aS'I hate but love college at the same time ... Is that possible?'
p540
aS"@FuckThatShxt @_Marlincia take your time college ain't shit"
p541
aS'Dang, 4 finals are between me and being a Junior in college. Where has the time gone?'
p542
aS'this time tmrw im done with my freshman year of college #YES'
p543
aS"So I sleep a lot during my free time, what's the big deal? Im a stressed out exhausted college student I'm entitled to sleep whenever I want"
p544
aS"Finally done with my sophomore year of college!! It's been real Butler, but it's drum corps time"
p545
aS"I'm busting my ass in college, I'm so happy I'll be half way through my sophomore year by the time fall starts\xf0\x9f\x98\x8e"
p546
aS"Local college leaders aren't worried about online courses at prominent schools emptying classrooms anytime soon."
p547
aS'\xe2\x80\x9c: Don\xe2\x80\x99t exclude PLENTY of opportunities for playing time, scholarships &amp; a college degree by only focusing on Division I programs\xe2\x80\x9d'
p548
aS'@khirstenwhite Monday at 10 is the only time we can take that Exam at the college. We can go to school an you can ride with me?'
p549
aS"This time next week, I'll be in Tallahassee with my best friends. Oh yea and I'll be graduating college. Holy shit \xf0\x9f\x98\xb3\xf0\x9f\x98\x8d"
p550
aS"@SammieKline and btw you don't need to go to college to be successful, and don't k me next time I'm no peasant.\xf0\x9f\x98\x91\xf0\x9f\x91\x8c"
p551
aS'@BigFigYaDig3 fulltime college student-employed-musician-gf-godking'
p552
aS'How college makes you feel just about 97% of the time'
p553
aS'Hi, @kaileighdemps, remember that one time you asked college seniors if the reason they were dressed up was for senior HS prom? #RingDance'
p554
aS"lol -don't be disappointed. \nA 4-year college degree takes most people 5 years (sometimes 6 if u had Developmental classes &amp; go into Medical"
p555
aS'"@collegefession: "I go into the bathrooms and steal the toilet paper all the time #BrokeCollegeKidProbs" - Texarkana College" me last year'
p556
aS'I miss a more simple time in life when I was living with @hannahgrace09 and @CarySCARY was my neighbor \xf0\x9f\x98\x94 can we go back to college?'
p557
aS"According to my sister 6 times 12 is 6 and you won't get into college if you don't have friends #duh"
p558
aS"@JordanLorenc I'm sorry \xf0\x9f\x92\x94\xf0\x9f\x92\x94 summers coming tho so we'll hangout all da time before I go to college"
p559
aS'Officially done with my freshmen year of college! #timeflies'
p560
aS'its our college dorm room &amp; we aint really doin nothing as the time flies by\xe2\x99\xac\xe2\x99\xac\xe2\x99\xac\xe2\x99\xac\xe2\x99\xac'
p561
aS'Sophomore year of college is done! All moved out of my dorm for the last time (praise da lawd). Leaving for Italy in 14 hours. Life is good\xf0\x9f\x98\x8e'
p562
aS'"can we skip this whole \xe2\x80\x9ccollege\xe2\x80\x9d thing and go straight and go to the part where i have a really awesome job &amp; spend all my time traveling?\xe2\x80\x9d'
p563
aS"Can't believe I'm at the end of my 3rd year of college. Where does time go?"
p564
aS'First time ever at grand central station! Headed to Connecticut to go party w some college kids. @\xe2\x80\xa6'
p565
aS"I can't believe I'm taking my senior pictures for college graduation on Monday. Where has the time gone?!"
p566
aS"Sometimes I wish my mom would foster a kid. But she's always working and I'm going to college in a few months."
p567
aS'Ladies, is there some kind of unwritten daytime dress code on college campuses that state you must wear a t-shirt and shorts? #AllTheSame'
p568
aS"Found a tbt pic of me and Coty's first time going to the club in college.....lord what was we thinking lmao \xf0\x9f\x98\xb3#wecamealongway"
p569
aS'Thank God for you @TacoBell. Without your inexpensive prices, a college kid like me would go hungry at a time like this. God bless you.'
p570
aS'@sfloyd4234 @joshjackson53 Uhm im in college and work full time thank you \xf0\x9f\x91\x8d'
p571
aS"First day back and I'm already back to work. I kind of wish I had time to rest but I know college isn't going to pay for itself so..."
p572
aS"Every time I come back to visit from college I will stop at a Portillo's before going home"
p573
aS'One week from this exact time I will be done with finals along with my freshman year of college..Wow. #timeflies'
p574
aS'If I got a dollar for every time someone posted a selfie with the caption "let me take a selfie" I could drop out of college'
p575
aS"Absolutely blows my mind that it is finals week? Where has the time gone? I'm about to be a junior in college! This has got to be a joke! \xf0\x9f\x99\x88\xf0\x9f\x98\x81"
p576
aS'In 2 hours I will be done with my first year of college. Ugh time really flies \xe2\x9c\x88\xef\xb8\x8f\xf0\x9f\x92\x98'
p577
aS"I don't think college is as hard as people make it out to be, it just depends on how much time and effort you're willing to put in"
p578
aS"@TannerReeves Don't rush it! Plenty of time. You will meet your forever after in college."
p579
aS'The time after college goes by so fast! Time is just slipping away! So crazy!'
p580
aS'My freshman year in college is almost over, oh how time flys.'
p581
aS'I think about graduating college , getting married and becoming a mommy all the time .'
p582
aS"@breonajoy welcome to the college life won't be the last time you say that!...sadly"
p583
aS"Sometimes I remember that there's college students not taking science classes and I'm filled with wonder and envy. What is communications"
p584
aS'I reallyyyy can wait for my sophomore year of college.. Not too excited this time around \xf0\x9f\x98\x93'
p585
aS'\xe2\x80\x9c@VivaaaaLaRayne: in due time. college grad gift.'
p586
aS"@JacobJones_21 still I don't drink at all since I joined  plus yeah I did tht but I drank all the time when I was at college"
p587
aS"I'm a senior in college. Da fuck where has time gone"
p588
aS"1 reason I can't wait til college is because the teachers will actually put the grades in on time."
p589
aS'First college assignment...wow time flies'
p590
aS"@Pyknic I hated college the first time, pursued my dreams and now I'm graduating culinary school in 2 weeks.Thanks for the inspiration today"
p591
aS'if you talk about college all the time I probably hate you #ChristinaRoasts2k14'
p592
aS"This time next week, I won't be living in the Sigma house anymore &amp; I'll be a senior in college \xf0\x9f\x98\xad #wut"
p593
aS'Officially done with college. Thank you @GVSU for making this experience what it was #LakerForALifetime'
p594
aS'I think college athletes should have been getting paid a long time ago honestly'
p595
aS'But at the same time she can take me to college parties'
p596
aS"Just hit me I have college tryouts in less than 2 days and I still haven't given my body time to heal up from Worlds! #GoHomeOrGoHard"
p597
aS'The best college graduation gift I could get would be if @springsteen asked me on stage with him!  #foreverfavorite #bosstime'
p598
aS"It's most definitely crunch time #college #crunchtime #finalsSoon"
p599
aS'Cant believe i am almost done with my first year of college and the thought of dropping out has already occurred to me 100^2 times'
p600
aS'Honestly if I go back in time I would go away to school so I can get that real college experience'
p601
aS'My whole timeline is everyone a year ahead of me I thought college is supposed to make you tired'
p602
aS"If you use a coffee pot to make ramen noodles, you may be a college student. If I happen to need coffee at the same time, you're dead."
p603
aS'I need more time to mediate and be alone, college has made me like people a lot less lol.'
p604
aS'I could be out having a good time. But college fucking sucks.'
p605
aS"If I have enough time before college when I get back. I'm going to become a fire fighter. No bull shit"
p606
aS'Me and Vince Carter went to college at the same time. -Rob Baker'
p607
aS'@whatthehellie I went to my first choice graduated on time and Now wish I went to community college to save THOUSANDS. \xf0\x9f\x98\x94'
p608
aS"I hate I'm not graduating from college on time"
p609
aS'@TheBoss_94 and please learn how the hell to spell, we are in college. STARING****. For the last fucking time, goodbye.'
p610
aS"I wish I didn't have to wok while I was in college . #notime"
p611
aS'@HubertSanders I hope to see you sometime soon, now that I am done with my first year of college and now into summer. Hope to see you soon!'
p612
aS'I have three exams today and my freshman year of college is complete. #timeflies'
p613
aS'The most fun time in your life is apparently supposed to be college... Mine will be high school because I go to #uta'
p614
aS"It's weird thinking I'v already been in college for two years! Where has the time gone?"
p615
aS'Crazy thing about a junior college is right when everybody get cool and close its time to leave...'
p616
aS'White House Garden Tour with my college roomie. #whitehouse #whgarden #washingtondc #goodtimes @ The\xe2\x80\xa6'
p617
aS"half the time I can't wait to go to college and the other half of the time I just wanna live here forever and ever"
p618
aS"Still confused at how I'm officially a junior in college... #timeflies"
p619
aS'Officially a senior in college, summer time.. And a sleeping toddler in my backseat, what could be better? #love \xf0\x9f\x91\x91\xf0\x9f\x98\x8d\xe2\x98\xba\xef\xb8\x8f'
p620
aS"It's around that time in college when people start stealing shit. Y'all better make sure you lock your doors!"
p621
aS'Love spending time with these guys, reliving college memories. #k186'
p622
aS"I came all the way back to the college for lab and I feel like it's a waste of time"
p623
aS"Bravos just won a game I went to.  First time since college. No kiddin Don't really know how to act.   #thinkingcheetah  #shitmykidsrwithme"
p624
aS"I Need 2 go back to school SMFH I graduated 7 years ago from a community college ! I'm fucking playing and wasting time !"
p625
aS'About to go to my last class in college #timeflies'
p626
aS"Just took my last exam to wrap up my freshman year at college! It's time to enjoy summer now\xe2\x98\x80\xef\xb8\x8f"
p627
aS"Can't believe it's my last time ever being in school with @MontanaIrizarry we've been friends since day 1 of college! \xf0\x9f\x98\xa2\xf0\x9f\x92\x96"
p628
aS'just saw my dad for the first time since I left for college..... bittersweet'
p629
aS"1 super good thing about college is that your parents don't know you watch gay porn. The problem is goin home and tryin to find the time to"
p630
aS'Almost done with my first year of college, damn time flies.'
p631
aS'Knowing I have 8 credits, a full time &amp; part time job this summer makes me dread leaving college even more #byesociallife #dontmakemeleave \xf0\x9f\x98\xa9'
p632
aS"And every time finals come around I wonder if I'm doing college wrong...cause they never stress me out."
p633
aS'Sometimes I think I should have gone to a conservative or less liberal college'
p634
aS'my sister is asking for advice about college admissions...where has time gone'
p635
aS'Done with my freshman year of college \xf0\x9f\x98\xa7 where did the time go.....'
p636
aS"Just occurred to me that this is likely the last time I'll be drunk off cheap beer in college. Well, that's a little heavy."
p637
aS'\xe2\x80\x9ccan we skip this whole \xe2\x80\x9ccollege\xe2\x80\x9d thing, go straight to the part where i have a really awesome job &amp; spend all my time traveling?\xe2\x80\x9d Pleasee\xf0\x9f\x99\x8f'
p638
aS"MICA adjunct faculty vote to form union: It's first union to represent part-time faculty at a four-year college..."
p639
aS'"@livelifehappy_7: and please learn how the hell to spell, we are in college. STARING****. For the last fucking time, goodbye." #ftw :)'
p640
aS'I keep seeing posts from people who didn\'t go to college talking about how "college is a waste of time" lol #LookAtYou #NowLookAtUs'
p641
aS"@PRINCE_PATEL2 I see :) well I'm from Arizona in the US. I go to college for psychology :) what time is it there?"
p642
aS"Yup my printer would stop working at pivotal time in my college career \xf0\x9f\x98\x91\xf0\x9f\x98\x91\xf0\x9f\x98\x91\xf0\x9f\x98\x91\xf0\x9f\x98\x91\xf0\x9f\x98\x91\xf0\x9f\x98\x91 maybe it's a sign that I should be famous instead"
p643
aS"wait so I'm a junior in college ... whaaaattttt #timeflies"
p644
aS'my first year of college is almost done. where did the time go?'
p645
aS'Normally people experiment at college with their sexualities and hallucinogenic drugs. However, I just tried cucumbers for the first time'
p646
aS"@derekSFCgibson good. Cherish it. I can't tell younger players enough. You never get back your time playing in college, so enjoy it"
p647
aS'#tbt that time I graduated college. No big deal or anything. #SUNY #Fredonia, where all your wildest\xe2\x80\xa6'
p648
aS'Officially done with my freshman year if college. Damn time flies!'
p649
aS'"You\'re in college?" I get this all the time. I wish I looked my age\xf0\x9f\x98\xad'
p650
aS'Probz the only time this will ever happen to me in college #yagirlishype'
p651
aS'Sometimes I love to see who actually follows my college progress after not seeing eachother for a long time and leaving positive feedback\xe2\x98\xba\xef\xb8\x8f'
p652
aS"@ZackGriffis idk. I just know there's no way he is broke. Idc what anybody says, every big time college athlete doesn't pay for meals"
p653
aS"@BeaverCleaver92 it's all good! That's the beauty of college, you can take as much time as you want"
p654
aS'"there was a time when i was going to give someone a blowjob but i realized i have a gag reflex" #college????????????'
p655
aS'Going through my Instagram photos and remembering so many memories from college to now. Crazy how fast time is going. \xe2\x8c\x9a\xef\xb8\x8f'
p656
aS"It feels like I just graduated high school. Now I'm almost done with my freshman year of college. Where did the time go?!"
p657
aS'The only time I put real clothes on today was to go get wine from the store. I love being a college graduate already.'
p658
aS"When you have a full time job and you're a college student.....staying in on weekends/nights is an amazing feeling \xf0\x9f\x98\x8d"
p659
aS'I would love another 4 years of college #goodtimes #goodpeople #GoBlue'
p660
aS'God I love state college...most of the time'
p661
aS'Got 2 more days of my freshman year of college! \xf0\x9f\x98\xb3\xf0\x9f\x92\xa8 time flew!'
p662
aS'Had a wonderful college visit w @mattmuterspaw even tho he has strep. Nothing like spending time with your kids.'
p663
aS"Damn it's going to be 2 years since I graduated from high school damn time goes by way too fast and I am almost done with college already"
p664
aS"@NOTSCCleveland He is by far one of the most underrated college QB's of all time."
p665
aS"I can't believe that I'll be done with my first year of college in two weeks #timeflies"
p666
aS"Two more months until I'm in college, so much to do and so little time. @DanniiDisasterr  @Rachel050896"
p667
aS"Apparently Kim Jon invented the hamburger, shot 11 hole-in-one's his first time golfing and wrote 1500 books in college."
p668
aS'One final away from being done with my first year of college. where did the time go?!'
p669
aS'The month of May in college is no different than March in NCAAB, October in baseball, or January in the NFL: crunch time'
p670
aS'Sometimes I think, wow college sucks, but then I realize that I still could be in high school'
p671
aS'At times I love being a college student but times I just hate it so much'
p672
aS'\xe2\x80\x9c@collegefession: "Sex, Sports Center, Naps, Repeat..." - Suny Maritime\xe2\x80\x9d my life in college'
p673
aS'This whole working full time &amp; going to college shit is stressful af \xf0\x9f\x98\xa9\xf0\x9f\x98\xa9\xf0\x9f\x98\xa9'
p674
aS'Yall act like some of these athletes in college have money to buy food every night for themselves sometimes niggas gotta steal to live'
p675
aS'@hc3_06 ikno dawg but they not gon hire me cuz of college\xf0\x9f\x98\x92 like last time'
p676
aS"I just still can't believe that my freshman year of college is already over...\xf0\x9f\x98\xb3 #wahh #timeflies"
p677
aS"So close to graduating college for my 2nd time I can taste it, and it's sweet. #nursing #nursingschool"
p678
aS"Packing up and heading home today, still can't believe I'm through 3 years of college. Where did the time go?"
p679
aS'The only thing I learned in college was time management, aka having fun but still not failing classes, but I guess not everyone learned that'
p680
aS'Sometimes wish I was going to a college super far away to get away from mason people'
p681
aS"Can't believe I'll be done my second year of college in a week.... #timeflys"
p682
aS"You know you're in college when as soon as you wake up, you're planning out when you'll have time to nap."
p683
aS"Reflecting on the fact that I'm almost done with my first year of #college. #woah #timeflies #thatwasquick #imold #ForrealThough"
p684
aS'Sometimes I hate going to college where my mom works. \xf0\x9f\x98\x92'
p685
aS"The ONLY thing that's keeping me from sleeping at night is making sure college info &amp; scholarships are turned in on time. \xf0\x9f\x98\xa9"
p686
aS'I thought this whole time that you needed both SAT and ACT to get into college when mainly you need one wow'
p687
aS"I want to be in college again. I think it's time for a masters degree! happy birthday @clemimo \xf0\x9f\x8d\xbb\xf0\x9f\x8d\xbb"
p688
aS"@TonyDCox college is so damn stressful. That's the time in my life when I started."
p689
aS'Just finished our last classes of college where did the time go \xf0\x9f\x98\xb1 @ Clemson University'
p690
aS"\xe2\x80\x9c@villavanilla71: Only two weeks left for my freshmen year in college. \xf0\x9f\x98\xb3 #TimeFlies\xe2\x80\x9d then it's time to come home maolung"
p691
aS"@KirkHerbstreit don't forget he is still a college kids. They tend to do some stupid things from time to time."
p692
aS"Can't wait to start college \xf0\x9f\x98\x81 by the time I'm 22 I'll be successfully working a/"
p693
aS'Freshman year of college \xe2\x9c\x94\xef\xb8\x8f #timeflew'
p694
aS'This is the only time I watch NBA, when college ball is over &amp; the playoffs start. .'
p695
aS'The ratchetness that you witness in college park at this time..... Bish whet?'
p696
aS"I don't want him to be a recluse all summer. Nows the time that we need to figure out our lives since we aren't going to college right now!"
p697
aS"I'm gonna visit @sofiadiaco all the time at college next year"
p698
aS"I deadass graduated from college. Time to grow up and stop acting like a kid now. It's time for reality."
p699
aS"I'm almost done with my freshman year of college...\xf0\x9f\x98\xb3 crazy. #timeflies"
p700
aS'Is it #bedtime yet? #homework #40days #seniors dartmouthcollege @ Dartmouth College'
p701
aS'\xe2\x80\x9c@collegefession: "Sometimes I stick my finger in my ass then smell it. It smells kind of good" - Brookdale community college\xe2\x80\x9d \xf0\x9f\x98\x82 weirdo'
p702
aS'"If I had a dollar for every time someone spelled my name wrong, I could pay for college, semester abroad, a new car, and a mansion in cash"'
p703
aS'I wonder why people gain weight in college, then I ask myself how many times a night I eat dinner &amp; my first question is answered'
p704
aS'what wonderful timing my boss has to give me fulltime hours. this week and next week. not like im trying to finish college right?'
p705
aS'Thank god I go to a mediocre college, I can barely do all my homework on time as it is'
p706
aS'Both girls know where they are going to college. ... time goes to quick\xf0\x9f\x98\xa8\xf0\x9f\x98\xa2\xf0\x9f\x98\xa7\xf0\x9f\x98\xa2'
p707
aS'In exactly one month, at this exact time I will be graduating college. Let the stress and excitement begin\xf0\x9f\x8e\x93'
p708
aS"college is a time for growing some balls &amp; gaining independence. relying on others won't get you very far in life."
p709
aS"i wish it was 2015 time to get out of school and go to college ... but it's coming \xf0\x9f\x92\xaf\xf0\x9f\x91\x90"
p710
aS'less than 2 weeks away from being half way done with college. #timeflies'
p711
aS'I want to have kids but I want them to go straight to college because it will be  the best time of their lives'
p712
aS"I can't believe I graduate from college in 20 days!! #crunchtime"
p713
aS"Getting ready for college is stressing. I hope college ain't stressing all the time"
p714
aS'One thing college taught me is how much I can do in a small period of time'
p715
aS"Pretty cool topic today from @WiLD941 , even though I'm in college, still feels kind of worthless sometimes #GatorNation"
p716
aS'\xe2\x80\x9cIf I had a dollar 4 every time some1 spelled my name wrong, I could pay 4 college, time abroad, new car, &amp;a mansion in cash.\xe2\x80\x9d@KarrahLynnT'
p717
aS"@uniqueLIGHTSKIN girl don't rush it college is stressful sometimes !!"
p718
aS"Well, this girl has officially completed her freshman year of college! I can't believe time has flown\xe2\x80\xa6"
p719
aS'My momma is the best! Much needed relaxation time after a crazy first year of college \xf0\x9f\x98\x8a'
p720
aS"@Zorak84 Amen to that. It's hard to celebrate my college graduation when I add up how much I owe, esp. w/bad job prospects. @nytimes"
p721
aS'bout to be a junior in college. where does the time go?'
p722
aS'Last presentation of my college career is now in the rear view...where has the time gone??'
p723
aS'Word AO. RT "@A2daO: Truth RT @Stone_Marley: Harrison Twins made the bea decision anyone has made in college basketball in a long time."'
p724
aS'Just circled up for the last time as an Georgetown college student. Wow.'
p725
aS'Definitely gon be looking forward to my brodies playing against each other in college ball. This will be the first time lol kinda exciting .'
p726
aS'Ok, what college do you know let you take ONE CLASS for five weeks. #illwait lol whoever came up with this was ahead of their time...genius.'
p727
aS'The best thing about college is all the time all the spare time you have for naps'
p728
aS'Bedtime is the BEST time (says anyone over the college age)'
p729
aS'If I had a dollar for every time someone spelled my name wrong, I could pay for college, semester abroad, &amp;a new car in cash.\xe2\x80\x9d@C0llege_g1rl'
p730
aS'Dude I have 3 days of school left and I have completed my first year in college .. \xf0\x9f\x98\xb3 where has time gone'
p731
aS"So glad I didn't waste my time and money going to college first\xf0\x9f\x98\x81"
p732
aS"It's that time of year again my fellow college students. Study hard and remember we only have a week left!"
p733
aS"I don't understand why Coachella and Stagecoach are put on around the same time as most college's finals. Smh."
p734
aS'This convo I\'m overhearing about getting in the business college is brutal. "Literally" was used at least 40 times in a 10 minute convo. \xf0\x9f\x98\xa3'
p735
aS"It's finally starting to hit me. I'm done at hutch college. Where did the time go? #wow"
p736
aS'I just need someone to help me pass time before I leave for college \xf0\x9f\x92\x81'
p737
aS'One time, my teacher wrote "booo!!!" and "this is college, improve!" on my paper because it was that bad #goodtimes'
p738
aS'@annshoket I would love a Bahamas beach vacant to unwind from the stress of college &amp; my part time job! #AnnFreebie'
p739
aS'This time next week, I will be done with college.\xf0\x9f\x98\xb3 I never knew I could feel so old and so young at the same time.'
p740
aS"@Mich3ll3_Jordan I'm sorry! I remember doing that one time too. I was mortified. I locked myself in &amp; cleaned it all while DRUNK #college"
p741
aS"I say this all the time but I'm so glad there's no dress code in college"
p742
aS'Every time I listen to the college dropout album I feel like a loser\xf0\x9f\x98\xad #whatadegreedoforyou'
p743
aS"Can't believe I just finished my freshman year of college!! #timeflies"
p744
aS"I don't understand how all these people find the time and money to go to every music festivals AND attend college full time."
p745
aS"Sam's dad made my want to die. Now a billion times more nervous for college."
p746
aS'No morning PT, no practice, and no weights. So much free time. Is this what college is like?'
p747
aS'This time tomorrow I will be DONE with my sophomore year of college. \xf0\x9f\x99\x8c\xf0\x9f\x99\x8c'
p748
aS"I don't know how you make it through any time in college and don't know how to use PowerPoint, but I kind of hate you for it, group member."
p749
aS'Sometimes I love college @ Centenary College of New Jersey'
p750
aS"Sometimes I wish we could've all just went to the same college\xf0\x9f\x98\xa9\xf0\x9f\x98\x94"
p751
aS'I love how in college you can just walk out of your class anytime you want'
p752
aS'This whole "college" thing Trevor does is getting in the way of my cuddle time.'
p753
aS"One more week of classes, and I'm done with my first year of college. Where'd the time go? \xf0\x9f\x98\xb3\xf0\x9f\x99\x88"
p754
aS'Last home game as a college baseball player tomorrow!! Ahhh crazy how time flies'
p755
aS'Just met some amazing people at a college grad party sometimes I love people'
p756
aS"Only two more weeks of this bullshit &amp; I'll be a junior in college.. #timeflies"
p757
aS'There are times when I regret everything since coming to college and today is one of those days.'
p758
aS"I can't believe I'll be a senior in college soon, time is flying by\xf0\x9f\x98\xab"
p759
aS"Everytime I come home from college, all my underwear just disappears. I don't get it."
p760
aS'Officially a junior in college. Where has the time gone?! \xf0\x9f\x98\xb3\xf0\x9f\x99\x88\xf0\x9f\x98\x9c\xf0\x9f\x98\x81'
p761
aS'I graduate college tomorrow.. Holy cow where has the time gone.'
p762
aS"I'm slowly starting to think college is a waste of my fucking time"
p763
aS'One week from it our time to shine  #classof2014 #wcnation #wileycollege @ Wiley College'
p764
aS'#MilitaryKids have a hard time settling down anywhere - we anticipate the move. After college, I HAVE to move again. I just have to.'
p765
aS"I need to stop acting crazy el oh el , half these bitches gon be in the dirt,prison,prego, and/or broke, by time I'm college #Whoareyou"
p766
aS'I just really hate and love college at the same time.'
p767
aS"I wanna leave somebody a $1000 tip sometime and pay for someone's college."
p768
aS'we should be able to pick the classes we want to go to and at what time in high school just like they do in college \xf0\x9f\x98\x92\xe2\x98\xba\xef\xb8\x8f'
p769
aS"Everytime I get asked what college I'm going to I'm going to eat a bite if Ice cream and pretend I didn't hear the question"
p770
aS"Lord willing, next year around this time I'm gonna be packing to come back to LA &amp; I'll be done with my first year of college \xf0\x9f\x98\xad \n\n#cantwait"
p771
aS'Already done with my freshman year of college \xf0\x9f\x98\xb3 where the hell did time go?'
p772
aS'@spladow @SaraKateW you forget how long ago college was for me. I\xe2\x80\x99ve had lots of time to learn things since then'
p773
aS"I can't wait for college!! I can't wait to see new faces and get back to the good times with those that I already know! #Godsplannotmine"
p774
aS"If I had a dollar for every time I've hiccuped in the past 12 hours, I'd have college paid off #mybodyhatesme #pleasestop"
p775
aS'Ive been waiting for this day #college #weekend #jaydentime'
p776
aS'"@GoogleFacts: An anonymous donor pays for the college education of every student in Kalamazoo, Michigan" time to move lol'
p777
aS'@GarrettHoy this summer, we will release a mixtape before you go off to college man! Im not kiddin this time'
p778
aS'Gonna say this for the fucking millionth time I hate college'
p779
aS'@Drew_wants_you you wish you were still in college, best time of your life #YouPeakedInCollege'
p780
aS'For the first time ever in college I passed a class with an A \xf0\x9f\x98\x8e'
p781
aS"the fact that i'll actually be taking college courses next year scares me but excites me at the same time"
p782
aS'Bad time for the express computers to be down brooklyn college library'
p783
aS'By the time some guys are kelvin benjamins age, they have 2 years experience in the NFL, he has 2 years in college'
p784
aS'every time I visit a college, I am reminded that college is getting close and I am getting older anD BILLS AND RESPONSIBILITIES AND WHY'
p785
aS'I sometimes wonder if being a college student just makes you a socially acceptable alcoholic'
p786
aS'Sometimes you just gotta have a donut and egg and cheese bagel. For dinner. At midnight. #college'
p787
aS"I'm grown now . she first finished her first year of college \xf0\x9f\x98\x8f I had to do for the real niggas one time"
p788
aS"You're in college now, it's time to shower and not have BO. Thanks."
p789
aS'@nathankluiter I say this every time I see a college student driving one'
p790
aS"Great! More me time! RT\xe2\x80\x9c@Halmet_Tayar: And just like that I'm done with my first year of college\xe2\x80\x9d"
p791
aS"Maybe I'm so crazy or psycho bc I'm for the most part completely dedicated to being a full time college student and work my ass off"
p792
aS'So really why are there not college nap times? #DreamCollege'
p793
aS"And with that I'm halfway through college! #summertime"
p794
aS'.@elizabethforma thinks college debt is too high &amp; @nytimes thinks there are too many rich people @ good colleges. #conflictedLiberals'
p795
aS'One essay separates me from being a college graduate! #grindtime'
p796
aS"I'm excited to be the third to graduate college in my family but so nervous at the same time\xf0\x9f\x98\x92"
p797
aS"the only time i'll be forced to do hw is the day before deadline... can't keep doing this to myself bc college \xf0\x9f\x98\x92\xf0\x9f\x94\xab"
p798
aS'By the time I go to college, it would be with kids who were in elementary school.'
p799
aS'Talking with @victoriawatttt about choosing the right college. Really not looking forward to that bittersweet point in time.. \xf0\x9f\x98\xb3'
p800
aS"Sometimes I feel like this college stuff is just a long dream and at any moment I'll wake up from a nap in mrs.dornaks's class or something"
p801
aS"Is it bad that i just teared up because my college has a ban on omegle and won't let me FaceTime my man crush? @AndreDrummondd #FacetimeMe"
p802
aS'I miss my disney college program so much right now, i wish I had a time machine \xf0\x9f\x98\xad\xf0\x9f\x98\xad\xf0\x9f\x98\xad\xf0\x9f\x98\xad\xf0\x9f\x98\xad\xf0\x9f\x98\xad\xf0\x9f\x98\xad\xf0\x9f\x92\x94'
p803
aS'Last day of my freshman year of college is Friday \xf0\x9f\x98\xb1 time really does fly!'
p804
aS'My whole time hop is college apparel day last year \xf0\x9f\x98\x94'
p805
aS'If my parents say "college student" to me one more time, I\'m gonna hurt someone.'
p806
aS"Most the time I forget I'm in college"
p807
aS"I don't understand people who waste their college careers drinking and partying all the time. Am I the only one who likes success?"
p808
aS'Last time I checked we where in college not in high school...'
p809
aS'Being a graphic designer at lasell college means that you pay 200 dollars a year for photoshop but have limited time in the day to use it'
p810
aS"There's no time to sleep when college has you doing a essay and presentation do the same day. Time to put on my running shoes and work out"
p811
aS'Everytime I go to class looking like crap I remind myself that appearance is temporary and college transcripts are eternal #truth'
p812
aS"@kellera22231 it's about time you started procrastinating like a normal college student"
p813
aS"Can't believe I only have 4 days left of classes in my college career, time to buckle down and graduate"
p814
aS'If I had a dollar for every time someone spelled my name wrong, I could pay for college, semester abroad , a new car , and a mansion in cash'
p815
aS'Going home Monday and seeing my second mom for the first time in a long time. The night before I left for college freshman year we cried.'
p816
aS"Gotta make another trip here with all my college buds that didn't come this time and eat a bunch of bombers and Pizza Bella"
p817
aS"First time really admitting I'm ready to be in college \xf0\x9f\x92\x9c"
p818
aS'Sometimes college causes you to do odd things \xf0\x9f\x98\x8b'
p819
aS'Everytime I get ready to call this college somebody come in.. just leave me alone #wtf'
p820
aS'\xe2\x80\x9c@NSobotka: \xe2\x80\x9c@collegefession: "Every time I jack off I think of my ex girlfriend. Fml" - Columbus state community college\xe2\x80\x9d #gocougars\xe2\x80\x9d\xf0\x9f\x98\x82\xf0\x9f\x98\x82\xf0\x9f\x98\x82\xf0\x9f\x92\x80\xf0\x9f\x92\x80'
p821
aS"It's finally May \xf0\x9f\x8c\x9e\xf0\x9f\x8c\xbb it better be hot from now until it's time for me to leave for college"
p822
aS"Heading into my last class of my college career, and it's about damn time. #readytograduate #letsgettowork"
p823
aS'@BleacherReport @JManziel2 did all that in college. Now time to get to work. @nfl'
p824
aS"scratch that. I've come to dunkin donuts more times in college than my entire life"
p825
aS'"@collegefession: "Sometimes I stick my finger in my ass then smell it. It smells kind of good" - Brookdale community college" what the fuck'
p826
aS'I swear college goes by a hundred times quicker than high school.'
p827
aS"Fun fact: I haven't slept at night time since tuesday night. I cant do anything to fix this. I hate college."
p828
aS'Great time in college station last night! @SethWBass @ClaytonGardner @JustIngenious @cchuffdrums'
p829
aS'Love being stared down and studied every time I walk by a college tour on campus'
p830
aS"I'm gonna have gray hair by the time I graduate college from all this stress. \xf0\x9f\x98\x90"
p831
aS'Getting my coworkers back into college..One at a time heh'
p832
aS'@ladygaga aww. I miss my cats so much. Sometimes college is a real drag'
p833
aS'Living it up @ UT best times of my college life ha.'
p834
aS'I hate college two times a year; a couple weeks before winter break and right now.'
p835
aS'@franky_rdz why did I think this said I cant wait for college \n\nlike I had to read it 3 times'
p836
aS'Sometimes I wish I was still actually going to high school, but then again I like having a pay check and going to college for free'
p837
aS'officially done with my freshman year of college \xf0\x9f\x99\x88 where did the time go'
p838
aS'The best part about college... Classes getting canceled \xf0\x9f\x99\x8c #thankyou #naptime'
p839
aS"Literally the first time I've had Ramen noodles whole I've been in college \xf0\x9f\x98\x85"
p840
aS"Can't believe I'm already almost done with college! \xf0\x9f\x98\xb3 #wheredoestimego"
p841
aS'Officially done with my freshman year of college. Damn time flies!!'
p842
aS'I feel like going to college is waste of time and money, Go create something out in real world instead #collegesucks'
p843
aS'@DillonBannigan @alldaycarraway MJ left bball for baseball AND went to college, LBJ still not capitalizing on the extra time he has'
p844
aS'By the time I graduate my college education will be worth over a quarter of a million dollars \xf0\x9f\x98\xb3\xf0\x9f\x98\x82\xf0\x9f\x98\xa9'
p845
aS'Every time I watch Greek I get more and more excited about college!'
p846
aS"Every time I lift I instantly regret every drunken scrapple I ever got into in college. My wrists are fucked for life because I'm an idiot."
p847
aS"Sometimes I find myself thinking about what my life would be like at this point if I never went to college...it's never good."
p848
aS"I'm bout to graduate and go to college I ain't got time for games frfr"
p849
aS'\xe2\x80\x9c@TopCollegeVines: How #college feels... All the time. '
p850
aS'Insanity for the second time. Time to get rid of all that college weight. #motivationmonday'
p851
aS'Getting heated out here.. And we think UC brought the whole college to play..\n\n@CincySaints 0 - 1 @UCClubSoccer \nHalftime'
p852
aS"I think it's time they make Neds declassified college survival guide lol"
p853
aS"Second time doing 110 hurdles at college height. Let's gooooooooq"
p854
aS"Omg I got an A on my midterm. I can't even remember the last time I saw the letter A in college."
p855
aS"\xe2\x80\x9c@JeeezJazz: .....We are college educated, right?\xe2\x80\x9d Sometimes I'm not so sure lol."
p856
aS'So my last day of junior year of college is next week. Where has the time gone and can I please just go back to being 6 years old? \xf0\x9f\x98\x94'
p857
aS'I see people making more money than people who are in college. College legit makes you broke sometimes, but the degree IS worth it.'
p858
aS"I'm 17. Go to high school and beauty college. And I work two jobs. No I do not have free time."
p859
aS'The fact that we have to decide wether there is enough time in the day to shower #college @DeeezyMarie'
p860
aS"@LastKingsGT I wouldn't say alot probably a few times a year. Want to go more but college keeping me busy"
p861
aS'T minus nineteen hours until I am done with my sophomore year of college. #timeflies #crunchtime #summer'
p862
aS'Best way to wrap up the best year of college so far #summatime @ block PARTAY'
p863
aS"Had a great time at prom tonight! \xf0\x9f\x98\x8d\xf0\x9f\x91\xab\xf0\x9f\x91\x97\xf0\x9f\x91\xa0\xf0\x9f\x92\x84 @ JK we're in college.."
p864
aS'Last Saturday of college. Ending this chapter of my life with multiple drinks and a great time #goodtimes'
p865
aS'bringin back college memories, good &amp; bad. #timeofmylife'
p866
aS"Finally moved home and completed my sophomore year! Can't believe I'm halfway through college already. #timeflies"
p867
aS"Can't even imagine what it feels like for the people who are graduating college in a couple weeks #wtf #timeflies #makeitstop \xf0\x9f\x98\xab"
p868
aS"Sometimes I question if I'm in college or not, depending on how people act... \xf0\x9f\x98\x92"
p869
aS'Do I want to graduate on time or stay in college forever? Both seem pretty ideal.'
p870
aS'Two weeks from now I will be done with my first year of college. \xf0\x9f\x98\xb3 Like where did time go? TIME GOES SO FAST.'
p871
aS"Just had a guy give his seat up for me for the first time since I've been in state college...so adorable \xf0\x9f\x98\xb3"
p872
aS'And to finally be in college, the bridge year sucked big time\xf0\x9f\x91\x8e'
p873
aS'The biggest thing college taught me is how much I can do in a short period of time'
p874
aS"The number of times I've tweeted about Jazzman's in my college career ..."
p875
aS'@Regan_Summers Whoah. That one made a real impression back in ye olde college times'
p876
aS'Last time doing laundry in college and I dyed all my white clothes bright pink! Awesome!'
p877
aS'time to consider a model of career long education? @nytimes Fewer U.S. high school graduates are opting for college'
p878
aS"I remember in college, I had my bf at the time visiting me. We were playing Mario Party 2 w/ cpu's. I got so pissed off at Luigi. Too funny."
p879
aS'This is my last week of classes as a freshman in college, where did the time go??'
p880
aS"Ironic how people will take the time to like my college decision and congratulate me but won't bother to share my missing dog status #done"
p881
aS'@Calliswaag I find it very strange how our college experience is similar yet extremely different at the same time'
p882
aS"I've definitely taken the whole celebrating the end of finals thing a little too seriously this weekend \xf0\x9f\x99\x88\xf0\x9f\x98\x8f #goodtimes #college"
p883
aS'Wait. My time in college ends in 2 weeks. Whatttt? #notreadyyet #kidding #bye'
p884
aS"pretty sure this is the first time I've dressed up for school since I've started college lmao"
p885
aS'It literally makes no sense to expect an 18 year old to pay $20,000+ a year for college while working part time'
p886
aS"My day consists of wasting time until it's time to eat again #college"
p887
aS"Everybody forgetting that's this Damien Lilard second year in the league.  Them 4 college years gave him time to mature as a player"
p888
aS"Gonna be so weird leaving college for the first time for a few months, damn it's been a great ass year though!! \xf0\x9f\x91\x8c\xf0\x9f\x99\x8c"
p889
aS'This college thing is hard sometimes, but the reward in the end will be so much better than the alternative. Damnit, it better be...'
p890
aS'\xe2\x80\x9c@collegefession: "Sometimes I stick my finger in my ass then smell it. It smells kind of good" - Brookdale community college\xe2\x80\x9d\n\n\xf0\x9f\x98\x96\xf0\x9f\x98\x96'
p891
aS"I'm def gonna take college classes over summer vacation and winter just to get my credits up. Must graduate on time \xf0\x9f\x98\xad"
p892
aS'@Walshy3434 she goes to Babson college as a part time student!'
p893
aS'I swear next year college ball is gonna be the best time of my life.'
p894
aS'Noland - "October 1961". Pretty sure I\'ve done this picture every time I\'ve visited NY since college.\xe2\x80\xa6'
p895
aS'Remember that time college happened? - me in less than a week. WUT.'
p896
aS'What if after college I get a good job and work all the time and stop being fun and interesting'
p897
aS'@theonlyadult \xe2\x80\xa6what about the college? People go there all the time\xe2\x80\xa6'
p898
aS'This girl is officially a Junior in college \xe2\x9c\x8c\xef\xb8\x8f #HalfwayDone #timeflies @UTKnoxville'
p899
aS"It's like I wanna go to college ... But at the same time I don't."
p900
aS"I'm about to be a senior in college and sometimes I feel like I know less now than I did when I got here \xf0\x9f\x98\xad\xf0\x9f\x98\xad"
p901
aS'4 semesters into college and I changed my major for the 4th time... #neverGraduating'
p902
aS'@annshoket I would love a Bahamas beach vacay to unwind from the stress of college &amp; my part time job! #AnnFreebie'
p903
aS"@_myPERCEPTION I was like that for a long time. I didn't go to college until I was 21 because I didn't know what I wanted to do."
p904
aS"Finished my last final of the semester. Hard to believe that after 9 more credit hours I'll be graduating college. #timeflies"
p905
aS'I have spent more time in randall the past week then I have been in my apartment #Road2finals #UNCW #college'
p906
aS'My brother is graduating college today and I graduate HS in a month.. Can we just freeze time for a while please'
p907
aS'@rileynicoleq @bcameron412 first year of college is almost done? Damn where has the time gone.'
p908
aS'In 2 weeks freshmen year of college will be over... Damn time flies'
p909
aS'\xe2\x80\x9c@dananeeper: Only two days left of of our college years at Ole Miss. So surreal. @casey_lynn12\xe2\x80\x9d time for you both to come to me. #missmypgs'
p910
aS'My favorite college athlete arrest #ofalltime. Good on ya, Jameis.'
p911
aS'Yup.. I miss that struggling young college student life.. Ain gone struggle this time though.. Kml \xf0\x9f\x98\x82\xf0\x9f\x98\x82'
p912
aS'Its hard to believe in two weeks  freshman year of college is over!! #timeFlys #wow'
p913
aS"00 your an amazing athlete and so funny we don't talk much but I see you around all the time I hope college goes well for you \xf0\x9f\x91\x8d\xe2\x98\xba\xef\xb8\x8f"
p914
aS"I just read about a poor soul that went to a college anime club for the first time, and they showed Pupa. I'm so sorry, I'm so sorry"
p915
aS'Finals...the time of the semester that college kids actually care about their grade.'
p916
aS'"You work a lot for a full time college student"\n\xf0\x9f\x92\xb0\xf0\x9f\x92\xb0\xf0\x9f\x92\xb0\xf0\x9f\x92\xb0\xf0\x9f\x92\xb0\xf0\x9f\x92\xb0'
p917
aS'By the time I graduate college I will probably have grey hair and stress wrinkles \xf0\x9f\x99\x88 Stupid Eller'
p918
aS"We probably won't last through college. Not if this is how it's gonna be. Lol only time will tell though."
p919
aS'"can we skip this whole \xe2\x80\x9ccollege\xe2\x80\x9d thing and go straight &amp; go to the part where i have a really awesome job and spend all my time traveling\xe2\x80\x9d'
p920
aS'@bailz_zeleny Next year I want to really take some extra time with my game &amp; my college choice for bowling.'
p921
aS'\xe2\x80\x9c@TanaRain_: @SarahhReederr last time to ever see me.\xe2\x80\x9d okay college roomy'
p922
aS"@JRHegwood 4 years of college and you couldn't spell league right the first time"
p923
aS'There was this kid I knew my freshman year of college that every time he saw a hot chick he\'d say "I\'d pee in her butt."'
p924
aS'This time last year, I was single, planning on majoring in creative writing, and thought college in NYC would be glamorous.'
p925
aS"Woah. I'm a senior in college. #wheredidtimego"
p926
aS'just thinking about college and living on my own next year makes me so giddy yet so upset at the same time\xf0\x9f\x98\xad'
p927
aS'A 94% on my important &amp; difficult college paper? Get at me \xe2\x9c\x8c\xef\xb8\x8f#timetograduate'
p928
aS"I can't believe in a week I'll be done with my first year of college \xf0\x9f\x98\xb3 #timeflys"
p929
aS'@SportsFanatico  you right but excluding the college rule, he might be one of the greatest of all time..no doubt'
p930
aS"finally left the library after 9 hours, that's the first and last time I'll ever do that in college #wontmissit"
p931
aS"Every time I read @collegefession 's tweets about cheating, it makes me not even want to have a relationship in college."
p932
aS'Being in college sometimes blows ...'
p933
aS'Last time in tau, college has come full circle.'
p934
aS"Can't believe this is the last week of classes for my freshmen year of college. #timeflies"
p935
aS"By the time I get all of my college stuff unloaded and settled back into my room it'll be time to take it out again...\xf0\x9f\x98\x91"
p936
aS"I am in college I don't have time to be acting like a child \xf0\x9f\x98\x92"
p937
aS"My goal is to be friends with the least amount of people by the time I leave for college. That way there isn't much to miss when I'm gone."
p938
aS'@Its_TheKidd @YBchose_Jordan naw, it aint nun like that. Im off at college but wen I get back well go swimmin just like old times'
p939
aS'Sometimes, my apartment is worse than a college house with the parties. This is my nightmare.'
p940
aS'college is the only time I can be temporarily homeless and not be judged too harshly.'
p941
aS'The best part of prom was dancing and partying after. In college you can do both, at the same time, without getting dressed up.\xf0\x9f\x8d\xbb'
p942
aS"High school is so pointless. I know how to add and subtract and read and write, what more can you teach me? It's time for college."
p943
aS'#Tbt to the last time getting to chalk campus for overflow! Great times! Great semester! #chalk #tbt #uncw #college'
p944
aS"Mindfucked that by this time next week I'll be done with my freshman year of college \xf0\x9f\x98\xb3\xf0\x9f\x99\x80\xf0\x9f\x99\x88"
p945
aS'Well time to save up for college.'
p946
aS'@kev_grant13 you have to move on with ur life and grow up and enjoy the time u have in college not try and prolong it.'
p947
aS'I think this is the time for graduation \xf0\x9f\x98\x84 this much college is enough for me \xf0\x9f\x98\x82\xf0\x9f\x98\x84'
p948
aS"I just feel like I'm going to spend a good amount of my time browsing 4chan boards while i'm In college"
p949
aS'@MattymayorLVS ew no stop, I wanna be a track Olympian there no time for games \xf0\x9f\x98\x82 cheer has to wait in college sadly'
p950
aS"Even though my field trip was untimely at 8:30am this morning, it was the funniest thing I've done while in college."
p951
aS'I sign up for college classes tomorrow \xf0\x9f\x98\xb1 time flies...'
p952
aS'Dropping out of college , so I can make vine videos full time . \xe2\x9c\x8c\xef\xb8\x8f\xf0\x9f\x98\x8a'
p953
aS"IF the NCAA was the best course of action to correct college sports, why hasn't it done so?  NCAA has been around for a long, long time"
p954
aS"@TheBandJustus and @PTPLBand I may be moving to Florida sometime next year. Will be looking at Full Sail for college next time I'm here!!!"
p955
aS'Just creeped my college career in pictures. First time ever experiencing Everclear \xf0\x9f\x98\x82 #gotthisgirl #smilingishard'
p956
aS"Take care helped me get through my junior and senior year in high school. NWTS got me through this year in college. He's always on time"
p957
aS'Working full time and going back to college was such a great decision #debtfree #nolife'
p958
aS"My physics teacher just scolded us about how none of us will be successful in college so that's always a fun time"
p959
aS'Had good time being away for couple days in MA visiting my cousin in college but sad be back .'
p960
aS"Sometimes I be like college I'm not going but then I think like I'm going to the NBA so I'm going to college"
p961
aS"Done with my second semester of college!! Wow time flies by but thank you God. I'm so incredibly blessed for this opportunity"
p962
aS'Last time I checked I thought we were in college.'
p963
aS'Went to college in Ohio, first time in Michigan. And what an airport. Wow! Amenities galore. (at @dtweetin)'
p964
aS"Don't forget to buy your senior week tickets! It's a once in a life time experience graduating college. #SpreadTheWord"
p965
aS"The fact I'm graduating from college in two days #timeflies #scary #reallifemoments"
p966
aS'"Can\'t spend enough time on the wall, the wall can pay for college." -Quint Kessenich'
p967
aS'Only a couple more weeks and I would have officially survived my first year of college! #wow #timeflies'
p968
aS'First time representing @WoosterEdu at a college fair...as an alum! So excited #FightingScots #VolunterAlum'
p969
aS'If I had a dollar for every time an adult asked me about college then I\xe2\x80\x99d have enough money to pay for college'
p970
aS"All I know I that I'm not going to be wasting my money on college, no matter how many times I switch my major, education is priceless."
p971
aS'Last day of college classes! #timeflies #finalsweek #collefe #carrollu'
p972
aS"Two weeks from now I'll be falling asleep at home as a college graduate #shit #timeflies"
p973
aS'Last week of officially being a sophomore in college. Where does time go?'
p974
aS'As much as I hate studying for these tests, I never ever want to leave college, or alpha phi, or my friends. #makethetimestop'
p975
aS'"If I had a dollar for every time someone spelled my name wrong i could pay for college semester abroad a new car nd a mansion in cash"'
p976
aS"Sometimes I forget I graduated.. I feel like college is just a vacation where you're forced to do school work"
p977
aS'I hope this is the last time i pick early classes throughout college'
p978
aS"Everyone from 2010 is graduating from college and I'm over here working full time making bank and debt free. Not even mad"
p979
aS"It kinda feels like I've been 18 for a long ass time but I started college like yesterday."
p980
aS'I met good people in college . I should spend more time with them and watch me do better'
p981
aS'For some reason leaving college station this time has been the hardest one yet. #myhappyplace'
p982
aS'@Cody_BH My favorite was how many times "turn up" was written. Also, one said "hi college kid". Elementary school man.'
p983
aS'Currently feeling like death with a 102 fever and possible Strep during probably the busiest and most stressful time of my college career. \xf0\x9f\x91\x8d'
p984
aS'so, my niece sings the ICDC college song everytime the commercial comes on. based on that, I believe she will have a bright future. \xf0\x9f\x98\xb9\xf0\x9f\x98\xb9'
p985
aS"I hate to say this but, I don't think I'm going to force my child to go to college, by that time it really 100% won't be necessary."
p986
aS'The best thing about college is nobody bitches you out if you jut want to skip sometimes #sleepingin'
p987
aS'If I had a dollar for every time someone spelled or said my name wrong, I would be retired before I graduate college. #StoryOfMyLife'
p988
aS'U shouldnt be in a real relationship till after college when u have time anything before that wont last unless u dont go to college'
p989
aS'Booking a one way flight to college next year... #timeflies'
p990
aS'One week left of my first year of college! Holy cow, time flies! #homestretch'
p991
aS'Cant stand how people who give zero fucks about there academics are still enrolled in college, if you hate it so much stop wasting your time'
p992
aS'#pauhana time with college friends! @ Home Bar &amp; Grill'
p993
aS'Sometimes I really hate college. I wanna bomb the people next door'
p994
aS'Probably the college kid in me talking, but sometimes crackers and cheese just hits the spot.'
p995
aS"I really can't wait until college this fall b/c I get to choose my fucking classes to go to and what time to go. (Which are evening classes)"
p996
aS'I always wonder why people gain weight in college, then I ask myself how many times a night I eat "dinner" &amp; my first question is answered'
p997
aS"Last full week of classes for freshman year of college... Damn time flys when you're having fun"
p998
aS"In high school I used to get so mad if I didn't get an A on everything. In college I'm ecstatic over a C \xf0\x9f\x99\x8c oh how times have changed lolol"
p999
aS'Had a great time discussing new biz models and college affordability on behalf of students this morning! @LuminaFound #Goal2025'
p1000
aS'"@RhiannaMichele: \xe2\x80\x9c@RealMrFinisher: Use one word to describe how lost you feel in college sometimes: Croatoan\xe2\x80\x9d YAS!" Glad someone got it'
p1001
aS"Lmao last time I checked I didn't need a car to get to a college party haha silly father."
p1002
aS"That's why my parents are able to send me to a college full time and the tuition is 40,000$ a year."
p1003
aS'take a shot everytime someone posts "I LOVE chipotle!!!" your college\'s faebook group'
p1004
aS"I'm out and it's my bedtime... \xf0\x9f\x98\x9e not about this college life tbh."
p1005
aS'So work all weekend, I need time to work on my speech, and start studying for finals. Miracles shall be made these next few weeks. #college'
p1006
aS'Saving lives, one college program employee at a time (@ Reedy Creek Emergency Services Medic 12 at DHS)'
p1007
aS'How am I suppose to get work done if the Internet at the college is slower than dial up? #getwiththetimes #comeon'
p1008
aS'The blackboard....time for class.  #backtoschool #college #studytime @ Cafe Fulya'
p1009
aS'I hate how people around are going on vacations and stuff. And i\'m just like "I can\'t skip a fucking single day in college" #thattimeofyear'
p1010
aS'Officially a sophomore in college \xf0\x9f\x98\xa2 time flys.'
p1011
aS"Those times when you're sick away at college and your mom isn't there to take care of you...\xf0\x9f\x91\x8e"
p1012
aS'@xsontrees do u have netflix\n\nHow much time do u spend on netflix\n\nDo you think netflix is good for college students'
p1013
aS'&amp; it\'s not even like I\'m "out of control" like my grandma claims. I don\'t do drugs, hardly drink &amp; my ass is a full time college student.'
p1014
aS'LOVE the idea of this app. I would have used it all the time in college &amp; when I lived alone.'
p1015
aS'Positions that require college degrees. Sometimes I just dont get it. Ive been doing this for a long time. Is it absolutely required? #sigh'
p1016
aS'@THamzikELON Thanks, man! I was afraid you\xe2\x80\x99d big-time me now that you\xe2\x80\x99ve taken the college sports scene by storm'
p1017
aS"It just hit me that I'm almost done with my first year of college damn did time flyyyy"
p1018
aS'Being is college would be the perfect time to have a big sister'
p1019
aS'Last day of being a junior in college #timeflies'
p1020
aS'\xe2\x80\x9c@tanaholics: if i had a dollar for every time an adult asked me about college then i\xe2\x80\x99d have enough money to pay for college\xe2\x80\x9d'
p1021
aS'\xe2\x80\x9c@collegefession: "Every time I jack off I think of my ex girlfriend. Fml" - Columbus state community college\xe2\x80\x9dwhat a pusscake'
p1022
aS"It's scary to think that by this time next year most of my class and I will know where they're going to college....."
p1023
aS'People always talk about high school being the best times of their lives.....no. 1 year of college &gt; 4 years of high school'
p1024
aS'Officially done with college. Thank you @GVSU for making this experience what is was #LakerForALifetime'
p1025
aS"@emileecranford honestly don't even waste your time on deciding that! Trust me you figure that out in college not high school"
p1026
aS"It's time for college \xf0\x9f\x98\x92"
p1027
aS'Sometimes I get on here and scroll down my TL and say, "Yup, they say that now, wait until he/she gets to college."'
p1028
aS'The time we went to some college acapella championship thing - and it was AWESOME. cc @aenbar\xe2\x80\xa6'
p1029
aS'"@crizz_beatz: @Mountain_AAO12 let\'s guess who winning the east? \xf0\x9f\x98\x92...exciting"\xf0\x9f\x98\x92\xf0\x9f\x98\x92 next time say NBA cuz I stayz watching college too'
p1030
aS'Graduation is 23 days away... So many big things happening in such a short period of time! #UIUC #Graduation #MovingOn #College #collegelife'
p1031
aS"\xe2\x80\x9c@6oody: By the time you guys finish college, you'll basically be slaves with all debt you have to pay.\xe2\x80\x9d #tru"
p1032
aS"Just dropped a whole 2 ply roll of toilet paper in the toilet on a college budget so I think it's time to call it a night."
p1033
aS'So many bucket hats. No time at all. #college #fratlife'
p1034
aS'Sometimes I really regret not taking the chance of finding the financial stability to go to Auburn for college.. \xf0\x9f\x98\x94'
p1035
aS'Cool...Matthew Weiner &amp; I both read One Hundred Years of Solitude in college while studying abroad in Spain @nytimes'
p1036
aS'One of the best nights in a long time! Thanks to everyone who came out... #college #friends #real #birthday #celebration'
p1037
aS'At this point in time ion wanna meet new ppl. I just wanna get thru college &amp; already have my career.'
p1038
aS'Sometimes college tries a bit too hard'
p1039
aS"I MEAN, I'm in college and all. But I wouldn't mind participating in the Prom shenanigans one last time. Tbh."
p1040
aS'\xe2\x80\x9c@collegefession: "Every time I go take a shit the guy in the stall next to me is jerking off. #desprite" - College of dupage\xe2\x80\x9d desperate****'
p1041
aS'@Trevor_Kemp95 @trysehendricks not yet, wait till college to do that. No need to waste time in high school lol.'
p1042
aS'\xe2\x80\x9c@collegefession: "I go into the bathrooms and steal the toilet paper all the time #BrokeCollegeKidProbs" - Texarkana College\xe2\x80\x9d@alliconrad7'
p1043
aS'Almost halfway done with college, where did the time go'
p1044
aS"I really don't have the desire to go out anymore. Lol I'd rather spend time with my family before I leave for college"
p1045
aS'@CeeJ_Carter took it 3 times in my college days'
p1046
aS'Cony class of 2014 moves into college in less than 4 months and that excites me and stresses me out at the same time ugh'
p1047
aS'Yall its time to turn down &amp; get in college or some dang...'
p1048
aS'I Really wanna take the time out to thank Wendell he help me with all my college stuff \xf0\x9f\x91\x8f\xf0\x9f\x91\x8f\xe2\x98\xba\xef\xb8\x8f'
p1049
aS"I hope I can relive winning states and leagues again one more time before I go to college I'm gonna miss everyone 3 months\xf0\x9f\x98\x94\xf0\x9f\x98\x81 #bittersweet"
p1050
aS"When you graduate college, it's time to actually leave college...ya digg??"
p1051
aS'My dad said he did shrooms one time in college and all he did was listen and talk about music'
p1052
aS"So tired. So tired all the time. Only 7 days until I'm done with finals.... =( Zzzzzzz #college #finals #studying"
p1053
aS"Bittersweet leaving my house right now. The next time I'm home I'll be a college graduate"
p1054
aS'Every time I have to write a paper for college I think about dropping out \xee\x90\x92\xee\x90\x92\xee\x90\x92 Is that bad?? \xee\x90\x92\xee\x90\x92\xee\x90\x92'
p1055
aS'Public crying during finals time in college is okay right?'
p1056
aS"Just yesterday I sent @SarbearBrereton off to college with @KevinVestrand and today I'm the little baby left ... How time flies #LoveYouBoth"
p1057
aS"\xe2\x80\x9c@tarzann94: Last week of school then it's finals time. Lawd please with me finish my first year of college!\xe2\x80\x9d Then you get to come home \xf0\x9f\x92\x96"
p1058
aS'#tbt to one of the many ridiculous nights of my time in college. Started the night with my #besties\xe2\x80\xa6'
p1059
aS'That time I turned 21 with tinab12 hahaha. #throwback #college #birthday #whatwasithinking\xe2\x80\xa6'
p1060
aS"You're in college. It's about time you learn the difference between your and you're."
p1061
aS"Where does the time go? It's almost the end of my freshman year of college. #timeflys"
p1062
aS"@_only1left i know i'm tryin make a way for my family on some college shit iont be havin time fr"
p1063
aS"I have the coolest dad of all time, thanks for not getting mad at me when I tell you all of the things I've done at college"
p1064
aS'Packed the car and left college just in time to listen to my favorite radio host! ---&gt; @dloesch Tune in now!'
p1065
aS'\xe2\x80\x9c@Lynzo__: "@OG_Foy: #WhyBeInARelationshipWhen You\'re about to go to college and meet new people? \xf0\x9f\x98\x9d" cause its time to let these hoes go..\xe2\x80\x9d'
p1066
aS"Bright side once I graduate from college, I will be able to have time of finding a relationship, Ladies- I'm single, ready to mingle"
p1067
aS"\xe2\x80\x9c@Michael61Sulka: No sleep tonight \xf0\x9f\x93\x9d\xf0\x9f\x93\x93\xf0\x9f\x93\x96\xe2\x80\x9d hell yeah lmao never had to do this till college and I've already done it 5 times."
p1068
aS"I could've graduated from college and had a family in the time its taking me to do this project"
p1069
aS"Sometimes I think I should just go to college and get a 'real' job and become boring."
p1070
aS'Wow, Greenup, you bring back memories...spent time here while a (sales) road warrior after college. (@ Greenup)'
p1071
aS'Reminiscing on that time I hit a professor with my car on my second day of college. #socollege'
p1072
aS"Sometimes I can't wait till college and sometimes I don't even wanna go cause Im scared \xf0\x9f\x99\x88"
p1073
aS'I only have more week of school left of my freshman year in college  \xf0\x9f\x98\xb3\xf0\x9f\x98\xb3 where has the time gone?? #bittersweet'
p1074
aS'I realize only college kids and under call it day drinking. Regular grown mfers just call it drinking no matter what time \xf0\x9f\x98\x82\xf0\x9f\x98\x82\xf0\x9f\x98\x82'
p1075
aS'Lets get drunk only two more thirsty Thursdays left of my freshman year of college... Wow crazy how fast time flies by.'
p1076
aS'I hate myself sometimes for not playing lacrosse in college'
p1077
aS'Am I really almost done with my first year of college?  #timeflys'
p1078
aS"In exactly one month, I'll be flying home, done with my first year of college. Where does the time go??"
p1079
aS'taking my first final in an hour, and ill he done with my first year of college in 3 days . time fucking flies man'
p1080
aS'Hmm college shirts this time next year'
p1081
aS'Sometimes I just *HATE* that I *LOVE* college football so much. # RollTide #TheProcess #RoadTo16'
p1082
aS'"You\'ve been away at college all weekend and I haven\'t spent any time with you!" #babysitting'
p1083
aS"all college students on my timeline are freaking the fuck out. y'all just remember cs get degrees. we've got this."
p1084
aS"Gah, I hate working because it takes time away from having a social life while in college, it's basically non existant..."
p1085
aS'never have a I ever had so many people ask me what time I go to sleep and when I wake up.... damn u college'
p1086
aS"For the first time since I've came to college dead week will actually be a dead week for me."
p1087
aS'"I gave up on humanity a long time ago, college has changed me" wise words from Tim'
p1088
aS'Why does college tennis have to be at the same time as college baseball. Wish I could do both'
p1089
aS"@Kiiing_Scooby college sports I wouldn't have time to do it :/ I think after the season ends I'll start up again I still have some time tho\xf0\x9f\x99\x8f"
p1090
aS'Wait I just had my last class ever as a junior in college. In less than a week I will be 21. #what #timeflies'
p1091
aS'Sometimes i wish i would have went to college and made the memories..'
p1092
aS'Life is what you make it, junior high could be the best time of your life, high school could be, college could be, or hell retirement could'
p1093
aS"It's crazy thinking I get up at the same time most college students will be getting to bed tonight"
p1094
aS'if I had a dollar for every time colin said "this field trip is ass" today I could jus fail the class n drop out of college rich'
p1095
aS"I can't believe my first year of college will be over in a week \xf0\x9f\x98\xb1 weird the time go."
p1096
aS'@sahgie1 at least were going to be done with college at the same time!'
p1097
aS'Done with my sophomore year of college and Tampa as a whole. Thanks for a lot of wasted time and broken promises lol'
p1098
aS'\xe2\x80\x9c@emileestar28: I swear the 8th grade girls think their in college like stop\xf0\x9f\x98\x82\xf0\x9f\x98\x82chill.\xe2\x80\x9d My thoughts Everytime they tweet about a "party" \xf0\x9f\x98\x82\xf0\x9f\x99\x8c\xf0\x9f\x98\x85'
p1099
aS'Shoutout to the people who can just drive home from college any time they want. #MissingHome #Alaska'
p1100
aS'One week and I will be done with my first year at college! Crazy how time flies!'
p1101
aS'Just in time before I go to college. Damn these months are probably gonna be the highlight of my year.'
p1102
aS'@nytimes: Advice on choosing college: "Few employers and graduate schools care where you started." Now that is just wrong. Plenty do care.'
p1103
aS"I can't believe I only have one more day of class in my freshman year of college... Where does time go?!"
p1104
aS'negative'
p1105
ag1105
ag1105
ag1105
ag1105
ag1105
ag1105
aS'neutral'
p1106
aS'positive'
p1107
ag1107
ag1105
ag1105
ag1106
ag1106
ag1105
ag1105
ag1106
ag1105
ag1105
ag1107
ag1105
ag1105
ag1106
ag1105
ag1105
ag1105
ag1107
ag1106
ag1105
ag1106
ag1106
ag1105
ag1105
ag1105
ag1107
ag1105
ag1105
ag1106
ag1105
ag1105
ag1105
ag1107
ag1105
ag1106
ag1105
ag1105
ag1105
ag1105
ag1105
ag1105
ag1105
ag1106
ag1105
ag1107
ag1105
ag1105
ag1105
ag1105
ag1105
ag1107
ag1105
ag1105
ag1107
ag1106
ag1107
ag1105
ag1107
ag1105
ag1107
ag1106
ag1105
ag1107
ag1107
ag1105
ag1107
ag1106
ag1105
ag1107
ag1107
ag1106
ag1105
ag1106
ag1107
ag1107
ag1105
ag1107
ag1107
ag1105
ag1107
ag1106
ag1105
ag1105
ag1105
ag1105
ag1107
ag1107
ag1105
ag1107
ag1106
ag1105
ag1105
ag1105
ag1105
ag1107
ag1105
ag1105
ag1107
ag1107
ag1107
ag1107
ag1105
ag1105
ag1105
ag1107
ag1107
ag1105
ag1105
ag1106
ag1105
ag1105
ag1105
ag1107
ag1105
ag1105
ag1105
ag1107
ag1107
ag1107
ag1105
ag1107
ag1105
ag1105
ag1106
ag1105
ag1105
ag1105
ag1105
ag1106
ag1107
ag1105
ag1105
ag1105
ag1105
ag1105
ag1106
ag1107
ag1105
ag1106
ag1105
ag1107
ag1107
ag1105
ag1106
ag1107
ag1105
ag1107
ag1107
ag1105
ag1105
ag1106
ag1105
ag1107
ag1105
ag1105
ag1105
ag1107
ag1105
ag1107
ag1106
ag1107
ag1107
ag1106
ag1105
ag1105
ag1107
ag1105
ag1105
ag1105
ag1105
ag1105
ag1107
ag1107
ag1106
ag1105
ag1105
ag1107
ag1107
ag1107
ag1105
ag1107
ag1105
ag1105
ag1105
ag1106
ag1107
ag1105
ag1105
ag1105
ag1107
ag1105
ag1105
ag1107
ag1107
ag1107
ag1105
ag1107
ag1105
ag1106
ag1107
ag1107
ag1107
ag1105
ag1105
ag1107
ag1105
ag1105
ag1105
ag1105
ag1107
ag1105
ag1107
ag1107
ag1105
ag1105
ag1106
ag1106
ag1105
ag1105
ag1105
ag1105
ag1107
ag1105
ag1106
ag1107
ag1107
ag1105
ag1105
ag1107
ag1107
ag1107
ag1107
ag1105
ag1105
ag1105
ag1107
ag1107
ag1105
ag1107
ag1105
ag1105
ag1105
ag1105
ag1107
ag1105
ag1107
ag1105
ag1105
ag1107
ag1105
ag1105
ag1107
ag1105
ag1105
ag1107
ag1105
ag1106
ag1107
ag1105
ag1107
ag1105
ag1107
ag1107
ag1107
ag1105
ag1105
ag1105
ag1107
ag1105
ag1106
ag1105
ag1105
ag1106
ag1105
ag1107
ag1105
ag1105
ag1106
ag1105
ag1107
ag1107
ag1106
ag1107
ag1107
ag1105
ag1105
ag1105
ag1105
ag1105
ag1107
ag1107
ag1105
ag1105
ag1106
ag1105
ag1105
ag1105
ag1105
ag1105
ag1107
ag1106
ag1105
ag1106
ag1106
ag1106
ag1106
ag1105
ag1107
ag1105
ag1105
ag1107
ag1105
ag1107
ag1105
ag1107
ag1105
ag1107
ag1107
ag1107
ag1107
ag1107
ag1106
ag1105
ag1106
ag1107
ag1107
ag1105
ag1105
ag1107
ag1107
ag1105
ag1105
ag1107
ag1105
ag1105
ag1107
ag1107
ag1107
ag1107
ag1107
ag1107
ag1105
ag1105
ag1107
ag1107
ag1106
ag1107
ag1105
ag1107
ag1105
ag1105
ag1107
ag1107
ag1107
ag1105
ag1107
ag1105
ag1107
ag1105
ag1106
ag1107
ag1106
ag1107
ag1106
ag1105
ag1105
ag1107
ag1106
ag1105
ag1107
ag1105
ag1105
ag1105
ag1105
ag1105
ag1106
ag1105
ag1105
ag1105
ag1105
ag1107
ag1107
ag1105
ag1107
ag1105
ag1107
ag1105
ag1107
ag1105
ag1105
ag1107
ag1107
ag1105
ag1106
ag1107
ag1105
ag1105
ag1105
ag1107
ag1105
ag1107
ag1107
ag1105
ag1107
ag1107
ag1105
ag1105
ag1105
ag1105
ag1107
ag1105
ag1107
ag1106
ag1105
ag1107
ag1105
ag1107
ag1107
ag1107
ag1105
ag1107
ag1107
ag1105
ag1105
ag1107
ag1107
ag1105
ag1107
ag1107
ag1105
ag1105
ag1107
ag1107
ag1107
ag1107
ag1105
ag1107
ag1105
ag1107
ag1107
ag1105
ag1105
ag1107
ag1107
ag1105
ag1105
ag1105
ag1105
ag1105
ag1105
ag1105
ag1107
ag1105
ag1105
ag1107
ag1105
ag1105
ag1105
ag1107
ag1107
ag1107
ag1107
ag1106
ag1105
ag1107
ag1107
ag1105
ag1107
ag1105
ag1107
ag1107
ag1105
ag1105
ag1105
ag1107
ag1107
ag1107
ag1107
ag1105
ag1107
ag1105
ag1107
ag1107
ag1107
ag1105
ag1105
ag1105
ag1105
ag1107
ag1105
ag1107
ag1107
ag1105
ag1107
ag1105
ag1106
ag1107
ag1106
ag1107
ag1107
ag1105
ag1105
ag1107
ag1105
ag1107
ag1105
ag1106
ag1105
ag1105
ag1105
ag1105
ag1106
ag1107
ag1107
ag1107
ag1105
ag1105
ag1107
ag1107
ag1107
ag1105
ag1105
ag1107
ag1107
ag1107
ag1107
ag1105
ag1107
ag1105
ag1107
ag1105
ag1106
ag1105
ag1107
ag1107
ag1105
ag1107
ag1105
ag1105
ag1106
ag1107
ag1105
ag1107
ag1107
ag1107
ag1105
ag1107
ag1107
ag1106
ag1105
ag1105
ag1105
ag1107
ag1107
ag1106
ag1105
ag1106
ag1105
ag1105
ag1105
ag1105
ag1105
ag1105
ag1105
ag1107
ag1105
ag1107
ag1105
ag1107
ag1105
ag1105
ag1105
ag1107
ag1107
ag1105
ag1105
ag1105
ag1107
ag1105
ag1107
ag1107
ag1105
ag1107
ag1105
ag1107
ag1107
ag1107
ag1106
ag1107
ag1107
ag1105
ag1107
ag1107
ag1106
ag1105
ag1107
ag1105
ag1105
ag1107
ag1107
ag1107
ag1105
ag1107
ag1105
ag1105
ag1106
ag1107
ag1107
ag1105
ag1105
ag1105
ag1105
ag1105
ag1107
ag1105
ag1107
ag1105
ag1107
ag1105
ag1105
ag1107
ag1105
ag1107
ag1106
ag1107
ag1107
ag1105
ag1107
ag1105
ag1107
ag1105
ag1105
ag1105
ag1107
ag1105
ag1105
ag1107
ag1106
ag1105
ag1107
ag1105
ag1105
ag1105
ag1105
ag1105
ag1106
ag1105
ag1105
ag1107
ag1107
ag1105
ag1106
ag1107
ag1107
ag1105
ag1107
ag1107
ag1107
ag1105
ag1107
ag1106
ag1105
ag1107
ag1107
ag1105
ag1107
ag1107
ag1105
ag1105
ag1105
ag1105
ag1107
ag1106
ag1107
ag1105
ag1107
ag1107
ag1107
ag1105
ag1107
ag1105
ag1106
ag1105
ag1106
ag1105
ag1105
ag1106
ag1107
ag1106
ag1105
ag1107
ag1107
ag1107
ag1105
ag1105
ag1106
ag1105
ag1105
ag1107
ag1105
ag1107
ag1107
ag1105
ag1107
ag1107
ag1105
ag1105
ag1106
ag1107
ag1107
ag1107
ag1106
ag1107
ag1105
ag1105
ag1105
ag1105
ag1105
ag1107
ag1105
ag1107
ag1105
ag1105
ag1107
ag1107
ag1107
ag1105
ag1107
ag1106
ag1107
ag1105
ag1106
ag1105
ag1105
ag1105
ag1105
ag1105
ag1107
ag1105
ag1105
ag1105
ag1105
ag1105
ag1105
ag1107
ag1105
ag1105
ag1105
ag1105
ag1105
ag1107
ag1105
ag1105
ag1107
ag1107
ag1107
ag1107
ag1106
ag1107
ag1107
ag1107
ag1107
ag1105
ag1107
ag1105
ag1107
ag1107
ag1107
ag1107
ag1106
ag1107
ag1105
ag1106
ag1106
ag1105
ag1107
ag1106
ag1107
ag1106
ag1107
ag1107
ag1107
ag1105
ag1107
ag1105
ag1107
ag1107
ag1107
ag1107
ag1107
ag1105
ag1105
ag1105
ag1107
ag1105
ag1105
ag1105
ag1105
ag1107
ag1105
ag1105
ag1107
ag1105
ag1105
ag1105
ag1105
ag1105
ag1105
ag1106
ag1106
ag1107
ag1106
ag1105
ag1106
ag1105
ag1105
ag1107
ag1107
ag1105
ag1107
ag1105
ag1107
ag1105
ag1107
ag1105
ag1107
ag1105
ag1105
ag1107
ag1105
ag1107
ag1105
ag1107
ag1107
ag1105
ag1105
ag1106
ag1107
ag1105
ag1107
ag1107
ag1107
ag1105
ag1107
ag1106
ag1107
ag1107
ag1107
ag1106
ag1107
ag1105
ag1107
ag1105
ag1107
ag1107
ag1107
ag1107
ag1105
ag1105
ag1107
ag1107
ag1107
ag1107
ag1105
ag1105
ag1107
ag1105
ag1105
ag1107
ag1107
ag1107
ag1107
ag1105
ag1107
ag1107
ag1105
ag1105
ag1107
ag1107
ag1107
ag1105
ag1107
ag1107
ag1107
ag1105
ag1105
ag1105
ag1107
ag1107
ag1105
ag1107
ag1107
ag1107
ag1107
ag1105
ag1107
ag1107
ag1107
ag1107
ag1107
ag1107
ag1107
ag1105
ag1105
ag1105
ag1106
ag1107
ag1105
ag1105
ag1105
ag1105
ag1107
ag1105
ag1105
ag1105
ag1107
ag1107
ag1107
ag1105
ag1107
ag1105
ag1107
ag1105
ag1107
ag1105
ag1105
ag1105
ag1105
ag1106
ag1105
ag1105
ag1105
ag1107
ag1107
ag1105
ag1107
ag1105
ag1105
ag1105
ag1105
ag1105
ag1107
ag1105
ag1105
ag1105
ag1105
ag1105
ag1105
ag1107
ag1106
ag1105
ag1107
ag1107
ag1105
ag1105
ag1107
ag1107
ag1105
ag1105
ag1107
ag1105
ag1105
ag1106
ag1105
ag1107
ag1107
ag1105
ag1105
ag1105
ag1105
ag1106
ag1107
ag1107
ag1106
ag1107
ag1107
ag1105
ag1107
ag1107
ag1105
ag1106
ag1107
ag1105
ag1105
ag1107
ag1107
ag1107
ag1107
ag1105
ag1105
ag1107
ag1105
ag1107
ag1105
ag1105
ag1105
ag1107
ag1107
ag1107
ag1107
ag1105
ag1105
ag1107
ag1105
ag1107
ag1105
ag1105
ag1105
ag1107
ag1105
ag1105
ag1105
ag1105
ag1106
ag1107
ag1105
ag1105
ag1105
ag1107
ag1107
ag1107
ag1105
ag1105
ag1105
ag1105
ag1107
ag1107
ag1105
ag1105
ag1107
ag1105
ag1105
ag1107
ag1105
ag1105
ag1105
ag1105
ag1105
ag1106
ag1107
ag1105
ag1105
atp1108
ba(lp1109
g9
(g10
(I0
tp1110
g12
tp1111
Rp1112
((I1
(I3
tp1113
g19
I00
(lp1114
g23
ag24
ag25
atp1115
(Ntp1116
tp1117
batp1118
bb.